 winmm

 Timestamp is 47c9ad26 (Sat Mar 01 21:23:18 2008)

 Preferred load address is 10000000

 Start         Length     Name                   Class
 0001:00000000 000126c8H .text                   CODE
 0002:00000000 00000180H .idata$5                DATA
 0002:00000180 00002c40H .rdata                  DATA
 0002:00002dc0 00000008H .rdata$sxdata           DATA
 0002:00002dc8 00000004H .rtc$IAA                DATA
 0002:00002dcc 00000004H .rtc$IZZ                DATA
 0002:00002dd0 00000004H .rtc$TAA                DATA
 0002:00002dd4 00000004H .rtc$TZZ                DATA
 0002:00002dd8 0000003cH .idata$2                DATA
 0002:00002e14 00000014H .idata$3                DATA
 0002:00002e28 00000180H .idata$4                DATA
 0002:00002fa8 000006a8H .idata$6                DATA
 0002:00003650 00001551H .edata                  DATA
 0003:00000000 00000004H .CRT$XCA                DATA
 0003:00000004 00000004H .CRT$XCAA               DATA
 0003:00000008 00000004H .CRT$XCZ                DATA
 0003:0000000c 00000004H .CRT$XIA                DATA
 0003:00000010 00000010H .CRT$XIC                DATA
 0003:00000020 00000004H .CRT$XIZ                DATA
 0003:00000024 00000004H .CRT$XPA                DATA
 0003:00000028 00000004H .CRT$XPX                DATA
 0003:0000002c 00000004H .CRT$XPZ                DATA
 0003:00000030 00000004H .CRT$XTA                DATA
 0003:00000034 00000004H .CRT$XTZ                DATA
 0003:00000040 00002510H .data                   DATA
 0003:00002560 000024ccH .bss                    DATA
 0004:00000000 00000058H .rsrc$01                DATA
 0004:00000060 000003e8H .rsrc$02                DATA

  Address         Publics by Value              Rva+Base     Lib:Object

 0000:00000000       __except_list              00000000     <absolute>
 0000:00000002       ___safe_se_handler_count   00000002     <absolute>
 0001:00000000       __ftol2                    10001000 f   winmm.obj
 0001:00000020       __DebugWelcomePopUp        10001020 f   winmm.obj
 0001:00000290       __DebugChangeModPopUp      10001290 f i winmm.obj
 0001:00000350       __DebugProcessData         10001350 f i winmm.obj
 0001:00000410       __DebugJoyStickData        10001410 f i winmm.obj
 0001:00000460       _Message                   10001460 f   winmm.obj
 0001:00000520       _LoadOrigDll               10001520 f   winmm.obj
 0001:00000600       _smooth                    10001600 f i winmm.obj
 0001:00000630       _WalkeraConvert2Bin        10001630 f   winmm.obj
 0001:00000670       _WalkeraConvert2Oct        10001670 f   winmm.obj
 0001:000006f0       _WalkeraElevator           100016f0 f   winmm.obj
 0001:00000730       _WalkeraAilerons           10001730 f   winmm.obj
 0001:00000780       _WalkeraThrottle           10001780 f   winmm.obj
 0001:000007d0       _WalkeraRudder             100017d0 f   winmm.obj
 0001:00000820       _WalkeraGear               10001820 f   winmm.obj
 0001:00000870       _WalkeraPitch              10001870 f   winmm.obj
 0001:000008c0       _WalkeraGyro               100018c0 f   winmm.obj
 0001:00000910       _WalkeraChannel8           10001910 f   winmm.obj
 0001:00000960       _WalkeraCheckSum           10001960 f   winmm.obj
 0001:00002150       _LoadProcessPulseFunctions 10003150 f   winmm.obj
 0001:000023d0       _SetActiveProcessPulseFunction 100033d0 f i winmm.obj
 0001:00002440       _CalcThreshold             10003440 f i winmm.obj
 0001:00002700       _StartPropo                10003700 f   winmm.obj
 0001:00002840       _StopPropo                 10003840 f   winmm.obj
 0001:00002970       _joyGetNumDevs@0           10003970 f   winmm.obj
 0001:00002980       _GetPointerToJsChPostProcOriginalFunc 10003980 f   winmm.obj
 0001:00002a10       _GetJsChPostProcInfo       10003a10 f   winmm.obj
 0001:00002ac0       _RunJsFilter               10003ac0 f   winmm.obj
 0001:00002b80       _GetPointerToOriginalFunc  10003b80 f   winmm.obj
 0001:00003ad0       _DllMain@12                10004ad0 f   winmm.obj
 0001:00003b60       _StartSppConsole           10004b60 f   winmm.obj
 0001:00003c80       _joyGetDevCapsA@12         10004c80 f   winmm.obj
 0001:00003db0       _joyGetPosEx@8             10004db0 f   winmm.obj
 0001:00003e20       _joyGetPos@8               10004e20 f   winmm.obj
 0001:00003e80       _LoadWinmm                 10004e80 f   winmm.obj
 0001:00003f40       _LoadJsChPostProc          10004f40 f   winmm.obj
 0001:00003fa0       _joyConfigChanged          10004fa0 f   winmm.obj
 0001:00003fe0       _joyGetThreshold           10004fe0 f   winmm.obj
 0001:00004020       _joyReleaseCapture         10005020 f   winmm.obj
 0001:00004060       _joySetCapture             10005060 f   winmm.obj
 0001:000040a0       _joySetThreshold           100050a0 f   winmm.obj
 0001:000040e0       _mci32Message              100050e0 f   winmm.obj
 0001:00004120       _mciDriverNotify           10005120 f   winmm.obj
 0001:00004160       _mciDriverYield            10005160 f   winmm.obj
 0001:000041a0       _mciExecute                100051a0 f   winmm.obj
 0001:000041e0       _mciFreeCommandResource    100051e0 f   winmm.obj
 0001:00004220       _mciGetCreatorTask         10005220 f   winmm.obj
 0001:00004260       _mciGetDeviceIDA           10005260 f   winmm.obj
 0001:000042a0       _mciGetDeviceIDFromElementIDA 100052a0 f   winmm.obj
 0001:000042e0       _mciGetDeviceIDFromElementIDW 100052e0 f   winmm.obj
 0001:00004320       _mciGetDeviceIDW           10005320 f   winmm.obj
 0001:00004360       _mciGetDriverData          10005360 f   winmm.obj
 0001:000043a0       _mciGetErrorStringA        100053a0 f   winmm.obj
 0001:000043e0       _mciGetErrorStringW        100053e0 f   winmm.obj
 0001:00004420       _mciGetYieldProc           10005420 f   winmm.obj
 0001:00004460       _mciLoadCommandResource    10005460 f   winmm.obj
 0001:000044a0       _mciSendCommandA           100054a0 f   winmm.obj
 0001:000044e0       _mciSendCommandW           100054e0 f   winmm.obj
 0001:00004520       _mciSendStringA            10005520 f   winmm.obj
 0001:00004560       _mciSendStringW            10005560 f   winmm.obj
 0001:000045a0       _mciSetDriverData          100055a0 f   winmm.obj
 0001:000045e0       _mciSetYieldProc           100055e0 f   winmm.obj
 0001:00004620       _mid32Message              10005620 f   winmm.obj
 0001:00004660       _midiConnect               10005660 f   winmm.obj
 0001:000046a0       _midiDisconnect            100056a0 f   winmm.obj
 0001:000046e0       _midiInAddBuffer           100056e0 f   winmm.obj
 0001:00004720       _midiInClose               10005720 f   winmm.obj
 0001:00004760       _midiInGetDevCapsA         10005760 f   winmm.obj
 0001:000047a0       _midiInGetDevCapsW         100057a0 f   winmm.obj
 0001:000047e0       _midiInGetErrorTextA       100057e0 f   winmm.obj
 0001:00004820       _midiInGetErrorTextW       10005820 f   winmm.obj
 0001:00004860       _midiInGetID               10005860 f   winmm.obj
 0001:000048a0       _midiInGetNumDevs          100058a0 f   winmm.obj
 0001:000048e0       _midiInMessage             100058e0 f   winmm.obj
 0001:00004920       _midiInOpen                10005920 f   winmm.obj
 0001:00004960       _midiInPrepareHeader       10005960 f   winmm.obj
 0001:000049a0       _midiInReset               100059a0 f   winmm.obj
 0001:000049e0       _midiInStart               100059e0 f   winmm.obj
 0001:00004a20       _midiInStop                10005a20 f   winmm.obj
 0001:00004a60       _midiInUnprepareHeader     10005a60 f   winmm.obj
 0001:00004aa0       _midiOutCacheDrumPatches   10005aa0 f   winmm.obj
 0001:00004ae0       _midiOutCachePatches       10005ae0 f   winmm.obj
 0001:00004b20       _midiOutClose              10005b20 f   winmm.obj
 0001:00004b60       _midiOutGetDevCapsA        10005b60 f   winmm.obj
 0001:00004ba0       _midiOutGetDevCapsW        10005ba0 f   winmm.obj
 0001:00004be0       _midiOutGetErrorTextA      10005be0 f   winmm.obj
 0001:00004c20       _midiOutGetErrorTextW      10005c20 f   winmm.obj
 0001:00004c60       _midiOutGetID              10005c60 f   winmm.obj
 0001:00004ca0       _midiOutGetNumDevs         10005ca0 f   winmm.obj
 0001:00004ce0       _midiOutGetVolume          10005ce0 f   winmm.obj
 0001:00004d20       _midiOutLongMsg            10005d20 f   winmm.obj
 0001:00004d60       _midiOutMessage            10005d60 f   winmm.obj
 0001:00004da0       _midiOutOpen               10005da0 f   winmm.obj
 0001:00004de0       _midiOutPrepareHeader      10005de0 f   winmm.obj
 0001:00004e20       _midiOutReset              10005e20 f   winmm.obj
 0001:00004e60       _midiOutSetVolume          10005e60 f   winmm.obj
 0001:00004ea0       _midiOutShortMsg           10005ea0 f   winmm.obj
 0001:00004ee0       _midiOutUnprepareHeader    10005ee0 f   winmm.obj
 0001:00004f20       _midiStreamClose           10005f20 f   winmm.obj
 0001:00004f60       _midiStreamOpen            10005f60 f   winmm.obj
 0001:00004fa0       _midiStreamOut             10005fa0 f   winmm.obj
 0001:00004fe0       _midiStreamPause           10005fe0 f   winmm.obj
 0001:00005020       _midiStreamPosition        10006020 f   winmm.obj
 0001:00005060       _midiStreamProperty        10006060 f   winmm.obj
 0001:000050a0       _midiStreamRestart         100060a0 f   winmm.obj
 0001:000050e0       _midiStreamStop            100060e0 f   winmm.obj
 0001:00005120       _mixerGetDevCapsA          10006120 f   winmm.obj
 0001:00005160       _mixerGetDevCapsW          10006160 f   winmm.obj
 0001:000051a0       _mixerGetID                100061a0 f   winmm.obj
 0001:000051e0       _mixerGetNumDevs           100061e0 f   winmm.obj
 0001:00005220       _mixerMessage              10006220 f   winmm.obj
 0001:00005260       _mmDrvInstall              10006260 f   winmm.obj
 0001:000052a0       _mmGetCurrentTask          100062a0 f   winmm.obj
 0001:000052e0       _mmTaskBlock               100062e0 f   winmm.obj
 0001:00005320       _mmTaskCreate              10006320 f   winmm.obj
 0001:00005360       _mmTaskSignal              10006360 f   winmm.obj
 0001:000053a0       _mmTaskYield               100063a0 f   winmm.obj
 0001:000053e0       _mmioAdvance               100063e0 f   winmm.obj
 0001:00005420       _mmioAscend                10006420 f   winmm.obj
 0001:00005460       _mmioClose                 10006460 f   winmm.obj
 0001:000054a0       _mmioCreateChunk           100064a0 f   winmm.obj
 0001:000054e0       _mmioDescend               100064e0 f   winmm.obj
 0001:00005520       _mmioFlush                 10006520 f   winmm.obj
 0001:00005560       _mmioGetInfo               10006560 f   winmm.obj
 0001:000055a0       _mmioInstallIOProcA        100065a0 f   winmm.obj
 0001:000055e0       _mmioInstallIOProcW        100065e0 f   winmm.obj
 0001:00005620       _mmioOpenA                 10006620 f   winmm.obj
 0001:00005660       _mmioOpenW                 10006660 f   winmm.obj
 0001:000056a0       _mmioRead                  100066a0 f   winmm.obj
 0001:000056e0       _mmioRenameA               100066e0 f   winmm.obj
 0001:00005720       _mmioRenameW               10006720 f   winmm.obj
 0001:00005760       _mmioSeek                  10006760 f   winmm.obj
 0001:000057a0       _mmioSendMessage           100067a0 f   winmm.obj
 0001:000057e0       _mmioSetBuffer             100067e0 f   winmm.obj
 0001:00005820       _mmioSetInfo               10006820 f   winmm.obj
 0001:00005860       _mmioStringToFOURCCA       10006860 f   winmm.obj
 0001:000058a0       _mmioStringToFOURCCW       100068a0 f   winmm.obj
 0001:000058e0       _mmioWrite                 100068e0 f   winmm.obj
 0001:00005920       _mmsystemGetVersion        10006920 f   winmm.obj
 0001:00005960       _mod32Message              10006960 f   winmm.obj
 0001:000059a0       _mxd32Message              100069a0 f   winmm.obj
 0001:000059e0       _sndPlaySoundA             100069e0 f   winmm.obj
 0001:00005a20       _sndPlaySoundW             10006a20 f   winmm.obj
 0001:00005a60       _tid32Message              10006a60 f   winmm.obj
 0001:00005aa0       _timeGetDevCaps            10006aa0 f   winmm.obj
 0001:00005ae0       _timeGetSystemTime         10006ae0 f   winmm.obj
 0001:00005b20       _timeKillEvent             10006b20 f   winmm.obj
 0001:00005b60       _timeSetEvent              10006b60 f   winmm.obj
 0001:00005ba0       _waveInGetDevCapsA         10006ba0 f   winmm.obj
 0001:00005be0       _waveInGetDevCapsW         10006be0 f   winmm.obj
 0001:00005c20       _waveInGetErrorTextA       10006c20 f   winmm.obj
 0001:00005c60       _waveInGetErrorTextW       10006c60 f   winmm.obj
 0001:00005ca0       _waveInGetID               10006ca0 f   winmm.obj
 0001:00005ce0       _waveInGetNumDevs          10006ce0 f   winmm.obj
 0001:00005d20       _waveInMessage             10006d20 f   winmm.obj
 0001:00005d60       _waveOutBreakLoop          10006d60 f   winmm.obj
 0001:00005da0       _waveOutClose              10006da0 f   winmm.obj
 0001:00005de0       _waveOutGetDevCapsA        10006de0 f   winmm.obj
 0001:00005e20       _waveOutGetDevCapsW        10006e20 f   winmm.obj
 0001:00005e60       _waveOutGetErrorTextA      10006e60 f   winmm.obj
 0001:00005ea0       _waveOutGetErrorTextW      10006ea0 f   winmm.obj
 0001:00005ee0       _waveOutGetID              10006ee0 f   winmm.obj
 0001:00005f20       _waveOutGetNumDevs         10006f20 f   winmm.obj
 0001:00005f60       _waveOutGetPitch           10006f60 f   winmm.obj
 0001:00005fa0       _waveOutGetPlaybackRate    10006fa0 f   winmm.obj
 0001:00005fe0       _waveOutGetVolume          10006fe0 f   winmm.obj
 0001:00006020       _waveOutMessage            10007020 f   winmm.obj
 0001:00006060       _waveOutOpen               10007060 f   winmm.obj
 0001:000060a0       _waveOutPause              100070a0 f   winmm.obj
 0001:000060e0       _waveOutReset              100070e0 f   winmm.obj
 0001:00006120       _waveOutRestart            10007120 f   winmm.obj
 0001:00006160       _waveOutSetPitch           10007160 f   winmm.obj
 0001:000061a0       _waveOutSetPlaybackRate    100071a0 f   winmm.obj
 0001:000061e0       _waveOutSetVolume          100071e0 f   winmm.obj
 0001:00006220       _waveOutWrite              10007220 f   winmm.obj
 0001:00006260       _wid32Message              10007260 f   winmm.obj
 0001:000062a0       _winmmDbgOut               100072a0 f   winmm.obj
 0001:000062e0       _winmmSetDebugLevel        100072e0 f   winmm.obj
 0001:00006320       _wod32Message              10007320 f   winmm.obj
 0001:00006360       _waveInGetPosition         10007360 f   winmm.obj
 0001:000063a0       _timeBeginPeriod           100073a0 f   winmm.obj
 0001:000063e0       _timeEndPeriod             100073e0 f   winmm.obj
 0001:00006420       _mixerSetControlDetails    10007420 f   winmm.obj
 0001:00006460       _mixerOpen                 10007460 f   winmm.obj
 0001:000064a0       _mixerClose                100074a0 f   winmm.obj
 0001:000064e0       _mixerGetLineInfoA         100074e0 f   winmm.obj
 0001:00006520       _mixerGetLineInfoW         10007520 f   winmm.obj
 0001:00006560       _mixerGetLineControlsA     10007560 f   winmm.obj
 0001:000065a0       _mixerGetLineControlsW     100075a0 f   winmm.obj
 0001:000065e0       _mixerGetControlDetailsA   100075e0 f   winmm.obj
 0001:00006620       _mixerGetControlDetailsW   10007620 f   winmm.obj
 0001:00006660       _waveOutGetPosition        10007660 f   winmm.obj
 0001:000066a0       _waveOutPrepareHeader      100076a0 f   winmm.obj
 0001:000066e0       _waveOutUnprepareHeader    100076e0 f   winmm.obj
 0001:00006720       _CloseDriver               10007720 f   winmm.obj
 0001:00006760       _DefDriverProc             10007760 f   winmm.obj
 0001:000067a0       _DriverCallback            100077a0 f   winmm.obj
 0001:000067e0       _DrvGetModuleHandle        100077e0 f   winmm.obj
 0001:00006820       _GetDriverModuleHandle     10007820 f   winmm.obj
 0001:00006860       _MigrateAllDrivers         10007860 f   winmm.obj
 0001:000068a0       _MigrateSoundEvents        100078a0 f   winmm.obj
 0001:000068e0       _NotifyCallbackData        100078e0 f   winmm.obj
 0001:00006920       _OpenDriver                10007920 f   winmm.obj
 0001:00006960       _PlaySound                 10007960 f   winmm.obj
 0001:000069a0       _PlaySoundA                100079a0 f   winmm.obj
 0001:000069e0       _PlaySoundW                100079e0 f   winmm.obj
 0001:00006a20       _SendDriverMessage         10007a20 f   winmm.obj
 0001:00006a60       _WOW32DriverCallback       10007a60 f   winmm.obj
 0001:00006aa0       _WOW32ResolveMultiMediaHandle 10007aa0 f   winmm.obj
 0001:00006ae0       _WOWAppExit                10007ae0 f   winmm.obj
 0001:00006b20       _WinmmLogoff               10007b20 f   winmm.obj
 0001:00006b60       _WinmmLogon                10007b60 f   winmm.obj
 0001:00006ba0       _aux32Message              10007ba0 f   winmm.obj
 0001:00006be0       _auxGetDevCapsA            10007be0 f   winmm.obj
 0001:00006c20       _auxGetDevCapsW            10007c20 f   winmm.obj
 0001:00006c60       _auxGetNumDevs             10007c60 f   winmm.obj
 0001:00006ca0       _auxGetVolume              10007ca0 f   winmm.obj
 0001:00006ce0       _auxOutMessage             10007ce0 f   winmm.obj
 0001:00006d20       _auxSetVolume              10007d20 f   winmm.obj
 0001:00006d60       _joy32Message              10007d60 f   winmm.obj
 0001:00006da0       _timeGetTime               10007da0 f   winmm.obj
 0001:00006de0       _joyGetDevCapsW            10007de0 f   winmm.obj
 0001:00006e20       _gfxAddGfx                 10007e20 f   winmm.obj
 0001:00006e60       _gfxBatchChange            10007e60 f   winmm.obj
 0001:00006ea0       _gfxCreateGfxFactoriesList 10007ea0 f   winmm.obj
 0001:00006ee0       _gfxCreateZoneFactoriesList 10007ee0 f   winmm.obj
 0001:00006f20       _gfxDestroyDeviceInterfaceList 10007f20 f   winmm.obj
 0001:00006f60       _gfxEnumerateGfxs          10007f60 f   winmm.obj
 0001:00006fa0       __gfxLogoff                10007fa0 f   winmm.obj
 0001:00006fe0       __gfxLogon                 10007fe0 f   winmm.obj
 0001:00007020       _gfxModifyGfx              10008020 f   winmm.obj
 0001:00007060       _gfxOpenGfx                10008060 f   winmm.obj
 0001:000070a0       _gfxRemoveGfx              100080a0 f   winmm.obj
 0001:000070e0       _waveInAddBuffer           100080e0 f   winmm.obj
 0001:00007120       _waveInClose               10008120 f   winmm.obj
 0001:00007160       _waveInOpen                10008160 f   winmm.obj
 0001:000071a0       _waveInPrepareHeader       100081a0 f   winmm.obj
 0001:000071e0       _waveInStart               100081e0 f   winmm.obj
 0001:00007220       _waveInStop                10008220 f   winmm.obj
 0001:00007260       _waveInUnprepareHeader     10008260 f   winmm.obj
 0001:000072a0       _waveInReset               100082a0 f   winmm.obj
 0001:000072e0       _SppMessageBoxWithErrorCode 100082e0 f   smartpropoplus:SmartPropoPlus.obj
 0001:00007350       _SetNumberOfFilters        10008350 f   smartpropoplus:SmartPropoPlus.obj
 0001:00007360       _SetSelectedFilterIndex    10008360 f   smartpropoplus:SmartPropoPlus.obj
 0001:000073b0       _SetFilterNames            100083b0 f   smartpropoplus:SmartPropoPlus.obj
 0001:000073c0       _GetModulation             100083c0 f   smartpropoplus:SmartPropoPlus.obj
 0001:000073d0       _GetDebugLevel             100083d0 f   smartpropoplus:SmartPropoPlus.obj
 0001:000073e0       _isFmsRegistryExist        100083e0 f   smartpropoplus:SmartPropoPlus.obj
 0001:00007420       _CreateDataBlock           10008420 f   smartpropoplus:SmartPropoPlus.obj
 0001:00007430       _OpenSharedDataStruct      10008430 f   smartpropoplus:GlobalMemory.obj
 0001:000074d0       _CreateSharedDataStruct    100084d0 f   smartpropoplus:GlobalMemory.obj
 0001:00007810       _GetModulationFromGlobalMemory 10008810 f   smartpropoplus:GlobalMemory.obj
 0001:00007920       _SetNumberOfFiltersToGlobalMemory 10008920 f   smartpropoplus:GlobalMemory.obj
 0001:00007990       _SetSelectedFilterIndexToGlobalMemory 10008990 f   smartpropoplus:GlobalMemory.obj
 0001:00007a00       _SetFilterNamesToGlobalMemory 10008a00 f   smartpropoplus:GlobalMemory.obj
 0001:00007b20       _GetFilterNameByIndexFromGlobalMemory 10008b20 f   smartpropoplus:GlobalMemory.obj
 0001:00007bb0       _CreateEmptyFmsRegistry    10008bb0 f   smartpropoplus:SppRegistry.obj
 0001:00007c00       _CreateDefaultModRegistry  10008c00 f   smartpropoplus:SppRegistry.obj
 0001:00007d10       _isModRegistryUpdate       10008d10 f   smartpropoplus:SppRegistry.obj
 0001:00007e40       _UpdateModRegistry         10008e40 f   smartpropoplus:SppRegistry.obj
 0001:00007f90       _SetSelectedFilterNameToRegistry 10008f90 f   smartpropoplus:SppRegistry.obj
 0001:00008030       _CreateDefaultSppRegistry  10009030 f   smartpropoplus:SppRegistry.obj
 0001:000080d0       _isDebugEntryExist         100090d0 f   smartpropoplus:SppRegistry.obj
 0001:00008190       _GetDebugLevelFromRegistry 10009190 f   smartpropoplus:SppRegistry.obj
 0001:000082a0       _GetModulationFromRegistry 100092a0 f   smartpropoplus:SppRegistry.obj
 0001:00008574       __ftol                     10009574 f   LIBCMT:ftol.obj
 0001:0000859b       __fpclear                  1000959b f   LIBCMT:fpinit.obj
 0001:0000859c       __cfltcvt_init             1000959c f   LIBCMT:fpinit.obj
 0001:000085d4       __fpmath                   100095d4 f   LIBCMT:fpinit.obj
 0001:000085f2       _sprintf                   100095f2 f   LIBCMT:sprintf.obj
 0001:0000864a       _fprintf                   1000964a f   LIBCMT:fprintf.obj
 0001:000086a8       __strdate                  100096a8 f   LIBCMT:strdate.obj
 0001:00008718       __strtime                  10009718 f   LIBCMT:strtime.obj
 0001:0000877f       __fsopen                   1000977f f   LIBCMT:fopen.obj
 0001:000087db       _fopen                     100097db f   LIBCMT:fopen.obj
 0001:000087ee       __getenv_lk                100097ee f   LIBCMT:getenv.obj
 0001:0000886f       _getenv                    1000986f f   LIBCMT:getenv.obj
 0001:000088b0       __alloca_probe             100098b0     LIBCMT:chkstk.obj
 0001:000088b0       __chkstk                   100098b0 f   LIBCMT:chkstk.obj
 0001:000088f0       _floor                     100098f0 f   LIBCMT:floor_pentium4.obj
 0001:00008930       __floor_pentium4           10009930 f   LIBCMT:floor_pentium4.obj
 0001:00008a11       _calloc                    10009a11 f   LIBCMT:calloc.obj
 0001:00008ae8       __fclose_lk                10009ae8 f   LIBCMT:fclose.obj
 0001:00008b34       _fclose                    10009b34 f   LIBCMT:fclose.obj
 0001:00008b85       __CRT_INIT@12              10009b85 f   LIBCMT:dllcrt0.obj
 0001:00008d06       __DllMainCRTStartup@12     10009d06 f   LIBCMT:dllcrt0.obj
 0001:00008dea       __amsg_exit                10009dea f   LIBCMT:dllcrt0.obj
 0001:00008e1d       __heap_alloc               10009e1d f   LIBCMT:malloc.obj
 0001:00008e98       __nh_malloc                10009e98 f   LIBCMT:malloc.obj
 0001:00008ec4       _malloc                    10009ec4 f   LIBCMT:malloc.obj
 0001:00008ed6       __forcdecpt                10009ed6 f   LIBCMT:cvt.obj
 0001:00008f12       __cropzeros                10009f12 f   LIBCMT:cvt.obj
 0001:00008f5d       __positive                 10009f5d f   LIBCMT:cvt.obj
 0001:00008f77       __fassign                  10009f77 f   LIBCMT:cvt.obj
 0001:00009080       __cftoe                    1000a080 f   LIBCMT:cvt.obj
 0001:0000918c       __cftof                    1000a18c f   LIBCMT:cvt.obj
 0001:000091f3       __cftog                    1000a1f3 f   LIBCMT:cvt.obj
 0001:00009292       __cfltcvt                  1000a292 f   LIBCMT:cvt.obj
 0001:000092e3       __setdefaultprecision      1000a2e3 f   LIBCMT:fp8.obj
 0001:000092f5       __ms_p5_test_fdiv          1000a2f5 f   LIBCMT:testfdiv.obj
 0001:00009335       __ms_p5_mp_test_fdiv       1000a335 f   LIBCMT:testfdiv.obj
 0001:0000935e       __flsbuf                   1000a35e f   LIBCMT:_flsbuf.obj
 0001:00009505       __output                   1000a505 f   LIBCMT:output.obj
 0001:00009cc1       ___initstdio               1000acc1 f   LIBCMT:_file.obj
 0001:00009d6a       ___endstdio                1000ad6a f   LIBCMT:_file.obj
 0001:00009d7e       __lock_file                1000ad7e f   LIBCMT:_file.obj
 0001:00009dad       __lock_file2               1000adad f   LIBCMT:_file.obj
 0001:00009dd0       __unlock_file              1000add0 f   LIBCMT:_file.obj
 0001:00009dff       __unlock_file2             1000adff f   LIBCMT:_file.obj
 0001:00009e22       __stbuf                    1000ae22 f   LIBCMT:_sftbuf.obj
 0001:00009eaa       __ftbuf                    1000aeaa f   LIBCMT:_sftbuf.obj
 0001:00009ed4       __SEH_prolog               1000aed4 f   LIBCMT:sehprolg.obj
 0001:00009f0f       __SEH_epilog               1000af0f f   LIBCMT:sehprolg.obj
 0001:00009f28       __except_handler3          1000af28 f   LIBCMT:exsup3.obj
 0001:0000a00e       __seh_longjmp_unwind@4     1000b00e f   LIBCMT:exsup3.obj
 0001:0000a029       __openfile                 1000b029 f   LIBCMT:_open.obj
 0001:0000a191       __errno                    1000b191 f   LIBCMT:dosmap.obj
 0001:0000a19a       ___doserrno                1000b19a f   LIBCMT:dosmap.obj
 0001:0000a1a3       __dosmaperr                1000b1a3 f   LIBCMT:dosmap.obj
 0001:0000a216       __getstream                1000b216 f   LIBCMT:stream.obj
 0001:0000a338       __mbsnbicoll               1000b338 f   LIBCMT:mbsnbico.obj
 0001:0000a390       _strlen                    1000b390 f   LIBCMT:strlen.obj
 0001:0000a41b       ___wtomb_environ           1000b41b f   LIBCMT:wtombenv.obj
 0001:0000a4ab       ___crtExitProcess          1000b4ab f   LIBCMT:crt0dat.obj
 0001:0000a4db       __lockexit                 1000b4db f   LIBCMT:crt0dat.obj
 0001:0000a4e4       __unlockexit               1000b4e4 f   LIBCMT:crt0dat.obj
 0001:0000a505       __cinit                    1000b505 f   LIBCMT:crt0dat.obj
 0001:0000a632       __exit                     1000b632 f   LIBCMT:crt0dat.obj
 0001:0000a643       __cexit                    1000b643 f   LIBCMT:crt0dat.obj
 0001:0000a652       __mtinitlocks              1000b652 f   LIBCMT:mlock.obj
 0001:0000a69b       __mtdeletelocks            1000b69b f   LIBCMT:mlock.obj
 0001:0000a6f0       __unlock                   1000b6f0 f   LIBCMT:mlock.obj
 0001:0000a705       __mtinitlocknum            1000b705 f   LIBCMT:mlock.obj
 0001:0000a7a5       __lock                     1000b7a5 f   LIBCMT:mlock.obj
 0001:0000a7d6       ___libm_error_support      1000b7d6 f   LIBCMT:libm_error.obj
 0001:0000aa82       ___sse2_available_init     1000ba82 f   LIBCMT:cpu_disp.obj
 0001:0000ab54       __floor_default            1000bb54 f   LIBCMT:floor.obj
 0001:0000ac27       __callnewh                 1000bc27 f   LIBCMT:handler.obj
 0001:0000ac42       ___heap_select             1000bc42 f   LIBCMT:heapinit.obj
 0001:0000ac5c       __heap_init                1000bc5c f   LIBCMT:heapinit.obj
 0001:0000acad       __heap_term                1000bcad f   LIBCMT:heapinit.obj
 0001:0000ad30       _memset                    1000bd30 f   LIBCMT:memset.obj
 0001:0000ad90       ___sbh_heap_init           1000bd90 f   LIBCMT:sbheap.obj
 0001:0000add8       ___sbh_find_block          1000bdd8 f   LIBCMT:sbheap.obj
 0001:0000ae03       ___sbh_free_block          1000be03 f   LIBCMT:sbheap.obj
 0001:0000b11b       ___sbh_alloc_new_region    1000c11b f   LIBCMT:sbheap.obj
 0001:0000b1d2       ___sbh_alloc_new_group     1000c1d2 f   LIBCMT:sbheap.obj
 0001:0000b2d8       ___sbh_resize_block        1000c2d8 f   LIBCMT:sbheap.obj
 0001:0000b5b7       ___sbh_alloc_block         1000c5b7 f   LIBCMT:sbheap.obj
 0001:0000b8b3       _free                      1000c8b3 f   LIBCMT:free.obj
 0001:0000b924       __close_lk                 1000c924 f   LIBCMT:close.obj
 0001:0000b9a7       __close                    1000c9a7 f   LIBCMT:close.obj
 0001:0000ba42       __freebuf                  1000ca42 f   LIBCMT:_freebuf.obj
 0001:0000ba6d       __flush                    1000ca6d f   LIBCMT:fflush.obj
 0001:0000baca       __fflush_lk                1000caca f   LIBCMT:fflush.obj
 0001:0000bbcd       __flushall                 1000cbcd f   LIBCMT:fflush.obj
 0001:0000bbd6       ___crtTlsAlloc@4           1000cbd6 f   LIBCMT:tidtable.obj
 0001:0000bbdf       __mtterm                   1000cbdf f   LIBCMT:tidtable.obj
 0001:0000bbfc       __initptd                  1000cbfc f   LIBCMT:tidtable.obj
 0001:0000bc0f       __getptd                   1000cc0f f   LIBCMT:tidtable.obj
 0001:0000bc80       __freefls@4                1000cc80 f   LIBCMT:tidtable.obj
 0001:0000bdc7       __freeptd                  1000cdc7 f   LIBCMT:tidtable.obj
 0001:0000bdf6       __mtinit                   1000cdf6 f   LIBCMT:tidtable.obj
 0001:0000bee5       __ioinit                   1000cee5 f   LIBCMT:ioinit.obj
 0001:0000c0e3       __ioterm                   1000d0e3 f   LIBCMT:ioinit.obj
 0001:0000c12f       __setenvp                  1000d12f f   LIBCMT:stdenvp.obj
 0001:0000c362       __setargv                  1000d362 f   LIBCMT:stdargv.obj
 0001:0000c404       ___crtGetEnvironmentStringsA 1000d404 f   LIBCMT:a_env.obj
 0001:0000c526       __RTC_Initialize           1000d526 f   LIBCMT:initsect.obj
 0001:0000c56a       __RTC_Terminate            1000d56a f   LIBCMT:initsect.obj
 0001:0000c5ae       __XcptFilter               1000d5ae f   LIBCMT:winxfltr.obj
 0001:0000c712       ___CppXcptFilter           1000d712 f   LIBCMT:winxfltr.obj
 0001:0000c72d       __NMSG_WRITE               1000d72d f   LIBCMT:crt0msg.obj
 0001:0000c8a5       __FF_MSGBANNER             1000d8a5 f   LIBCMT:crt0msg.obj
 0001:0000c8de       _isdigit                   1000d8de f   LIBCMT:_ctype.obj
 0001:0000c918       ___tolower_mt              1000d918 f   LIBCMT:tolower.obj
 0001:0000c9e0       _tolower                   1000d9e0 f   LIBCMT:tolower.obj
 0001:0000ca02       __ZeroTail                 1000da02 f   LIBCMT:intrncvt.obj
 0001:0000ca34       __IncMan                   1000da34 f   LIBCMT:intrncvt.obj
 0001:0000ca81       __RoundMan                 1000da81 f   LIBCMT:intrncvt.obj
 0001:0000caf3       __CopyMan                  1000daf3 f   LIBCMT:intrncvt.obj
 0001:0000cb0e       __IsZeroMan                1000db0e f   LIBCMT:intrncvt.obj
 0001:0000cb27       __ShrMan                   1000db27 f   LIBCMT:intrncvt.obj
 0001:0000cba2       __ld12cvt                  1000dba2 f   LIBCMT:intrncvt.obj
 0001:0000ccfa       __ld12tod                  1000dcfa f   LIBCMT:intrncvt.obj
 0001:0000cd10       __ld12tof                  1000dd10 f   LIBCMT:intrncvt.obj
 0001:0000cd26       __atodbl                   1000dd26 f   LIBCMT:intrncvt.obj
 0001:0000cd6b       __atoflt                   1000dd6b f   LIBCMT:intrncvt.obj
 0001:0000cdb0       _memmove                   1000ddb0 f   LIBCMT:memmove.obj
 0001:0000d0f0       _strcpy                    1000e0f0 f   LIBCMT:strcat.obj
 0001:0000d100       _strcat                    1000e100 f   LIBCMT:strcat.obj
 0001:0000d1e8       __fptostr                  1000e1e8 f   LIBCMT:_fptostr.obj
 0001:0000d25f       ___dtold                   1000e25f f   LIBCMT:cfout.obj
 0001:0000d319       __fltout2                  1000e319 f   LIBCMT:cfout.obj
 0001:0000d3c2       @__security_check_cookie@4 1000e3c2 f   LIBCMT:secchk.obj
 0001:0000d3d0       __fptrap                   1000e3d0 f   LIBCMT:crt0fp.obj
 0001:0000d4f9       __control87                1000e4f9 f   LIBCMT:ieee87.obj
 0001:0000d52b       __controlfp                1000e52b f   LIBCMT:ieee87.obj
 0001:0000d541       __lseek_lk                 1000e541 f   LIBCMT:lseek.obj
 0001:0000d5b5       __lseek                    1000e5b5 f   LIBCMT:lseek.obj
 0001:0000d660       __write_lk                 1000e660 f   LIBCMT:write.obj
 0001:0000d81c       __write                    1000e81c f   LIBCMT:write.obj
 0001:0000d8c7       __getbuf                   1000e8c7 f   LIBCMT:_getbuf.obj
 0001:0000d90b       __isatty                   1000e90b f   LIBCMT:isatty.obj
 0001:0000d935       ___wctomb_mt               1000e935 f   LIBCMT:wctomb.obj
 0001:0000d995       _wctomb                    1000e995 f   LIBCMT:wctomb.obj
 0001:0000d9c0       __aulldvrm                 1000e9c0 f   LIBCMT:ulldvrm.obj
 0001:0000da55       __fcloseall                1000ea55 f   LIBCMT:closeall.obj
 0001:0000daf0       __global_unwind2           1000eaf0 f   LIBCMT:exsup.obj
 0001:0000db32       __local_unwind2            1000eb32 f   LIBCMT:exsup.obj
 0001:0000db8a       __NLG_Return2              1000eb8a     LIBCMT:exsup.obj
 0001:0000db9a       __abnormal_termination     1000eb9a f   LIBCMT:exsup.obj
 0001:0000dbbd       __NLG_Notify1              1000ebbd f   LIBCMT:exsup.obj
 0001:0000dbc6       __NLG_Notify               1000ebc6 f   LIBCMT:exsup.obj
 0001:0000dbd9       __NLG_Dispatch             1000ebd9     LIBCMT:exsup.obj
 0001:0000dbde       __ValidateEH3RN            1000ebde f   LIBCMT:eh3valid.obj
 0001:0000e0ee       __sopen                    1000f0ee f   LIBCMT:open.obj
 0001:0000e153       ___crtInitCritSecAndSpinCount 1000f153 f   LIBCMT:initcrit.obj
 0001:0000e1fa       ___crtCompareStringA       1000f1fa f   LIBCMT:a_cmp.obj
 0001:0000e777       ___updatetmbcinfo          1000f777 f   LIBCMT:mbctype.obj
 0001:0000e97a       __setmbcp                  1000f97a f   LIBCMT:mbctype.obj
 0001:0000eaca       ___initmbctable            1000faca f   LIBCMT:mbctype.obj
 0001:0000eb96       ___crtsetenv               1000fb96 f   LIBCMT:setenv.obj
 0001:0000edec       ___onexitinit              1000fdec f   LIBCMT:onexit.obj
 0001:0000ee14       __onexit                   1000fe14 f   LIBCMT:onexit.obj
 0001:0000ee4c       _atexit                    1000fe4c f   LIBCMT:onexit.obj
 0001:0000ee5e       __matherr                  1000fe5e f   LIBCMT:matherr.obj
 0001:0000ee70       _strncmp                   1000fe70 f   LIBCMT:strncmp.obj
 0001:0000eea9       __raise_exc                1000fea9 f   LIBCMT:fpexcept.obj
 0001:0000f14e       __handle_exc               1001014e f   LIBCMT:fpexcept.obj
 0001:0000f372       __set_errno                10010372 f   LIBCMT:fpexcept.obj
 0001:0000f39a       __errcode                  1001039a f   LIBCMT:fpexcept.obj
 0001:0000f3c7       __umatherr                 100103c7 f   LIBCMT:fpexcept.obj
 0001:0000f465       __handle_qnan1             10010465 f   LIBCMT:fpexcept.obj
 0001:0000f4b8       __except1                  100104b8 f   LIBCMT:fpexcept.obj
 0001:0000f574       __frnd                     10010574 f   LIBCMT:frnd.obj
 0001:0000f585       __set_exp                  10010585 f   LIBCMT:util.obj
 0001:0000f5af       __sptype                   100105af f   LIBCMT:util.obj
 0001:0000f60a       __decomp                   1001060a f   LIBCMT:util.obj
 0001:0000f6c6       __statfp                   100106c6 f   LIBCMT:fpctrl.obj
 0001:0000f6d1       __clrfp                    100106d1 f   LIBCMT:fpctrl.obj
 0001:0000f6dd       __ctrlfp                   100106dd f   LIBCMT:fpctrl.obj
 0001:0000f701       __set_statfp               10010701 f   LIBCMT:fpctrl.obj
 0001:0000f757       __set_osfhnd               10010757 f   LIBCMT:osfinfo.obj
 0001:0000f7d3       __free_osfhnd              100107d3 f   LIBCMT:osfinfo.obj
 0001:0000f852       __get_osfhandle            10010852 f   LIBCMT:osfinfo.obj
 0001:0000f893       __lock_fhandle             10010893 f   LIBCMT:osfinfo.obj
 0001:0000f933       __unlock_fhandle           10010933 f   LIBCMT:osfinfo.obj
 0001:0000f955       __alloc_osfhnd             10010955 f   LIBCMT:osfinfo.obj
 0001:0000fad1       __commit                   10010ad1 f   LIBCMT:commit.obj
 0001:0000fb8d       ___freetlocinfo            10010b8d f   LIBCMT:setlocal.obj
 0001:0000fd1e       ___updatetlocinfo          10010d1e f   LIBCMT:setlocal.obj
 0001:0000fd60       _memcpy                    10010d60 f   LIBCMT:memcpy.obj
 0001:0001009d       ___crtMessageBoxA          1001109d f   LIBCMT:crtmbox.obj
 0001:000101a0       _strncpy                   100111a0 f   LIBCMT:strncpy.obj
 0001:000102c4       ___isctype_mt              100112c4 f   LIBCMT:isctype.obj
 0001:0001033b       ___crtLCMapStringA         1001133b f   LIBCMT:a_map.obj
 0001:00010711       ___addl                    10011711 f   LIBCMT:mantold.obj
 0001:00010732       ___add_12                  10011732 f   LIBCMT:mantold.obj
 0001:00010790       ___shl_12                  10011790 f   LIBCMT:mantold.obj
 0001:000107be       ___shr_12                  100117be f   LIBCMT:mantold.obj
 0001:000107eb       ___mtold12                 100117eb f   LIBCMT:mantold.obj
 0001:000108d3       ___strgtold12              100118d3 f   LIBCMT:strgtold.obj
 0001:00010d13       _$I10_OUTPUT               10011d13 f   LIBCMT:x10fout.obj
 0001:00010faf       ___security_init_cookie    10011faf f   LIBCMT:seccinit.obj
 0001:00011015       ___security_error_handler  10012015 f   LIBCMT:secfail.obj
 0001:00011160       __lseeki64_lk              10012160 f   LIBCMT:lseeki64.obj
 0001:000111e3       __chsize_lk                100121e3 f   LIBCMT:chsize.obj
 0001:00011328       __read_lk                  10012328 f   LIBCMT:read.obj
 0001:00011505       ___ansicp                  10012505 f   LIBCMT:convrtcp.obj
 0001:0001154c       ___convertcp               1001254c f   LIBCMT:convrtcp.obj
 0001:00011726       __resetstkoflw             10012726 f   LIBCMT:resetstk.obj
 0001:00011809       ___crtGetStringTypeA       10012809 f   LIBCMT:a_str.obj
 0001:000119c3       __strdup                   100129c3 f   LIBCMT:strdup.obj
 0001:000119c3       _strdup                    100129c3 f   LIBCMT:strdup.obj
 0001:000119ee       _realloc                   100129ee f   LIBCMT:realloc.obj
 0001:00011ba0       __mbschr                   10012ba0 f   LIBCMT:mbschr.obj
 0001:00011c1b       __msize                    10012c1b f   LIBCMT:msize.obj
 0001:00011c91       ___free_lc_time            10012c91 f   LIBCMT:inittime.obj
 0001:00011e21       ___free_lconv_num          10012e21 f   LIBCMT:initnum.obj
 0001:00011e80       ___free_lconv_mon          10012e80 f   LIBCMT:initmon.obj
 0001:00011f60       _strcspn                   10012f60 f   LIBCMT:strcspn.obj
 0001:00011fb0       _strcmp                    10012fb0 f   LIBCMT:strcmp.obj
 0001:00012040       _memcmp                    10013040 f   LIBCMT:memcmp.obj
 0001:00012100       _strpbrk                   10013100 f   LIBCMT:strpbrk.obj
 0001:00012140       ___ld12mul                 10013140 f   LIBCMT:tenpow.obj
 0001:00012376       ___multtenpow12            10013376 f   LIBCMT:tenpow.obj
 0001:00012404       __setmode_lk               10013404 f   LIBCMT:setmode.obj
 0001:00012470       _atol                      10013470 f   LIBCMT:atox.obj
 0001:00012510       _strchr                    10013510 f   LIBCMT:strchr.obj
 0001:00012516       ___from_strstr_to_strchr   10013516     LIBCMT:strchr.obj
 0001:000125d0       ___ascii_stricmp           100135d0 f   LIBCMT:_stricmp.obj
 0001:00012620       __allmul                   10013620 f   LIBCMT:llmul.obj
 0001:00012660       ___ascii_strnicmp          10013660 f   LIBCMT:_strnicm.obj
 0001:000126c2       _RtlUnwind@16              100136c2 f   kernel32:KERNEL32.dll
 0002:00000000       __imp__RegQueryInfoKeyA@48 10014000     advapi32:ADVAPI32.dll
 0002:00000004       __imp__RegCreateKeyExA@36  10014004     advapi32:ADVAPI32.dll
 0002:00000008       __imp__RegSetValueExA@24   10014008     advapi32:ADVAPI32.dll
 0002:0000000c       __imp__RegQueryValueExA@24 1001400c     advapi32:ADVAPI32.dll
 0002:00000010       __imp__RegOpenKeyExA@20    10014010     advapi32:ADVAPI32.dll
 0002:00000014       __imp__RegCloseKey@4       10014014     advapi32:ADVAPI32.dll
 0002:00000018       __imp__RegEnumValueA@32    10014018     advapi32:ADVAPI32.dll
 0002:0000001c       \177ADVAPI32_NULL_THUNK_DATA 1001401c     advapi32:ADVAPI32.dll
 0002:00000020       __imp__HeapFree@12         10014020     kernel32:KERNEL32.dll
 0002:00000024       __imp__GetProcAddress@8    10014024     kernel32:KERNEL32.dll
 0002:00000028       __imp__FreeLibrary@4       10014028     kernel32:KERNEL32.dll
 0002:0000002c       __imp__TlsGetValue@4       1001402c     kernel32:KERNEL32.dll
 0002:00000030       __imp__TlsAlloc@0          10014030     kernel32:KERNEL32.dll
 0002:00000034       __imp__WaitForSingleObject@8 10014034     kernel32:KERNEL32.dll
 0002:00000038       __imp__CreateProcessA@40   10014038     kernel32:KERNEL32.dll
 0002:0000003c       __imp__CreateMutexA@12     1001403c     kernel32:KERNEL32.dll
 0002:00000040       __imp__OpenMutexA@12       10014040     kernel32:KERNEL32.dll
 0002:00000044       __imp__ReleaseMutex@4      10014044     kernel32:KERNEL32.dll
 0002:00000048       __imp__TlsSetValue@8       10014048     kernel32:KERNEL32.dll
 0002:0000004c       __imp__SetLastError@4      1001404c     kernel32:KERNEL32.dll
 0002:00000050       __imp__MapViewOfFile@20    10014050     kernel32:KERNEL32.dll
 0002:00000054       __imp__OpenFileMappingA@12 10014054     kernel32:KERNEL32.dll
 0002:00000058       __imp__CreateFileMappingA@24 10014058     kernel32:KERNEL32.dll
 0002:0000005c       __imp__HeapAlloc@12        1001405c     kernel32:KERNEL32.dll
 0002:00000060       __imp__GetProcessHeap@0    10014060     kernel32:KERNEL32.dll
 0002:00000064       __imp__GetFileAttributesExA@12 10014064     kernel32:KERNEL32.dll
 0002:00000068       __imp__LoadLibraryA@4      10014068     kernel32:KERNEL32.dll
 0002:0000006c       __imp__LoadLibraryExA@12   1001406c     kernel32:KERNEL32.dll
 0002:00000070       __imp__GetLastError@0      10014070     kernel32:KERNEL32.dll
 0002:00000074       __imp__GetSystemDirectoryA@8 10014074     kernel32:KERNEL32.dll
 0002:00000078       __imp__FormatMessageA@28   10014078     kernel32:KERNEL32.dll
 0002:0000007c       __imp__GetLocalTime@4      1001407c     kernel32:KERNEL32.dll
 0002:00000080       __imp__GetCurrentThreadId@0 10014080     kernel32:KERNEL32.dll
 0002:00000084       __imp__GetCommandLineA@0   10014084     kernel32:KERNEL32.dll
 0002:00000088       __imp__GetVersionExA@4     10014088     kernel32:KERNEL32.dll
 0002:0000008c       __imp__GetModuleHandleA@4  1001408c     kernel32:KERNEL32.dll
 0002:00000090       __imp__EnterCriticalSection@4 10014090     kernel32:KERNEL32.dll
 0002:00000094       __imp__LeaveCriticalSection@4 10014094     kernel32:KERNEL32.dll
 0002:00000098       __imp__WideCharToMultiByte@32 10014098     kernel32:KERNEL32.dll
 0002:0000009c       __imp__ExitProcess@4       1001409c     kernel32:KERNEL32.dll
 0002:000000a0       __imp__TerminateProcess@8  100140a0     kernel32:KERNEL32.dll
 0002:000000a4       __imp__GetCurrentProcess@0 100140a4     kernel32:KERNEL32.dll
 0002:000000a8       __imp__DeleteCriticalSection@4 100140a8     kernel32:KERNEL32.dll
 0002:000000ac       __imp__HeapDestroy@4       100140ac     kernel32:KERNEL32.dll
 0002:000000b0       __imp__HeapCreate@12       100140b0     kernel32:KERNEL32.dll
 0002:000000b4       __imp__VirtualFree@12      100140b4     kernel32:KERNEL32.dll
 0002:000000b8       __imp__VirtualAlloc@16     100140b8     kernel32:KERNEL32.dll
 0002:000000bc       __imp__HeapReAlloc@16      100140bc     kernel32:KERNEL32.dll
 0002:000000c0       __imp__CloseHandle@4       100140c0     kernel32:KERNEL32.dll
 0002:000000c4       __imp__TlsFree@4           100140c4     kernel32:KERNEL32.dll
 0002:000000c8       __imp__SetHandleCount@4    100140c8     kernel32:KERNEL32.dll
 0002:000000cc       __imp__GetStdHandle@4      100140cc     kernel32:KERNEL32.dll
 0002:000000d0       __imp__GetFileType@4       100140d0     kernel32:KERNEL32.dll
 0002:000000d4       __imp__GetStartupInfoA@4   100140d4     kernel32:KERNEL32.dll
 0002:000000d8       __imp__GetModuleFileNameA@12 100140d8     kernel32:KERNEL32.dll
 0002:000000dc       __imp__FreeEnvironmentStringsA@4 100140dc     kernel32:KERNEL32.dll
 0002:000000e0       __imp__GetEnvironmentStrings@0 100140e0     kernel32:KERNEL32.dll
 0002:000000e4       __imp__FreeEnvironmentStringsW@4 100140e4     kernel32:KERNEL32.dll
 0002:000000e8       __imp__GetEnvironmentStringsW@0 100140e8     kernel32:KERNEL32.dll
 0002:000000ec       __imp__UnhandledExceptionFilter@4 100140ec     kernel32:KERNEL32.dll
 0002:000000f0       __imp__WriteFile@20        100140f0     kernel32:KERNEL32.dll
 0002:000000f4       __imp__SetFilePointer@16   100140f4     kernel32:KERNEL32.dll
 0002:000000f8       __imp__RtlUnwind@16        100140f8     kernel32:KERNEL32.dll
 0002:000000fc       __imp__InterlockedExchange@8 100140fc     kernel32:KERNEL32.dll
 0002:00000100       __imp__VirtualQuery@12     10014100     kernel32:KERNEL32.dll
 0002:00000104       __imp__CreateFileA@28      10014104     kernel32:KERNEL32.dll
 0002:00000108       __imp__InitializeCriticalSection@4 10014108     kernel32:KERNEL32.dll
 0002:0000010c       __imp__CompareStringA@24   1001410c     kernel32:KERNEL32.dll
 0002:00000110       __imp__MultiByteToWideChar@24 10014110     kernel32:KERNEL32.dll
 0002:00000114       __imp__GetCPInfo@8         10014114     kernel32:KERNEL32.dll
 0002:00000118       __imp__CompareStringW@24   10014118     kernel32:KERNEL32.dll
 0002:0000011c       __imp__GetACP@0            1001411c     kernel32:KERNEL32.dll
 0002:00000120       __imp__GetOEMCP@0          10014120     kernel32:KERNEL32.dll
 0002:00000124       __imp__SetEnvironmentVariableA@8 10014124     kernel32:KERNEL32.dll
 0002:00000128       __imp__RaiseException@16   10014128     kernel32:KERNEL32.dll
 0002:0000012c       __imp__SetStdHandle@8      1001412c     kernel32:KERNEL32.dll
 0002:00000130       __imp__FlushFileBuffers@4  10014130     kernel32:KERNEL32.dll
 0002:00000134       __imp__LCMapStringA@24     10014134     kernel32:KERNEL32.dll
 0002:00000138       __imp__LCMapStringW@24     10014138     kernel32:KERNEL32.dll
 0002:0000013c       __imp__QueryPerformanceCounter@4 1001413c     kernel32:KERNEL32.dll
 0002:00000140       __imp__GetTickCount@0      10014140     kernel32:KERNEL32.dll
 0002:00000144       __imp__GetCurrentProcessId@0 10014144     kernel32:KERNEL32.dll
 0002:00000148       __imp__GetSystemTimeAsFileTime@4 10014148     kernel32:KERNEL32.dll
 0002:0000014c       __imp__SetEndOfFile@4      1001414c     kernel32:KERNEL32.dll
 0002:00000150       __imp__ReadFile@20         10014150     kernel32:KERNEL32.dll
 0002:00000154       __imp__GetLocaleInfoA@16   10014154     kernel32:KERNEL32.dll
 0002:00000158       __imp__VirtualProtect@16   10014158     kernel32:KERNEL32.dll
 0002:0000015c       __imp__GetSystemInfo@4     1001415c     kernel32:KERNEL32.dll
 0002:00000160       __imp__GetStringTypeA@20   10014160     kernel32:KERNEL32.dll
 0002:00000164       __imp__GetStringTypeW@16   10014164     kernel32:KERNEL32.dll
 0002:00000168       __imp__HeapSize@12         10014168     kernel32:KERNEL32.dll
 0002:0000016c       \177KERNEL32_NULL_THUNK_DATA 1001416c     kernel32:KERNEL32.dll
 0002:00000170       __imp__PostMessageA@16     10014170     user32:USER32.dll
 0002:00000174       __imp__MessageBoxA@16      10014174     user32:USER32.dll
 0002:00000178       __imp__RegisterWindowMessageA@4 10014178     user32:USER32.dll
 0002:0000017c       \177USER32_NULL_THUNK_DATA 1001417c     user32:USER32.dll
 0002:00000184       ??_C@_0BH@NCCKNJLF@SmartPropoPlus?5Message?$AA@ 10014184     winmm.obj
 0002:0000019c       ??_C@_0CP@GHCDPFPN@Software?2Flying?9Model?9Simulator?2@ 1001419c     winmm.obj
 0002:000001cc       ??_C@_0M@GNOGMMEG@Debug?9Level?$AA@ 100141cc     winmm.obj
 0002:000001d8       ??_C@_0BN@PPICJGAD@SmartPropoPlus?5Debug?5Message?$AA@ 100141d8     winmm.obj
 0002:000001f8       ??_C@_0BM@LCJMKAIC@?$CFs?6?6Cannot?5open?5logfile?3?5?$CFs?$AA@ 100141f8     winmm.obj
 0002:00000214       ??_C@_0BK@HNOODNNP@?$CFs?6?6Data?9Flow?5logfile?3?5?$CFs?$AA@ 10014214     winmm.obj
 0002:00000230       ??_C@_0N@OIGGEIMG@SPP_data?4log?$AA@ 10014230     winmm.obj
 0002:00000240       ??_C@_0BN@EPFFBPJA@?$CFs?6?6Control?9Flow?5logfile?3?5?$CFs?$AA@ 10014240     winmm.obj
 0002:00000260       ??_C@_0BB@MDGHENAJ@?$CFs?5?9?5?$CFs?6?$CFs?6?6?$CFs?6?6?$AA@ 10014260     winmm.obj
 0002:00000278       ??_C@_0EK@CLEBOHHH@?$CK?$CK?$CK?$CK?$CK?$CK?$CK?$CK?$CK?$CK?$CK?$CK?$CK?$CK?$CK?$CK?$CK?$CK?$CK?$CK?$CK?$CK?$CK?$CK?$CK?$CK?$CK?$CK?$CK?$CK?$CK?$CK@ 10014278     winmm.obj
 0002:000002c4       ??_C@_01NOFIACDB@w?$AA@    100142c4     winmm.obj
 0002:000002c8       ??_C@_05BMGBEOOC@?$CFs?2?$CFs?$AA@ 100142c8     winmm.obj
 0002:000002d0       ??_C@_0N@GHBCDMKE@SPP_ctrl?4log?$AA@ 100142d0     winmm.obj
 0002:000002e0       ??_C@_04JKHNIKCB@TEMP?$AA@ 100142e0     winmm.obj
 0002:000002e8       ??_C@_0BC@PBPFNKIK@?$CFs?7Negative?5Shift?$AA@ 100142e8     winmm.obj
 0002:000002fc       ??_C@_0BC@PIGBDNJJ@?$CFs?7Positive?5Shift?$AA@ 100142fc     winmm.obj
 0002:00000310       ??_C@_0P@FBFILOHD@?$CFs?7Auto?9Detect?$AA@ 10014310     winmm.obj
 0002:00000320       ??_C@_0BC@EEONADMF@?$CFs?6Modulation?3?5?$CFs?$AA@ 10014320     winmm.obj
 0002:00000334       ??_C@_0CJ@HCJPDECB@SmartPropoPlus?5Version?5?$CFx?6Debug?5@ 10014334     winmm.obj
 0002:00000360       ??_C@_0CL@BDKMBJDH@?$CFs?6New?5Modulation?3?7Mod?$DN?$CFd?$DL?5Auto?$DN@ 10014360     winmm.obj
 0002:0000038c       ??_C@_0CL@NPBANFDH@Former?5Modulation?3?7Mod?$DN?$CFd?$DL?5Auto?$DN@ 1001438c     winmm.obj
 0002:000003b8       ??_C@_0EA@OACFHGH@?6?$CFs?5?9?5ProcessData?$CI?$CF7d?$CJ?5?$CIL?$CJ?$DL?5Min?1@ 100143b8     winmm.obj
 0002:000003f8       ??_C@_0EA@NOIDBELI@?6?$CFs?5?9?5ProcessData?$CI?$CF7d?$CJ?5?$CIH?$CJ?$DL?5Min?1@ 100143f8     winmm.obj
 0002:00000438       ??_C@_0DF@JJOEEEHI@?7JoyStick?5channels?3?5Ch?$FL1?36?$FN?3?5?$CF4d@ 10014438     winmm.obj
 0002:00000470       ??_C@_0BH@JHLPIOMA@?$CFs?6?$AN?$ANFile?3?5?$CFs?$CILine?5?$CFd?$CJ?$AA@ 10014470     winmm.obj
 0002:00000488       ??_C@_0CE@NIOCMBIB@?$CFs?6Error?3?5?$CFd?5?$CFs?6?$AN?$ANFile?3?5?$CFs?$CILine?5@ 10014488     winmm.obj
 0002:000004ac       ??_C@_0CO@EOGCDLOE@LoadOrigDll?$CI?$CFd?$CJ?3?6?$ANCannot?5load?5Fi@ 100144ac     winmm.obj
 0002:000004dc       ??_C@_0DB@IBPDNNHC@LoadOrigDll?$CI?$CJ?3?5Cannot?5get?5attrib@ 100144dc     winmm.obj
 0002:00000510       ??_C@_0CG@JFBBODKI@LoadOrigDll?$CI?$CJ?3?5File?5to?5load?5is?5?$CI@ 10014510     winmm.obj
 0002:00000538       ??_C@_09IHCPCGLB@?4?2winmm?4c?$AA@ 10014538     winmm.obj
 0002:00000544       ??_C@_0BO@LHKIKOHE@?6?$CFs?5?9?5ProcessPulseAirPcm1?$CI?$CFd?$CJ?$AA@ 10014544     winmm.obj
 0002:00000564       ??_C@_0CO@EKHJNNPD@?6?$CFs?5?9?5ProcessPulseAirPcm2?$CIWidth?$DN@ 10014564     winmm.obj
 0002:00000598       __real@3fc1704e20165250    10014598     winmm.obj
 0002:000005a0       __real@3fe0000000000000    100145a0     winmm.obj
 0002:000005a8       __real@3fd1704e20165250    100145a8     winmm.obj
 0002:000005b0       ??_C@_0BM@DGEHCCKD@?6?$CFs?5?9?5ProcessPulseJrPcm?$CI?$CFd?$CJ?$AA@ 100145b0     winmm.obj
 0002:000005d0       ??_C@_0MO@BADBBAMG@?6?$CFs?5?9?5ProcessPulseFutabaPcm?$CI?$CFd?$CJ?5@ 100145d0     winmm.obj
 0002:000006a0       __real@3fc3539b58dd189f    100146a0     winmm.obj
 0002:000006a8       ??_C@_0N@LGDIOJEL@?5data?$FL?$CFd?$FN?$DN?$CFd?$AA@ 100146a8     winmm.obj
 0002:000006b8       __real@4090000000000000    100146b8     winmm.obj
 0002:000006c0       __real@40347ae147ae147b    100146c0     winmm.obj
 0002:000006c8       __real@403e000000000000    100146c8     winmm.obj
 0002:000006d0       __real@4036000000000000    100146d0     winmm.obj
 0002:000006d8       ??_C@_0CK@LIBDLIKF@?6?$CFs?5?9?5ProcessPulsePpm?$CIwidth?$DN?$CFd?0?5@ 100146d8     winmm.obj
 0002:00000704       ??_C@_0DA@LCIOLNKC@?6?$CFs?5?9?5ProcessPulseFutabaPpm?$CIwidt@ 10014704     winmm.obj
 0002:00000734       ??_C@_0CM@FIIDDDNM@?6?$CFs?5?9?5ProcessPulseJrPpm?$CIwidth?$DN?$CFd@ 10014734     winmm.obj
 0002:00000760       ??_C@_03KFPFPAAG@WAL?$AA@  10014760     winmm.obj
 0002:00000764       ??_C@_04DIBKMAAD@AIR2?$AA@ 10014764     winmm.obj
 0002:0000076c       ??_C@_04BDDHJDMA@AIR1?$AA@ 1001476c     winmm.obj
 0002:00000774       ??_C@_03NEGEFDAJ@FUT?$AA@  10014774     winmm.obj
 0002:00000778       ??_C@_02PFDOBBCN@JR?$AA@   10014778     winmm.obj
 0002:0000077c       ??_C@_03DMNNDALJ@PPM?$AA@  1001477c     winmm.obj
 0002:00000780       ??_C@_0EA@FEDEDIEB@Winmm?4dll?3?5Cannot?5get?5number?5of?5@ 10014780     winmm.obj
 0002:000007c0       __real@3ff0000000000000    100147c0     winmm.obj
 0002:000007c8       __real@4000000000000000    100147c8     winmm.obj
 0002:000007d0       __real@3fc999999999999a    100147d0     winmm.obj
 0002:000007d8       __real@4010000000000000    100147d8     winmm.obj
 0002:000007e0       __real@3fb999999999999a    100147e0     winmm.obj
 0002:000007e8       ??_C@_0FA@MOEBLIMF@StopPropo?$CI?$CJ?3?5WM_INTERSPPAPPS?5?$DN?5?$CF@ 100147e8     winmm.obj
 0002:00000838       ??_C@_0CA@IFLEEAPH@Inter?5SPP?5Application?5Message?52?$AA@ 10014838     winmm.obj
 0002:00000858       ??_C@_0BF@NJAKJHBL@WINMM?5Dll?5is?5running?$AA@ 10014858     winmm.obj
 0002:00000870       ??_C@_0BK@IANKIAIJ@?6?$CFs?5?9?5Closing?5WINMM?4DLL?6?6?$AA@ 10014870     winmm.obj
 0002:0000088c       ??_C@_0BJ@LOCNNDJB@GetIndexOfSelectedFilter?$AA@ 1001488c     winmm.obj
 0002:000008a8       ??_C@_0BE@IEONKJIA@SelectFilterByIndex?$AA@ 100148a8     winmm.obj
 0002:000008bc       ??_C@_0BD@NHLGIABF@GetFilterIdByIndex?$AA@ 100148bc     winmm.obj
 0002:000008d0       ??_C@_0BF@KLKEJFIK@GetFilterNameByIndex?$AA@ 100148d0     winmm.obj
 0002:000008e8       ??_C@_0BD@NDLDGLII@GetNumberOfFilters?$AA@ 100148e8     winmm.obj
 0002:000008fc       ??_C@_0BA@ECPDPABG@ProcessChannels?$AA@ 100148fc     winmm.obj
 0002:0000090c       ??_C@_0O@GFDJCJIH@GetDllVersion?$AA@ 1001490c     winmm.obj
 0002:0000091c       ??_C@_09CHDIPFDK@?$CIDefault?$CJ?$AA@ 1001491c     winmm.obj
 0002:00000928       ??_C@_09LDCGPNGF@joyGetPos?$AA@ 10014928     winmm.obj
 0002:00000934       ??_C@_0M@EKDBBOLA@joyGetPosEx?$AA@ 10014934     winmm.obj
 0002:00000940       ??_C@_0BG@DMIOKOHF@waveInUnprepareHeader?$AA@ 10014940     winmm.obj
 0002:00000958       ??_C@_0L@HCMBFLBG@waveInStop?$AA@ 10014958     winmm.obj
 0002:00000964       ??_C@_0M@FMKOGLKF@waveInStart?$AA@ 10014964     winmm.obj
 0002:00000970       ??_C@_0BE@NJAAFNNK@waveInPrepareHeader?$AA@ 10014970     winmm.obj
 0002:00000984       ??_C@_0L@IBGFAMML@waveInOpen?$AA@ 10014984     winmm.obj
 0002:00000990       ??_C@_0M@LNCMILGJ@waveInClose?$AA@ 10014990     winmm.obj
 0002:0000099c       ??_C@_0BA@JDAABCPE@waveInAddBuffer?$AA@ 1001499c     winmm.obj
 0002:000009ac       ??_C@_0N@LMFGDGNE@gfxRemoveGfx?$AA@ 100149ac     winmm.obj
 0002:000009bc       ??_C@_0L@LFIEKLBF@gfxOpenGfx?$AA@ 100149bc     winmm.obj
 0002:000009c8       ??_C@_0N@CFIEDACG@gfxModifyGfx?$AA@ 100149c8     winmm.obj
 0002:000009d8       ??_C@_0M@DJLOKAHL@_gfxLogon?$EA4?$AA@ 100149d8     winmm.obj
 0002:000009e4       ??_C@_0N@POHJFLEI@_gfxLogoff?$EA0?$AA@ 100149e4     winmm.obj
 0002:000009f4       ??_C@_0BB@MPGOGECO@gfxEnumerateGfxs?$AA@ 100149f4     winmm.obj
 0002:00000a08       ??_C@_0BO@KHCEMPNJ@gfxDestroyDeviceInterfaceList?$AA@ 10014a08     winmm.obj
 0002:00000a28       ??_C@_0BL@BFCMDNPK@gfxCreateZoneFactoriesList?$AA@ 10014a28     winmm.obj
 0002:00000a44       ??_C@_0BK@FANIJPIB@gfxCreateGfxFactoriesList?$AA@ 10014a44     winmm.obj
 0002:00000a60       ??_C@_0P@KEGOANE@gfxBatchChange?$AA@ 10014a60     winmm.obj
 0002:00000a70       ??_C@_09MPFGDMGP@gfxAddGfx?$AA@ 10014a70     winmm.obj
 0002:00000a7c       ??_C@_0N@IAJOIHCC@wod32Message?$AA@ 10014a7c     winmm.obj
 0002:00000a8c       ??_C@_0BD@LCOMKHJH@winmmSetDebugLevel?$AA@ 10014a8c     winmm.obj
 0002:00000aa0       ??_C@_0M@NCPJBEEI@winmmDbgOut?$AA@ 10014aa0     winmm.obj
 0002:00000aac       ??_C@_0N@GPKDCCMC@wid32Message?$AA@ 10014aac     winmm.obj
 0002:00000abc       ??_C@_0N@MHNLHPFP@waveOutWrite?$AA@ 10014abc     winmm.obj
 0002:00000acc       ??_C@_0BH@DBHJOEGH@waveOutUnprepareHeader?$AA@ 10014acc     winmm.obj
 0002:00000ae4       ??_C@_0BB@CMOENGMG@waveOutSetVolume?$AA@ 10014ae4     winmm.obj
 0002:00000af8       ??_C@_0BH@KGDIIFHG@waveOutSetPlaybackRate?$AA@ 10014af8     winmm.obj
 0002:00000b10       ??_C@_0BA@KJPIJKCD@waveOutSetPitch?$AA@ 10014b10     winmm.obj
 0002:00000b20       ??_C@_0P@CGAJPAKP@waveOutRestart?$AA@ 10014b20     winmm.obj
 0002:00000b30       ??_C@_0N@DEEPPINC@waveOutReset?$AA@ 10014b30     winmm.obj
 0002:00000b40       ??_C@_0BF@EGJPGBFL@waveOutPrepareHeader?$AA@ 10014b40     winmm.obj
 0002:00000b58       ??_C@_0N@OCBOFMBH@waveOutPause?$AA@ 10014b58     winmm.obj
 0002:00000b68       ??_C@_0M@HCKBGJNL@waveOutOpen?$AA@ 10014b68     winmm.obj
 0002:00000b74       ??_C@_0P@HIIGENLD@waveOutMessage?$AA@ 10014b74     winmm.obj
 0002:00000b84       ??_C@_0BB@CKBPHFE@waveOutGetVolume?$AA@ 10014b84     winmm.obj
 0002:00000b98       ??_C@_0BD@PEEFCKHM@waveOutGetPosition?$AA@ 10014b98     winmm.obj
 0002:00000bac       ??_C@_0BH@JECOPHGP@waveOutGetPlaybackRate?$AA@ 10014bac     winmm.obj
 0002:00000bc4       ??_C@_0BA@FINEIJFO@waveOutGetPitch?$AA@ 10014bc4     winmm.obj
 0002:00000bd4       ??_C@_0BC@IICPIAGE@waveOutGetNumDevs?$AA@ 10014bd4     winmm.obj
 0002:00000be8       ??_C@_0N@BEJCNKDE@waveOutGetID?$AA@ 10014be8     winmm.obj
 0002:00000bf8       ??_C@_0BF@MGCAEOMI@waveOutGetErrorTextW?$AA@ 10014bf8     winmm.obj
 0002:00000c10       ??_C@_0BF@NKLIPLBP@waveOutGetErrorTextA?$AA@ 10014c10     winmm.obj
 0002:00000c28       ??_C@_0BD@POAPPLHH@waveOutGetDevCapsW?$AA@ 10014c28     winmm.obj
 0002:00000c3c       ??_C@_0BD@OCJHEOKA@waveOutGetDevCapsA?$AA@ 10014c3c     winmm.obj
 0002:00000c50       ??_C@_0N@KAGIFPGI@waveOutClose?$AA@ 10014c50     winmm.obj
 0002:00000c60       ??_C@_0BB@KADJFBFC@waveOutBreakLoop?$AA@ 10014c60     winmm.obj
 0002:00000c74       ??_C@_0M@CJALCMND@waveInReset?$AA@ 10014c74     winmm.obj
 0002:00000c80       ??_C@_0O@OACDHHHL@waveInMessage?$AA@ 10014c80     winmm.obj
 0002:00000c90       ??_C@_0BC@EDOENPAJ@waveInGetPosition?$AA@ 10014c90     winmm.obj
 0002:00000ca4       ??_C@_0BB@JEIGMOBK@waveInGetNumDevs?$AA@ 10014ca4     winmm.obj
 0002:00000cb8       ??_C@_0M@JNGAODF@waveInGetID?$AA@ 10014cb8     winmm.obj
 0002:00000cc4       ??_C@_0BE@FJLPHCEJ@waveInGetErrorTextW?$AA@ 10014cc4     winmm.obj
 0002:00000cd8       ??_C@_0BE@EFCHMHJO@waveInGetErrorTextA?$AA@ 10014cd8     winmm.obj
 0002:00000cec       ??_C@_0BC@EJKOAOAC@waveInGetDevCapsW?$AA@ 10014cec     winmm.obj
 0002:00000d00       ??_C@_0BC@FFDGLLNF@waveInGetDevCapsA?$AA@ 10014d00     winmm.obj
 0002:00000d14       ??_C@_0N@HEKFBJPA@timeSetEvent?$AA@ 10014d14     winmm.obj
 0002:00000d24       ??_C@_0O@LCLCLGNI@timeKillEvent?$AA@ 10014d24     winmm.obj
 0002:00000d34       ??_C@_0M@DEPJBPP@timeGetTime?$AA@ 10014d34     winmm.obj
 0002:00000d40       ??_C@_0BC@KNMJAGLG@timeGetSystemTime?$AA@ 10014d40     winmm.obj
 0002:00000d54       ??_C@_0P@HPFDHCBE@timeGetDevCaps?$AA@ 10014d54     winmm.obj
 0002:00000d64       ??_C@_0O@IHMGFLBJ@timeEndPeriod?$AA@ 10014d64     winmm.obj
 0002:00000d74       ??_C@_0BA@DCPFICL@timeBeginPeriod?$AA@ 10014d74     winmm.obj
 0002:00000d84       ??_C@_0N@NCGJEOAM@tid32Message?$AA@ 10014d84     winmm.obj
 0002:00000d94       ??_C@_0O@JHBJLOPM@sndPlaySoundW?$AA@ 10014d94     winmm.obj
 0002:00000da4       ??_C@_0O@ILIBALCL@sndPlaySoundA?$AA@ 10014da4     winmm.obj
 0002:00000db4       ??_C@_0N@HGEGEDKN@mxd32Message?$AA@ 10014db4     winmm.obj
 0002:00000dc4       ??_C@_0N@OMGEHNO@mod32Message?$AA@ 10014dc4     winmm.obj
 0002:00000dd4       ??_C@_0BD@DALGBHNC@mmsystemGetVersion?$AA@ 10014dd4     winmm.obj
 0002:00000de8       ??_C@_09LINPJFCB@mmioWrite?$AA@ 10014de8     winmm.obj
 0002:00000df4       ??_C@_0BE@LGKONIIG@mmioStringToFOURCCW?$AA@ 10014df4     winmm.obj
 0002:00000e08       ??_C@_0BE@KKDGGNFB@mmioStringToFOURCCA?$AA@ 10014e08     winmm.obj
 0002:00000e1c       ??_C@_0M@LFAOEMME@mmioSetInfo?$AA@ 10014e1c     winmm.obj
 0002:00000e28       ??_C@_0O@JFPHFBGI@mmioSetBuffer?$AA@ 10014e28     winmm.obj
 0002:00000e38       ??_C@_0BA@LMOKOGFL@mmioSendMessage?$AA@ 10014e38     winmm.obj
 0002:00000e48       ??_C@_08KDOGIFPM@mmioSeek?$AA@ 10014e48     winmm.obj
 0002:00000e54       ??_C@_0M@CNDEKECO@mmioRenameW?$AA@ 10014e54     winmm.obj
 0002:00000e60       ??_C@_0M@DBKMBBPJ@mmioRenameA?$AA@ 10014e60     winmm.obj
 0002:00000e6c       ??_C@_08BOBHBIFP@mmioRead?$AA@ 10014e6c     winmm.obj
 0002:00000e78       ??_C@_09JLINILNI@mmioOpenW?$AA@ 10014e78     winmm.obj
 0002:00000e84       ??_C@_09IHBFDOAP@mmioOpenA?$AA@ 10014e84     winmm.obj
 0002:00000e90       ??_C@_0BD@CEIAPPDL@mmioInstallIOProcW?$AA@ 10014e90     winmm.obj
 0002:00000ea4       ??_C@_0BD@DIBIEKOM@mmioInstallIOProcA?$AA@ 10014ea4     winmm.obj
 0002:00000eb8       ??_C@_0M@ENPPHDBF@mmioGetInfo?$AA@ 10014eb8     winmm.obj
 0002:00000ec4       ??_C@_09FKLONBD@mmioFlush?$AA@ 10014ec4     winmm.obj
 0002:00000ed0       ??_C@_0M@GPOCHMJJ@mmioDescend?$AA@ 10014ed0     winmm.obj
 0002:00000edc       ??_C@_0BA@ECKJFLPG@mmioCreateChunk?$AA@ 10014edc     winmm.obj
 0002:00000eec       ??_C@_09NPGMLFBG@mmioClose?$AA@ 10014eec     winmm.obj
 0002:00000ef8       ??_C@_0L@CMFCNMID@mmioAscend?$AA@ 10014ef8     winmm.obj
 0002:00000f04       ??_C@_0M@GNLKJOIJ@mmioAdvance?$AA@ 10014f04     winmm.obj
 0002:00000f10       ??_C@_0M@KBJGFCF@mmTaskYield?$AA@ 10014f10     winmm.obj
 0002:00000f1c       ??_C@_0N@PADEOPMH@mmTaskSignal?$AA@ 10014f1c     winmm.obj
 0002:00000f2c       ??_C@_0N@BHHHBILF@mmTaskCreate?$AA@ 10014f2c     winmm.obj
 0002:00000f3c       ??_C@_0M@EIJBKDJL@mmTaskBlock?$AA@ 10014f3c     winmm.obj
 0002:00000f48       ??_C@_0BB@ONGONIEO@mmGetCurrentTask?$AA@ 10014f48     winmm.obj
 0002:00000f5c       ??_C@_0N@HPJNLKLL@mmDrvInstall?$AA@ 10014f5c     winmm.obj
 0002:00000f6c       ??_C@_0BH@KHAJOKIA@mixerSetControlDetails?$AA@ 10014f6c     winmm.obj
 0002:00000f84       ??_C@_09CMIDEKPN@mixerOpen?$AA@ 10014f84     winmm.obj
 0002:00000f90       ??_C@_0N@CPIPEBDK@mixerMessage?$AA@ 10014f90     winmm.obj
 0002:00000fa0       ??_C@_0BA@LDKCFHJE@mixerGetNumDevs?$AA@ 10014fa0     winmm.obj
 0002:00000fb0       ??_C@_0BC@LICOJFFF@mixerGetLineInfoW?$AA@ 10014fb0     winmm.obj
 0002:00000fc4       ??_C@_0BC@KELGCAIC@mixerGetLineInfoA?$AA@ 10014fc4     winmm.obj
 0002:00000fd8       ??_C@_0BG@OBGNMBCK@mixerGetLineControlsW?$AA@ 10014fd8     winmm.obj
 0002:00000ff0       ??_C@_0BG@PNPFHEPN@mixerGetLineControlsA?$AA@ 10014ff0     winmm.obj
 0002:00001008       ??_C@_0L@MGMBHNOK@mixerGetID?$AA@ 10015008     winmm.obj
 0002:00001014       ??_C@_0BB@EDIJIELM@mixerGetDevCapsW?$AA@ 10015014     winmm.obj
 0002:00001028       ??_C@_0BB@FPBBDBGL@mixerGetDevCapsA?$AA@ 10015028     winmm.obj
 0002:0000103c       ??_C@_0BI@OCMPHHLB@mixerGetControlDetailsW?$AA@ 1001503c     winmm.obj
 0002:00001054       ??_C@_0BI@POFHMCGG@mixerGetControlDetailsA?$AA@ 10015054     winmm.obj
 0002:0000106c       ??_C@_0L@HCDLPILG@mixerClose?$AA@ 1001506c     winmm.obj
 0002:00001078       ??_C@_0P@PJHHKKGK@midiStreamStop?$AA@ 10015078     winmm.obj
 0002:00001088       ??_C@_0BC@MMOCJNJN@midiStreamRestart?$AA@ 10015088     winmm.obj
 0002:0000109c       ??_C@_0BD@OGGIMNAD@midiStreamProperty?$AA@ 1001509c     winmm.obj
 0002:000010b0       ??_C@_0BD@EKBJOKLL@midiStreamPosition?$AA@ 100150b0     winmm.obj
 0002:000010c4       ??_C@_0BA@KGGCADPA@midiStreamPause?$AA@ 100150c4     winmm.obj
 0002:000010d4       ??_C@_0O@CMELDNCK@midiStreamOut?$AA@ 100150d4     winmm.obj
 0002:000010e4       ??_C@_0P@KNDPNLH@midiStreamOpen?$AA@ 100150e4     winmm.obj
 0002:000010f4       ??_C@_0BA@OEBEAAIP@midiStreamClose?$AA@ 100150f4     winmm.obj
 0002:00001104       ??_C@_0BH@BIHBPKJO@midiOutUnprepareHeader?$AA@ 10015104     winmm.obj
 0002:0000111c       ??_C@_0BA@FDNGLBFD@midiOutShortMsg?$AA@ 1001511c     winmm.obj
 0002:0000112c       ??_C@_0BB@LMJLLAFO@midiOutSetVolume?$AA@ 1001512c     winmm.obj
 0002:00001140       ??_C@_0N@FALNNDFE@midiOutReset?$AA@ 10015140     winmm.obj
 0002:00001150       ??_C@_0BF@CKJJOJPP@midiOutPrepareHeader?$AA@ 10015150     winmm.obj
 0002:00001168       ??_C@_0M@OLCCCPMC@midiOutOpen?$AA@ 10015168     winmm.obj
 0002:00001174       ??_C@_0P@LJODOPMM@midiOutMessage?$AA@ 10015174     winmm.obj
 0002:00001184       ??_C@_0P@DIOMOJLD@midiOutLongMsg?$AA@ 10015184     winmm.obj
 0002:00001194       ??_C@_0BB@JCNOJBMM@midiOutGetVolume?$AA@ 10015194     winmm.obj
 0002:000011a8       ??_C@_0BC@HGGLOEHE@midiOutGetNumDevs?$AA@ 100151a8     winmm.obj
 0002:000011bc       ??_C@_0N@HAGAPBLC@midiOutGetID?$AA@ 100151bc     winmm.obj
 0002:000011cc       ??_C@_0BF@KKCGMGGM@midiOutGetErrorTextW?$AA@ 100151cc     winmm.obj
 0002:000011e4       ??_C@_0BF@LGLOHDLL@midiOutGetErrorTextA?$AA@ 100151e4     winmm.obj
 0002:000011fc       ??_C@_0BD@ODEGKPHH@midiOutGetDevCapsW?$AA@ 100151fc     winmm.obj
 0002:00001210       ??_C@_0BD@PPNOBKKA@midiOutGetDevCapsA?$AA@ 10015210     winmm.obj
 0002:00001224       ??_C@_0N@MEJKHEOO@midiOutClose?$AA@ 10015224     winmm.obj
 0002:00001234       ??_C@_0BE@GIBEDHIE@midiOutCachePatches?$AA@ 10015234     winmm.obj
 0002:00001248       ??_C@_0BI@OELOIFEP@midiOutCacheDrumPatches?$AA@ 10015248     winmm.obj
 0002:00001260       ??_C@_0BG@ONFJMPAM@midiInUnprepareHeader?$AA@ 10015260     winmm.obj
 0002:00001278       ??_C@_0L@PINGPIBF@midiInStop?$AA@ 10015278     winmm.obj
 0002:00001284       ??_C@_0M@MFCNCNLM@midiInStart?$AA@ 10015284     winmm.obj
 0002:00001290       ??_C@_0M@LAIIGKMK@midiInReset?$AA@ 10015290     winmm.obj
 0002:0000129c       ??_C@_0BE@NJBNBEIO@midiInPrepareHeader?$AA@ 1001529c     winmm.obj
 0002:000012b0       ??_C@_0L@LHCKPMI@midiInOpen?$AA@ 100152b0     winmm.obj
 0002:000012bc       ??_C@_0O@OEJMKDEF@midiInMessage?$AA@ 100152bc     winmm.obj
 0002:000012cc       ??_C@_0BB@EPJKIIC@midiInGetNumDevs?$AA@ 100152cc     winmm.obj
 0002:000012e0       ??_C@_0M@JAFFEICM@midiInGetID?$AA@ 100152e0     winmm.obj
 0002:000012ec       ??_C@_0BE@FJKCDLBN@midiInGetErrorTextW?$AA@ 100152ec     winmm.obj
 0002:00001300       ??_C@_0BE@EFDKIOMK@midiInGetErrorTextA?$AA@ 10015300     winmm.obj
 0002:00001314       ??_C@_0BC@LHOKGKBC@midiInGetDevCapsW?$AA@ 10015314     winmm.obj
 0002:00001328       ??_C@_0BC@KLHCNPMF@midiInGetDevCapsA?$AA@ 10015328     winmm.obj
 0002:0000133c       ??_C@_0M@CEKPMNHA@midiInClose?$AA@ 1001533c     winmm.obj
 0002:00001348       ??_C@_0BA@FDHLBLPL@midiInAddBuffer?$AA@ 10015348     winmm.obj
 0002:00001358       ??_C@_0P@HHDHBFOA@midiDisconnect?$AA@ 10015358     winmm.obj
 0002:00001368       ??_C@_0M@PCKIPPIA@midiConnect?$AA@ 10015368     winmm.obj
 0002:00001374       ??_C@_0N@OBPLOCDO@mid32Message?$AA@ 10015374     winmm.obj
 0002:00001384       ??_C@_0BA@BOAKAJIL@mciSetYieldProc?$AA@ 10015384     winmm.obj
 0002:00001394       ??_C@_0BB@IMDFAHAK@mciSetDriverData?$AA@ 10015394     winmm.obj
 0002:000013a8       ??_C@_0P@DJNMMILD@mciSendStringW?$AA@ 100153a8     winmm.obj
 0002:000013b8       ??_C@_0P@CFEEHNGE@mciSendStringA?$AA@ 100153b8     winmm.obj
 0002:000013c8       ??_C@_0BA@PJMILHMC@mciSendCommandW?$AA@ 100153c8     winmm.obj
 0002:000013d8       ??_C@_0BA@OFFAACBF@mciSendCommandA?$AA@ 100153d8     winmm.obj
 0002:000013e8       ??_C@_0BH@DNNEECNK@mciLoadCommandResource?$AA@ 100153e8     winmm.obj
 0002:00001400       ??_C@_0BA@GKLEMFMH@mciGetYieldProc?$AA@ 10015400     winmm.obj
 0002:00001410       ??_C@_0BD@HFEKHOGJ@mciGetErrorStringW?$AA@ 10015410     winmm.obj
 0002:00001424       ??_C@_0BD@GJNCMLLO@mciGetErrorStringA?$AA@ 10015424     winmm.obj
 0002:00001438       ??_C@_0BB@PDCLLEHN@mciGetDriverData?$AA@ 10015438     winmm.obj
 0002:0000144c       ??_C@_0BA@CCAAAHPM@mciGetDeviceIDW?$AA@ 1001544c     winmm.obj
 0002:0000145c       ??_C@_0BN@GEHLBJEF@mciGetDeviceIDFromElementIDW?$AA@ 1001545c     winmm.obj
 0002:0000147c       ??_C@_0BN@HIODKMJC@mciGetDeviceIDFromElementIDA?$AA@ 1001547c     winmm.obj
 0002:0000149c       ??_C@_0BA@DOJILCCL@mciGetDeviceIDA?$AA@ 1001549c     winmm.obj
 0002:000014ac       ??_C@_0BC@HLNEHNKO@mciGetCreatorTask?$AA@ 100154ac     winmm.obj
 0002:000014c0       ??_C@_0BH@MCKGFFJE@mciFreeCommandResource?$AA@ 100154c0     winmm.obj
 0002:000014d8       ??_C@_0L@OKOKNDNB@mciExecute?$AA@ 100154d8     winmm.obj
 0002:000014e4       ??_C@_0P@MEFNPLOD@mciDriverYield?$AA@ 100154e4     winmm.obj
 0002:000014f4       ??_C@_0BA@NKMAPHLF@mciDriverNotify?$AA@ 100154f4     winmm.obj
 0002:00001504       ??_C@_0N@MAFIEHFI@mci32Message?$AA@ 10015504     winmm.obj
 0002:00001514       ??_C@_0BA@KBCBOANM@joySetThreshold?$AA@ 10015514     winmm.obj
 0002:00001524       ??_C@_0O@FKODLKP@joySetCapture?$AA@ 10015524     winmm.obj
 0002:00001534       ??_C@_0BC@NEGECBEA@joyReleaseCapture?$AA@ 10015534     winmm.obj
 0002:00001548       ??_C@_0BA@NFJPCMJA@joyGetThreshold?$AA@ 10015548     winmm.obj
 0002:00001558       ??_C@_0O@EGPEMCLN@joyGetNumDevs?$AA@ 10015558     winmm.obj
 0002:00001568       ??_C@_0P@BMOEKEF@joyGetDevCapsW?$AA@ 10015568     winmm.obj
 0002:00001578       ??_C@_0P@BNFGPPJC@joyGetDevCapsA?$AA@ 10015578     winmm.obj
 0002:00001588       ??_C@_0BB@NLGIOGBN@joyConfigChanged?$AA@ 10015588     winmm.obj
 0002:0000159c       ??_C@_0N@BGNHMIEK@joy32Message?$AA@ 1001559c     winmm.obj
 0002:000015ac       ??_C@_0N@FGCKPFEP@auxSetVolume?$AA@ 100155ac     winmm.obj
 0002:000015bc       ??_C@_0O@MMMOGCPJ@auxOutMessage?$AA@ 100155bc     winmm.obj
 0002:000015cc       ??_C@_0N@HIGPNENN@auxGetVolume?$AA@ 100155cc     winmm.obj
 0002:000015dc       ??_C@_0O@BMDBHFMD@auxGetNumDevs?$AA@ 100155dc     winmm.obj
 0002:000015ec       ??_C@_0P@LGCJNDMJ@auxGetDevCapsW?$AA@ 100155ec     winmm.obj
 0002:000015fc       ??_C@_0P@KKLBGGBO@auxGetDevCapsA?$AA@ 100155fc     winmm.obj
 0002:0000160c       ??_C@_0N@NGLPKNLE@aux32Message?$AA@ 1001560c     winmm.obj
 0002:0000161c       ??_C@_0L@KANNEEHC@WinmmLogon?$AA@ 1001561c     winmm.obj
 0002:00001628       ??_C@_0M@IDBPFAMN@WinmmLogoff?$AA@ 10015628     winmm.obj
 0002:00001634       ??_C@_0L@IMMPPKKI@WOWAppExit?$AA@ 10015634     winmm.obj
 0002:00001640       ??_C@_0BN@LLDJEPNG@WOW32ResolveMultiMediaHandle?$AA@ 10015640     winmm.obj
 0002:00001660       ??_C@_0BE@BNDBPCCJ@WOW32DriverCallback?$AA@ 10015660     winmm.obj
 0002:00001674       ??_C@_0BC@PGJGPJMC@SendDriverMessage?$AA@ 10015674     winmm.obj
 0002:00001688       ??_C@_0L@GEGKGBNA@PlaySoundW?$AA@ 10015688     winmm.obj
 0002:00001694       ??_C@_0L@HIPCNEAH@PlaySoundA?$AA@ 10015694     winmm.obj
 0002:000016a0       ??_C@_09PEMGNEEO@PlaySound?$AA@ 100156a0     winmm.obj
 0002:000016ac       ??_C@_0L@ILNJFFKD@OpenDriver?$AA@ 100156ac     winmm.obj
 0002:000016b8       ??_C@_0BD@KPKGHOIH@NotifyCallbackData?$AA@ 100156b8     winmm.obj
 0002:000016cc       ??_C@_0BD@BOFHJKAC@MigrateSoundEvents?$AA@ 100156cc     winmm.obj
 0002:000016e0       ??_C@_0BC@MEABKGMD@MigrateAllDrivers?$AA@ 100156e0     winmm.obj
 0002:000016f4       ??_C@_0BG@BGLPABMA@GetDriverModuleHandle?$AA@ 100156f4     winmm.obj
 0002:0000170c       ??_C@_0BD@NCENAOMJ@DrvGetModuleHandle?$AA@ 1001570c     winmm.obj
 0002:00001720       ??_C@_0P@JGAKALJK@DriverCallback?$AA@ 10015720     winmm.obj
 0002:00001730       ??_C@_0O@MHCKBCHK@DefDriverProc?$AA@ 10015730     winmm.obj
 0002:00001740       ??_C@_0M@JHBNFDDO@CloseDriver?$AA@ 10015740     winmm.obj
 0002:00001750       ??_C@_0FG@EEHACNML@StartSppConsole?$CI?$CJ?3?5WM_INTERSPPAP@ 10015750     winmm.obj
 0002:000017a8       ??_C@_0BC@ECNKJPMM@SppConsole?4exe?5?9i?$AA@ 100157a8     winmm.obj
 0002:000017bc       ??_C@_0BB@LGKKLCC@?$CFs?5?$CFd?4?$CFd?4?$CFd?5DL?$CFd?$AA@ 100157bc     winmm.obj
 0002:000017d0       ??_C@_0M@GLEJDOJL@?$CFs?5?$CFd?4?$CFd?4?$CFd?$AA@ 100157d0     winmm.obj
 0002:000017dc       ??_C@_0P@LNILAFLG@SmartPropoPlus?$AA@ 100157dc     winmm.obj
 0002:000017ec       ??_C@_0L@NLNDMMBI@?2winmm?4dll?$AA@ 100157ec     winmm.obj
 0002:000017f8       ??_C@_0DA@MGAPJLCF@LoadWinmm?$CI?$CFd?$CJ?3?5Cannot?5find?5path?5@ 100157f8     winmm.obj
 0002:00001828       ??_C@_0DC@EICCJEJI@Joystick?5filter?5too?5old?5?9?5cannot@ 10015828     winmm.obj
 0002:0000185c       ??_C@_0BB@CNHBJHLK@JsChPostProc?4dll?$AA@ 1001585c     winmm.obj
 0002:00001870       ??_C@_0BF@HPCDMNPD@SmartPropoPlus?5Error?$AA@ 10015870     smartpropoplus:SmartPropoPlus.obj
 0002:00001888       ??_C@_0O@GOMFCPPN@Error?$CI?$CFd?$CJ?3?5?$CFs?$AA@ 10015888     smartpropoplus:SmartPropoPlus.obj
 0002:00001896       ??_C@_00CNPNBAHC@?$AA@     10015896     smartpropoplus:SmartPropoPlus.obj
 0002:00001898       ??_C@_0O@LNGEFHKO@Walkera?5?$CIPCM?$CJ?$AA@ 10015898     smartpropoplus:SmartPropoPlus.obj
 0002:000018a8       ??_C@_0BB@NJNEKFOI@Sanwa?1Air?5?$CIPCM2?$CJ?$AA@ 100158a8     smartpropoplus:SmartPropoPlus.obj
 0002:000018bc       ??_C@_0BB@NLJCBLLB@Sanwa?1Air?5?$CIPCM1?$CJ?$AA@ 100158bc     smartpropoplus:SmartPropoPlus.obj
 0002:000018d0       ??_C@_0N@OGPEEBHA@Futaba?5?$CIPCM?$CJ?$AA@ 100158d0     smartpropoplus:SmartPropoPlus.obj
 0002:000018e0       ??_C@_08OMLNJBNE@JR?5?$CIPCM?$CJ?$AA@ 100158e0     smartpropoplus:SmartPropoPlus.obj
 0002:000018ec       ??_C@_0O@BOLMIIMN@PPM?5?$CIGeneric?$CJ?$AA@ 100158ec     smartpropoplus:SmartPropoPlus.obj
 0002:000018fc       ??_C@_0CA@EIFGNNAD@Software?2Flying?9Model?9Simulator?$AA@ 100158fc     smartpropoplus:SmartPropoPlus.obj
 0002:0000191c       ??_C@_0BP@HNDGKNIH@SPP?5Global?5Shared?5memory?5Block?$AA@ 1001591c     smartpropoplus:GlobalMemory.obj
 0002:0000193c       ??_C@_0BP@DOKAHBP@SPP?5Global?5Shared?5memory?5Mutex?$AA@ 1001593c     smartpropoplus:GlobalMemory.obj
 0002:0000195c       ??_C@_06MAFFGDO@Active?$AA@ 1001595c     smartpropoplus:SppRegistry.obj
 0002:00001968       ??_C@_0EA@HNGMHCGJ@Software?2Flying?9Model?9Simulator?2@ 10015968     smartpropoplus:SppRegistry.obj
 0002:000019a8       ??_C@_0BA@JADHBCGG@Selected?9Filter?$AA@ 100159a8     smartpropoplus:SppRegistry.obj
 0002:000019b8       ??_C@_0BC@CDHLICKN@Shift?9Auto?9Detect?$AA@ 100159b8     smartpropoplus:SppRegistry.obj
 0002:000019cc       ??_C@_0P@HKJHNCAN@Positive?9Shift?$AA@ 100159cc     smartpropoplus:SppRegistry.obj
 0002:00001aa0       __real@0000000000000000    10015aa0     LIBCMT:cvt.obj
 0002:00001aa8       ??_C@_05KLBDPFGC@e?$CL000?$AA@ 10015aa8     LIBCMT:cvt.obj
 0002:00001ab0       __real@4150017ec0000000    10015ab0     LIBCMT:testfdiv.obj
 0002:00001ab8       __real@4147ffff80000000    10015ab8     LIBCMT:testfdiv.obj
 0002:00001ac0       ??_C@_0BK@NHEOCAHP@IsProcessorFeaturePresent?$AA@ 10015ac0     LIBCMT:testfdiv.obj
 0002:00001adc       ??_C@_08CPNIBGIE@KERNEL32?$AA@ 10015adc     LIBCMT:testfdiv.obj
 0002:00001ae8       ___lookuptable             10015ae8     LIBCMT:output.obj
 0002:00001b44       ??_C@_1O@CEDCILHN@?$AA?$CI?$AAn?$AAu?$AAl?$AAl?$AA?$CJ?$AA?$AA@ 10015b44     LIBCMT:output.obj
 0002:00001b54       ??_C@_06OJHGLDPL@?$CInull?$CJ?$AA@ 10015b54     LIBCMT:output.obj
 0002:00001b6c       ??_C@_0P@MIGLKIOC@CorExitProcess?$AA@ 10015b6c     LIBCMT:crt0dat.obj
 0002:00001b7c       ??_C@_0M@MBOPBNBK@mscoree?4dll?$AA@ 10015b7c     LIBCMT:crt0dat.obj
 0002:00001c10       ??_C@_04MLLJIGOK@atan?$AA@ 10015c10     LIBCMT:libm_error.obj
 0002:00001c18       ??_C@_04GFPJNGEK@ceil?$AA@ 10015c18     LIBCMT:libm_error.obj
 0002:00001c20       ??_C@_05PBJFFIGL@floor?$AA@ 10015c20     LIBCMT:libm_error.obj
 0002:00001c28       ??_C@_04EHEDPDJG@modf?$AA@ 10015c28     LIBCMT:libm_error.obj
 0002:00001c30       ??_C@_04HPAFEEIN@exp2?$AA@ 10015c30     LIBCMT:libm_error.obj
 0002:00001c38       ??_C@_05EOHGHCHD@exp10?$AA@ 10015c38     LIBCMT:libm_error.obj
 0002:00001c40       ??_C@_04KGLCPMCP@log2?$AA@ 10015c40     LIBCMT:libm_error.obj
 0002:00001c48       ??_C@_03JGHBODFD@pow?$AA@  10015c48     LIBCMT:libm_error.obj
 0002:00001c4c       ??_C@_03MGHMBJCF@log?$AA@  10015c4c     LIBCMT:libm_error.obj
 0002:00001c50       ??_C@_05HGHHAHAP@log10?$AA@ 10015c50     LIBCMT:libm_error.obj
 0002:00001c58       ??_C@_03KHJOGHMM@exp?$AA@  10015c58     LIBCMT:libm_error.obj
 0002:00001c6c       ??_C@_0N@FFJGBINN@AuthenticAMD?$AA@ 10015c6c     LIBCMT:cpu_disp.obj
 0002:00001cd0       ??_C@_07PEJMOBNF@FlsFree?$AA@ 10015cd0     LIBCMT:tidtable.obj
 0002:00001cd8       ??_C@_0M@JCPCPOEF@FlsSetValue?$AA@ 10015cd8     LIBCMT:tidtable.obj
 0002:00001ce4       ??_C@_0M@GDNOONDI@FlsGetValue?$AA@ 10015ce4     LIBCMT:tidtable.obj
 0002:00001cf0       ??_C@_08KNHFBNJ@FlsAlloc?$AA@ 10015cf0     LIBCMT:tidtable.obj
 0002:00001cfc       ??_C@_0N@MDJJJHMB@kernel32?4dll?$AA@ 10015cfc     LIBCMT:tidtable.obj
 0002:00001d2c       ??_C@_0P@GGKDKEEG@runtime?5error?5?$AA@ 10015d2c     LIBCMT:crt0msg.obj
 0002:00001d3c       ??_C@_02PCIJFNDE@?$AN?6?$AA@ 10015d3c     LIBCMT:crt0msg.obj
 0002:00001d40       ??_C@_0O@MJNIPGOH@TLOSS?5error?$AN?6?$AA@ 10015d40     LIBCMT:crt0msg.obj
 0002:00001d50       ??_C@_0N@BONNPDHF@SING?5error?$AN?6?$AA@ 10015d50     LIBCMT:crt0msg.obj
 0002:00001d60       ??_C@_0P@MBDAJNE@DOMAIN?5error?$AN?6?$AA@ 10015d60     LIBCMT:crt0msg.obj
 0002:00001d70       ??_C@_0KC@BDDGGBEJ@R6029?$AN?6?9?5This?5application?5cannot@ 10015d70     LIBCMT:crt0msg.obj
 0002:00001e14       ??_C@_0CF@KJDAIALP@R6028?$AN?6?9?5unable?5to?5initialize?5he@ 10015e14     LIBCMT:crt0msg.obj
 0002:00001e3c       ??_C@_0DF@GAKBPDFP@R6027?$AN?6?9?5not?5enough?5space?5for?5lo@ 10015e3c     LIBCMT:crt0msg.obj
 0002:00001e74       ??_C@_0DF@IBLNNAIG@R6026?$AN?6?9?5not?5enough?5space?5for?5st@ 10015e74     LIBCMT:crt0msg.obj
 0002:00001eac       ??_C@_0CG@IOHKGFNJ@R6025?$AN?6?9?5pure?5virtual?5function?5c@ 10015eac     LIBCMT:crt0msg.obj
 0002:00001ed4       ??_C@_0DF@JIJJFJDC@R6024?$AN?6?9?5not?5enough?5space?5for?5_o@ 10015ed4     LIBCMT:crt0msg.obj
 0002:00001f0c       ??_C@_0CJ@EGEJHFME@R6019?$AN?6?9?5unable?5to?5open?5console?5@ 10015f0c     LIBCMT:crt0msg.obj
 0002:00001f38       ??_C@_0CB@GNHNIELH@R6018?$AN?6?9?5unexpected?5heap?5error?$AN?6@ 10015f38     LIBCMT:crt0msg.obj
 0002:00001f5c       ??_C@_0CN@FOLDKNG@R6017?$AN?6?9?5unexpected?5multithread?5@ 10015f5c     LIBCMT:crt0msg.obj
 0002:00001f8c       ??_C@_0CM@FAHFJNHO@R6016?$AN?6?9?5not?5enough?5space?5for?5th@ 10015f8c     LIBCMT:crt0msg.obj
 0002:00001fb8       ??_C@_0JG@LBKMGKLD@?$AN?6This?5application?5has?5requested@ 10015fb8     LIBCMT:crt0msg.obj
 0002:00002050       ??_C@_0CM@FLCNIPKK@R6009?$AN?6?9?5not?5enough?5space?5for?5en@ 10016050     LIBCMT:crt0msg.obj
 0002:0000207c       ??_C@_0CK@KMMJOAPP@R6008?$AN?6?9?5not?5enough?5space?5for?5ar@ 1001607c     LIBCMT:crt0msg.obj
 0002:000020a8       ??_C@_0CF@HOHMHDEK@R6002?$AN?6?9?5floating?5point?5not?5load@ 100160a8     LIBCMT:crt0msg.obj
 0002:000020d0       ??_C@_0CF@GOGNBNAK@Microsoft?5Visual?5C?$CL?$CL?5Runtime?5Lib@ 100160d0     LIBCMT:crt0msg.obj
 0002:000020f8       ??_C@_02PHMGELLB@?6?6?$AA@ 100160f8     LIBCMT:crt0msg.obj
 0002:000020fc       ??_C@_0BK@OFGJDLJJ@Runtime?5Error?$CB?6?6Program?3?5?$AA@ 100160fc     LIBCMT:crt0msg.obj
 0002:00002118       ??_C@_03KHICJKCI@?4?4?4?$AA@ 10016118     LIBCMT:crt0msg.obj
 0002:0000211c       ??_C@_0BH@DNAGHKFM@?$DMprogram?5name?5unknown?$DO?$AA@ 1001611c     LIBCMT:crt0msg.obj
 0002:00002168       ___newctype                10016168     LIBCMT:ctype.obj
 0002:00002468       __wctype                   10016468     LIBCMT:ctype.obj
 0002:0000268c       ??_C@_0CG@PKBDLMEO@InitializeCriticalSectionAndSpin@ 1001668c     LIBCMT:initcrit.obj
 0002:000026c4       ??_C@_13NOLLCAOD@?$AA?$AA?$AA?$AA@ 100166c4     LIBCMT:a_cmp.obj
 0002:0000270c       ??_C@_0L@KDOEJCKC@_nextafter?$AA@ 1001670c     LIBCMT:fpexcept.obj
 0002:00002718       ??_C@_05JGDBENOH@_logb?$AA@ 10016718     LIBCMT:fpexcept.obj
 0002:00002720       ??_C@_03ONILCKOB@_yn?$AA@  10016720     LIBCMT:fpexcept.obj
 0002:00002724       ??_C@_03NAKIGLHK@_y1?$AA@  10016724     LIBCMT:fpexcept.obj
 0002:00002728       ??_C@_03MJLDFKDL@_y0?$AA@  10016728     LIBCMT:fpexcept.obj
 0002:0000272c       ??_C@_05GKKHEGJL@frexp?$AA@ 1001672c     LIBCMT:fpexcept.obj
 0002:00002734       ??_C@_04KEPJIHGP@fmod?$AA@ 10016734     LIBCMT:fpexcept.obj
 0002:0000273c       ??_C@_06MEIMCGCF@_hypot?$AA@ 1001673c     LIBCMT:fpexcept.obj
 0002:00002744       ??_C@_05KBKMEMPO@_cabs?$AA@ 10016744     LIBCMT:fpexcept.obj
 0002:0000274c       ??_C@_05CEJMAHNP@ldexp?$AA@ 1001674c     LIBCMT:fpexcept.obj
 0002:00002754       ??_C@_04ODHECPBC@fabs?$AA@ 10016754     LIBCMT:fpexcept.obj
 0002:0000275c       ??_C@_03IIINPABG@tan?$AA@  1001675c     LIBCMT:fpexcept.obj
 0002:00002760       ??_C@_03LALBNOCG@cos?$AA@  10016760     LIBCMT:fpexcept.obj
 0002:00002764       ??_C@_03BLEJJJBH@sin?$AA@  10016764     LIBCMT:fpexcept.obj
 0002:00002768       ??_C@_04EIAKFFMI@sqrt?$AA@ 10016768     LIBCMT:fpexcept.obj
 0002:00002770       ??_C@_05KNGEOGJB@atan2?$AA@ 10016770     LIBCMT:fpexcept.obj
 0002:00002778       ??_C@_04PDIFKINK@acos?$AA@ 10016778     LIBCMT:fpexcept.obj
 0002:00002780       ??_C@_04FIHNOPOL@asin?$AA@ 10016780     LIBCMT:fpexcept.obj
 0002:00002788       ??_C@_04FJHINJAO@tanh?$AA@ 10016788     LIBCMT:fpexcept.obj
 0002:00002790       ??_C@_04HPJJNFIM@cosh?$AA@ 10016790     LIBCMT:fpexcept.obj
 0002:00002798       ??_C@_04COOMCNPB@sinh?$AA@ 10016798     LIBCMT:fpexcept.obj
 0002:00002964       ??_C@_0BI@DFKBFLJE@GetProcessWindowStation?$AA@ 10016964     LIBCMT:crtmbox.obj
 0002:0000297c       ??_C@_0BK@CIDNPOGP@GetUserObjectInformationA?$AA@ 1001697c     LIBCMT:crtmbox.obj
 0002:00002998       ??_C@_0BD@HHGDFDBJ@GetLastActivePopup?$AA@ 10016998     LIBCMT:crtmbox.obj
 0002:000029ac       ??_C@_0BA@HNOPNCHB@GetActiveWindow?$AA@ 100169ac     LIBCMT:crtmbox.obj
 0002:000029bc       ??_C@_0M@CHKKJDAI@MessageBoxA?$AA@ 100169bc     LIBCMT:crtmbox.obj
 0002:000029c8       ??_C@_0L@GMPLCCII@user32?4dll?$AA@ 100169c8     LIBCMT:crtmbox.obj
 0002:000029fc       ??_C@_06IMKFLFPG@1?$CDQNAN?$AA@ 100169fc     LIBCMT:x10fout.obj
 0002:00002a04       ??_C@_05DNEBIAHO@1?$CDINF?$AA@ 10016a04     LIBCMT:x10fout.obj
 0002:00002a0c       ??_C@_05PHHOCPM@1?$CDIND?$AA@ 10016a0c     LIBCMT:x10fout.obj
 0002:00002a14       ??_C@_06PGGFOGJG@1?$CDSNAN?$AA@ 10016a14     LIBCMT:x10fout.obj
 0002:00002a1c       ??_C@_09KLGCKDOD@Program?3?5?$AA@ 10016a1c     LIBCMT:secfail.obj
 0002:00002a28       ??_C@_0KA@JEHFIFGP@A?5buffer?5overrun?5has?5been?5detect@ 10016a28     LIBCMT:secfail.obj
 0002:00002ac8       ??_C@_0BJ@MDEKIEOJ@Buffer?5overrun?5detected?$CB?$AA@ 10016ac8     LIBCMT:secfail.obj
 0002:00002ae8       ??_C@_0LB@BPLHHLFD@A?5security?5error?5of?5unknown?5caus@ 10016ae8     LIBCMT:secfail.obj
 0002:00002b9c       ??_C@_0CD@GMKACBEK@Unknown?5security?5failure?5detecte@ 10016b9c     LIBCMT:secfail.obj
 0002:00002c0c       ??_C@_08JCCMCCIL@HH?3mm?3ss?$AA@ 10016c0c     LIBCMT:strftime.obj
 0002:00002c18       ??_C@_0BE@CKGJFCPC@dddd?0?5MMMM?5dd?0?5yyyy?$AA@ 10016c18     LIBCMT:strftime.obj
 0002:00002c2c       ??_C@_08BPBNCDIB@MM?1dd?1yy?$AA@ 10016c2c     LIBCMT:strftime.obj
 0002:00002c38       ??_C@_02CJNFDJBF@PM?$AA@   10016c38     LIBCMT:strftime.obj
 0002:00002c3c       ??_C@_02DEDBPAFC@AM?$AA@   10016c3c     LIBCMT:strftime.obj
 0002:00002c40       ??_C@_08EDHMEBNP@December?$AA@ 10016c40     LIBCMT:strftime.obj
 0002:00002c4c       ??_C@_08HCHEGEOA@November?$AA@ 10016c4c     LIBCMT:strftime.obj
 0002:00002c58       ??_C@_07JJNFCEND@October?$AA@ 10016c58     LIBCMT:strftime.obj
 0002:00002c60       ??_C@_09BHHEALKD@September?$AA@ 10016c60     LIBCMT:strftime.obj
 0002:00002c6c       ??_C@_06LBBHFDDG@August?$AA@ 10016c6c     LIBCMT:strftime.obj
 0002:00002c74       ??_C@_04MIEPOIFP@July?$AA@ 10016c74     LIBCMT:strftime.obj
 0002:00002c7c       ??_C@_04CNLMGBGM@June?$AA@ 10016c7c     LIBCMT:strftime.obj
 0002:00002c84       ??_C@_05DMJDNLEJ@April?$AA@ 10016c84     LIBCMT:strftime.obj
 0002:00002c8c       ??_C@_05HPCKOFNC@March?$AA@ 10016c8c     LIBCMT:strftime.obj
 0002:00002c94       ??_C@_08GNJGEPFN@February?$AA@ 10016c94     LIBCMT:strftime.obj
 0002:00002ca0       ??_C@_07CGJPFGJA@January?$AA@ 10016ca0     LIBCMT:strftime.obj
 0002:00002ca8       ??_C@_03MKABNOCG@Dec?$AA@  10016ca8     LIBCMT:strftime.obj
 0002:00002cac       ??_C@_03JPJOFNIA@Nov?$AA@  10016cac     LIBCMT:strftime.obj
 0002:00002cb0       ??_C@_03BMAOKBAD@Oct?$AA@  10016cb0     LIBCMT:strftime.obj
 0002:00002cb4       ??_C@_03GGCAPAJC@Sep?$AA@  10016cb4     LIBCMT:strftime.obj
 0002:00002cb8       ??_C@_03IFJFEIGA@Aug?$AA@  10016cb8     LIBCMT:strftime.obj
 0002:00002cbc       ??_C@_03LBGABGKK@Jul?$AA@  10016cbc     LIBCMT:strftime.obj
 0002:00002cc0       ??_C@_03IDFGHECI@Jun?$AA@  10016cc0     LIBCMT:strftime.obj
 0002:00002cc4       ??_C@_03CNMDKL@May?$AA@    10016cc4     LIBCMT:strftime.obj
 0002:00002cc8       ??_C@_03LEOLGMJP@Apr?$AA@  10016cc8     LIBCMT:strftime.obj
 0002:00002ccc       ??_C@_03ODNJBKGA@Mar?$AA@  10016ccc     LIBCMT:strftime.obj
 0002:00002cd0       ??_C@_03HJBDCHOM@Feb?$AA@  10016cd0     LIBCMT:strftime.obj
 0002:00002cd4       ??_C@_03JIHJHPIE@Jan?$AA@  10016cd4     LIBCMT:strftime.obj
 0002:00002cd8       ??_C@_08INBOOONO@Saturday?$AA@ 10016cd8     LIBCMT:strftime.obj
 0002:00002ce4       ??_C@_06JECMNKMI@Friday?$AA@ 10016ce4     LIBCMT:strftime.obj
 0002:00002cec       ??_C@_08HACCIKIA@Thursday?$AA@ 10016cec     LIBCMT:strftime.obj
 0002:00002cf8       ??_C@_09DLIGFAKA@Wednesday?$AA@ 10016cf8     LIBCMT:strftime.obj
 0002:00002d04       ??_C@_07BAAGCFCM@Tuesday?$AA@ 10016d04     LIBCMT:strftime.obj
 0002:00002d0c       ??_C@_06JLEDEDGH@Monday?$AA@ 10016d0c     LIBCMT:strftime.obj
 0002:00002d14       ??_C@_06OOPIFAJ@Sunday?$AA@ 10016d14     LIBCMT:strftime.obj
 0002:00002d1c       ??_C@_03FEFJNEK@Sat?$AA@   10016d1c     LIBCMT:strftime.obj
 0002:00002d20       ??_C@_03IDIOELNC@Fri?$AA@  10016d20     LIBCMT:strftime.obj
 0002:00002d24       ??_C@_03IOFIKPDN@Thu?$AA@  10016d24     LIBCMT:strftime.obj
 0002:00002d28       ??_C@_03MHOMLAJA@Wed?$AA@  10016d28     LIBCMT:strftime.obj
 0002:00002d2c       ??_C@_03NAGEINEP@Tue?$AA@  10016d2c     LIBCMT:strftime.obj
 0002:00002d30       ??_C@_03PDAGKDH@Mon?$AA@   10016d30     LIBCMT:strftime.obj
 0002:00002d34       ??_C@_03KOEHGMDN@Sun?$AA@  10016d34     LIBCMT:strftime.obj
 0002:00002d38       ___dnames                  10016d38     LIBCMT:timeset.obj
 0002:00002d50       ___mnames                  10016d50     LIBCMT:timeset.obj
 0002:00002d78       __load_config_used         10016d78     LIBCMT:loadcfg.obj
 0002:00002dc0       ___safe_se_handler_table   10016dc0     <linker-defined>
 0002:00002dc8       ___rtc_iaa                 10016dc8     LIBCMT:initsect.obj
 0002:00002dcc       ___rtc_izz                 10016dcc     LIBCMT:initsect.obj
 0002:00002dd0       ___rtc_taa                 10016dd0     LIBCMT:initsect.obj
 0002:00002dd4       ___rtc_tzz                 10016dd4     LIBCMT:initsect.obj
 0002:00002dd8       __IMPORT_DESCRIPTOR_KERNEL32 10016dd8     kernel32:KERNEL32.dll
 0002:00002dec       __IMPORT_DESCRIPTOR_USER32 10016dec     user32:USER32.dll
 0002:00002e00       __IMPORT_DESCRIPTOR_ADVAPI32 10016e00     advapi32:ADVAPI32.dll
 0002:00002e14       __NULL_IMPORT_DESCRIPTOR   10016e14     kernel32:KERNEL32.dll
 0003:00000000       ___xc_a                    10019000     LIBCMT:crt0init.obj
 0003:00000008       ___xc_z                    10019008     LIBCMT:crt0init.obj
 0003:0000000c       ___xi_a                    1001900c     LIBCMT:crt0init.obj
 0003:00000020       ___xi_z                    10019020     LIBCMT:crt0init.obj
 0003:00000024       ___xp_a                    10019024     LIBCMT:crt0init.obj
 0003:0000002c       ___xp_z                    1001902c     LIBCMT:crt0init.obj
 0003:00000030       ___xt_a                    10019030     LIBCMT:crt0init.obj
 0003:00000034       ___xt_z                    10019034     LIBCMT:crt0init.obj
 0003:00001580       _JsChPostProc_selected     1001a580     winmm.obj
 0003:0000159c       ?detect@?1??_DebugChangeModPopUp@@9@9 1001a59c     winmm.obj
 0003:000015a0       ?pos@?1??_DebugChangeModPopUp@@9@9 1001a5a0     winmm.obj
 0003:000015a4       ?mod@?1??_DebugChangeModPopUp@@9@9 1001a5a4     winmm.obj
 0003:000015a8       __fltused                  1001a5a8     LIBCMT:fpinit.obj
 0003:000015ac       __ldused                   1001a5ac     LIBCMT:fpinit.obj
 0003:000015b0       __FPinit                   1001a5b0     LIBCMT:fpinit.obj
 0003:000015b4       __FPmtinit                 1001a5b4     LIBCMT:fpinit.obj
 0003:000015b8       __FPmtterm                 1001a5b8     LIBCMT:fpinit.obj
 0003:000015c0       __aexit_rtn                1001a5c0     LIBCMT:dllcrt0.obj
 0003:000015c4       __cfltcvt_tab              1001a5c4     LIBCMT:cmiscdat.obj
 0003:000015dc       ___nullstring              1001a5dc     LIBCMT:output.obj
 0003:000015e0       ___wnullstring             1001a5e0     LIBCMT:output.obj
 0003:000015e8       __iob                      1001a5e8     LIBCMT:_file.obj
 0003:00001af0       __pmatherr                 1001aaf0     LIBCMT:libm_error.obj
 0003:00001af8       __amblksiz                 1001aaf8     LIBCMT:heapinit.obj
 0003:00001b00       ___tlsindex                1001ab00     LIBCMT:tidtable.obj
 0003:00001b04       ___badioinfo               1001ab04     LIBCMT:ioinit.obj
 0003:00001b28       __XcptActTab               1001ab28     LIBCMT:winxfltr.obj
 0003:00001ba0       __First_FPE_Indx           1001aba0     LIBCMT:winxfltr.obj
 0003:00001ba4       __Num_FPE                  1001aba4     LIBCMT:winxfltr.obj
 0003:00001ba8       __XcptActTabSize           1001aba8     LIBCMT:winxfltr.obj
 0003:00001bac       __XcptActTabCount          1001abac     LIBCMT:winxfltr.obj
 0003:00001c48       ___mb_cur_max              1001ac48     LIBCMT:nlsdata1.obj
 0003:00001c4c       ___decimal_point           1001ac4c     LIBCMT:nlsdata1.obj
 0003:00001c50       ___decimal_point_length    1001ac50     LIBCMT:nlsdata1.obj
 0003:00001c90       ___security_cookie         1001ac90     LIBCMT:seccook.obj
 0003:00001c94       __pctype                   1001ac94     LIBCMT:ctype.obj
 0003:00001c98       __pwctype                  1001ac98     LIBCMT:ctype.obj
 0003:00001ca0       __NLG_Destination          1001aca0     LIBCMT:exsup.obj
 0003:00001da8       __matherr_flag             1001ada8     LIBCMT:matherr.obj
 0003:00001e98       __d_inf                    1001ae98     LIBCMT:util.obj
 0003:00001ea0       __d_ind                    1001aea0     LIBCMT:util.obj
 0003:00001ea8       __d_max                    1001aea8     LIBCMT:util.obj
 0003:00001eb0       __d_min                    1001aeb0     LIBCMT:util.obj
 0003:00001eb8       __d_mzero                  1001aeb8     LIBCMT:util.obj
 0003:00001ee0       ___initiallocinfo          1001aee0     LIBCMT:setlocal.obj
 0003:00001f34       ___ptlocinfo               1001af34     LIBCMT:setlocal.obj
 0003:00002070       ___lc_clike                1001b070     LIBCMT:nlsdata2.obj
 0003:00002074       ___lc_time_curr            1001b074     LIBCMT:strftime.obj
 0003:00002078       ___lc_time_c               1001b078     LIBCMT:strftime.obj
 0003:00002130       ___lconv_static_decimal    1001b130     LIBCMT:lconv.obj
 0003:00002134       ___lconv_c                 1001b134     LIBCMT:lconv.obj
 0003:00002164       ___lconv                   1001b164     LIBCMT:lconv.obj
 0003:00002170       __timezone                 1001b170     LIBCMT:timeset.obj
 0003:00002174       __daylight                 1001b174     LIBCMT:timeset.obj
 0003:00002178       __dstbias                  1001b178     LIBCMT:timeset.obj
 0003:00002200       __tzname                   1001b200     LIBCMT:timeset.obj
 0003:00002220       __pow10pos                 1001b220     LIBCMT:constpow.obj
 0003:00002380       __pow10neg                 1001b380     LIBCMT:constpow.obj
 0003:000024e0       __lpdays                   1001b4e0     LIBCMT:days.obj
 0003:00002514       __days                     1001b514     LIBCMT:days.obj
 0003:00002960       _hWinmm                    1001b960     winmm.obj
 0003:00002964       _hJschpostproc             1001b964     winmm.obj
 0003:00002968       _js_data                   1001b968     winmm.obj
 0003:00002a00       ___fastflag                1001ba00     LIBCMT:fpinit.obj
 0003:00002a04       __adjust_fdiv              1001ba04     LIBCMT:fpinit.obj
 0003:00002a0c       __aenvptr                  1001ba0c     LIBCMT:dllcrt0.obj
 0003:00002a10       __wenvptr                  1001ba10     LIBCMT:dllcrt0.obj
 0003:00002a14       ___error_mode              1001ba14     LIBCMT:dllcrt0.obj
 0003:00002a18       ___app_type                1001ba18     LIBCMT:dllcrt0.obj
 0003:00002a1c       __cflush                   1001ba1c     LIBCMT:_file.obj
 0003:00002a20       __stdbuf                   1001ba20     LIBCMT:_sftbuf.obj
 0003:00002a28       __umaskval                 1001ba28     LIBCMT:crt0dat.obj
 0003:00002a2c       __osplatform               1001ba2c     LIBCMT:crt0dat.obj
 0003:00002a30       __osver                    1001ba30     LIBCMT:crt0dat.obj
 0003:00002a34       __winver                   1001ba34     LIBCMT:crt0dat.obj
 0003:00002a38       __winmajor                 1001ba38     LIBCMT:crt0dat.obj
 0003:00002a3c       __winminor                 1001ba3c     LIBCMT:crt0dat.obj
 0003:00002a40       ___argc                    1001ba40     LIBCMT:crt0dat.obj
 0003:00002a44       ___argv                    1001ba44     LIBCMT:crt0dat.obj
 0003:00002a48       ___wargv                   1001ba48     LIBCMT:crt0dat.obj
 0003:00002a4c       __environ                  1001ba4c     LIBCMT:crt0dat.obj
 0003:00002a50       ___initenv                 1001ba50     LIBCMT:crt0dat.obj
 0003:00002a54       __wenviron                 1001ba54     LIBCMT:crt0dat.obj
 0003:00002a58       ___winitenv                1001ba58     LIBCMT:crt0dat.obj
 0003:00002a5c       __pgmptr                   1001ba5c     LIBCMT:crt0dat.obj
 0003:00002a60       __wpgmptr                  1001ba60     LIBCMT:crt0dat.obj
 0003:00002a64       __exitflag                 1001ba64     LIBCMT:crt0dat.obj
 0003:00002a68       __C_Termination_Done       1001ba68     LIBCMT:crt0dat.obj
 0003:00002a6c       __C_Exit_Done              1001ba6c     LIBCMT:crt0dat.obj
 0003:00002bc0       ?_pnhHeap@@3P6AHI@ZA       1001bbc0     LIBCMT:handler.obj
 0003:00002bc4       __newmode                  1001bbc4     LIBCMT:_newmode.obj
 0003:00002bc8       _gpFlsAlloc                1001bbc8     LIBCMT:tidtable.obj
 0003:00002bcc       _gpFlsGetValue             1001bbcc     LIBCMT:tidtable.obj
 0003:00002bd0       _gpFlsSetValue             1001bbd0     LIBCMT:tidtable.obj
 0003:00002bd4       _gpFlsFree                 1001bbd4     LIBCMT:tidtable.obj
 0003:00002ce4       __adbgmsg                  1001bce4     LIBCMT:crt0msg.obj
 0003:00002d34       __commode                  1001bd34     LIBCMT:ncommode.obj
 0003:00002d80       __fmode                    1001bd80     LIBCMT:txtmode.obj
 0003:00002d84       ___lc_handle               1001bd84     LIBCMT:nlsdata2.obj
 0003:00002d9c       ___lc_codepage             1001bd9c     LIBCMT:nlsdata2.obj
 0003:00002da0       ___lc_collate_cp           1001bda0     LIBCMT:nlsdata2.obj
 0003:00002da8       ___lconv_static_null       1001bda8     LIBCMT:lconv.obj
 0003:00002dac       ___lc_time_intl            1001bdac     LIBCMT:inittime.obj
 0003:00002db0       ___lconv_intl              1001bdb0     LIBCMT:initmon.obj
 0003:00002dd8       ___lc_id                   1001bdd8     LIBCMT:nlsdata3.obj
 0003:00002ec8       ?aud_max_val@?1??CalcThreshold@@9@9 1001bec8     <common>
 0003:00002ed0       ?aud_min_val@?1??CalcThreshold@@9@9 1001bed0     <common>
 0003:00002ed8       _gDebugLevel               1001bed8     <common>
 0003:00002edc       _pmciGetCreatorTask        1001bedc     <common>
 0003:00002ee0       _pwaveInReset              1001bee0     <common>
 0003:00002ee4       _pSendDriverMessage        1001bee4     <common>
 0003:00002ee8       _ProcessChannels           1001bee8     <common>
 0003:00002eec       _pmidiInGetDevCapsW        1001beec     <common>
 0003:00002ef0       _pwaveOutBreakLoop         1001bef0     <common>
 0003:00002ef4       _pmci32Message             1001bef4     <common>
 0003:00002ef8       _gCtrlLogFile              1001bef8     <common>
 0003:00002efc       _pDrvGetModuleHandle       1001befc     <common>
 0003:00002f00       _pmciLoadCommandResource   1001bf00     <common>
 0003:00002f04       _pmidiInGetErrorTextW      1001bf04     <common>
 0003:00002f08       _pmidiInGetNumDevs         1001bf08     <common>
 0003:00002f20       _path                      1001bf20     <common>
 0003:00003320       _pwinmmDbgOut              1001c320     <common>
 0003:00003324       _pwaveInGetErrorTextW      1001c324     <common>
 0003:00003328       _pmmioRead                 1001c328     <common>
 0003:0000332c       _pauxOutMessage            1001c32c     <common>
 0003:00003330       _pmciGetDriverData         1001c330     <common>
 0003:00003334       _pGetNumberOfFilters       1001c334     <common>
 0003:00003338       _pOpenDriver               1001c338     <common>
 0003:0000333c       _pmciGetErrorStringA       1001c33c     <common>
 0003:00003340       _pmid32Message             1001c340     <common>
 0003:00003344       _pgfxModifyGfx             1001c344     <common>
 0003:00003348       _pmidiOutPrepareHeader     1001c348     <common>
 0003:0000334c       _pwaveOutGetPitch          1001c34c     <common>
 0003:00003350       _pmciGetDeviceIDW          1001c350     <common>
 0003:00003354       _pgfxAddGfx                1001c354     <common>
 0003:00003358       _pjoySetThreshold          1001c358     <common>
 0003:0000335c       _pauxSetVolume             1001c35c     <common>
 0003:00003360       _pmciGetDeviceIDFromElementIDA 1001c360     <common>
 0003:00003364       _pmidiInPrepareHeader      1001c364     <common>
 0003:00003368       _pjoyGetNumDevs            1001c368     <common>
 0003:0000336c       _pPlaySoundW               1001c36c     <common>
 0003:00003370       _psndPlaySoundW            1001c370     <common>
 0003:00003374       _pwaveOutGetDevCapsW       1001c374     <common>
 0003:00003378       _pmixerGetID               1001c378     <common>
 0003:0000337c       _pmidiInReset              1001c37c     <common>
 0003:00003380       _GetDllVersion             1001c380     <common>
 0003:00003384       _pGetIndexOfSelectedFilter 1001c384     <common>
 0003:00003388       _pmidiStreamOpen           1001c388     <common>
 0003:0000338c       _pmciGetErrorStringW       1001c38c     <common>
 0003:00003390       _pmixerGetControlDetailsA  1001c390     <common>
 0003:00003394       _pmidiStreamOut            1001c394     <common>
 0003:00003398       _pmidiOutShortMsg          1001c398     <common>
 0003:0000339c       _pmciDriverYield           1001c39c     <common>
 0003:000033a0       _pGetFilterNameByIndex     1001c3a0     <common>
 0003:000033a4       _pwaveOutUnprepareHeader   1001c3a4     <common>
 0003:000033a8       _pmciGetYieldProc          1001c3a8     <common>
 0003:000033ac       _pmixerClose               1001c3ac     <common>
 0003:000033b0       _pmmioDescend              1001c3b0     <common>
 0003:000033b4       _pmixerGetLineInfoA        1001c3b4     <common>
 0003:000033b8       _pwaveInGetErrorTextA      1001c3b8     <common>
 0003:000033bc       _pwaveInGetID              1001c3bc     <common>
 0003:000033c0       _pWOW32DriverCallback      1001c3c0     <common>
 0003:000033c4       _TlsIndex                  1001c3c4     <common>
 0003:000033c8       _pmidiConnect              1001c3c8     <common>
 0003:000033cc       _pjoyGetDevCapsW           1001c3cc     <common>
 0003:000033d0       _pwaveOutRestart           1001c3d0     <common>
 0003:000033d4       _pauxGetNumDevs            1001c3d4     <common>
 0003:000033d8       _pMigrateSoundEvents       1001c3d8     <common>
 0003:000033dc       _pmidiInUnprepareHeader    1001c3dc     <common>
 0003:000033e0       _pmmDrvInstall             1001c3e0     <common>
 0003:000033e4       _pmidiOutGetID             1001c3e4     <common>
 0003:000033e8       _pmidiOutReset             1001c3e8     <common>
 0003:000033ec       _pjoyGetPosEx              1001c3ec     <common>
 0003:000033f0       _pwaveOutGetErrorTextA     1001c3f0     <common>
 0003:000033f4       _pWOW32ResolveMultiMediaHandle 1001c3f4     <common>
 0003:000033f8       _pwaveOutGetErrorTextW     1001c3f8     <common>
 0003:000033fc       _ListProcessPulseFunc      1001c3fc     <common>
 0003:00003400       _pmmioRenameW              1001c400     <common>
 0003:00003404       _pmciSetDriverData         1001c404     <common>
 0003:00003408       _pwaveInGetDevCapsW        1001c408     <common>
 0003:0000340c       _ptimeGetDevCaps           1001c40c     <common>
 0003:00003410       _pmidiStreamRestart        1001c410     <common>
 0003:00003414       _ptimeKillEvent            1001c414     <common>
 0003:00003418       _pwaveInGetDevCapsA        1001c418     <common>
 0003:0000341c       _pwaveOutOpen              1001c41c     <common>
 0003:00003420       _pmidiDisconnect           1001c420     <common>
 0003:00003424       _pjoyReleaseCapture        1001c424     <common>
 0003:00003428       _pwaveInGetNumDevs         1001c428     <common>
 0003:0000342c       _pgfxCreateGfxFactoriesList 1001c42c     <common>
 0003:00003430       _ptimeSetEvent             1001c430     <common>
 0003:00003434       _pmmioFlush                1001c434     <common>
 0003:00003438       _ptimeEndPeriod            1001c438     <common>
 0003:0000343c       _ptid32Message             1001c43c     <common>
 0003:00003440       _pmidiOutSetVolume         1001c440     <common>
 0003:00003444       _pMigrateAllDrivers        1001c444     <common>
 0003:00003448       _pmixerGetDevCapsW         1001c448     <common>
 0003:0000344c       _pmciSendCommandW          1001c44c     <common>
 0003:00003450       _pmmioSendMessage          1001c450     <common>
 0003:00003454       _pmmioRenameA              1001c454     <common>
 0003:00003458       _pmmTaskSignal             1001c458     <common>
 0003:0000345c       _pauxGetDevCapsW           1001c45c     <common>
 0003:00003460       _pmmioCreateChunk          1001c460     <common>
 0003:00003464       _ptimeGetTime              1001c464     <common>
 0003:00003468       _pwaveInClose              1001c468     <common>
 0003:0000346c       _pmmioGetInfo              1001c46c     <common>
 0003:00003470       _pwaveOutWrite             1001c470     <common>
 0003:00003474       _pauxGetDevCapsA           1001c474     <common>
 0003:00003478       _pmidiOutCachePatches      1001c478     <common>
 0003:0000347c       _pgfxRemoveGfx             1001c47c     <common>
 0003:00003480       _DoStartPropo              1001c480     <common>
 0003:00003484       _pjoyGetPos                1001c484     <common>
 0003:00003488       _pmmioStringToFOURCCW      1001c488     <common>
 0003:0000348c       _psndPlaySoundA            1001c48c     <common>
 0003:00003490       _pmidiOutGetErrorTextA     1001c490     <common>
 0003:00003494       _pWinmmLogoff              1001c494     <common>
 0003:00003498       _pwaveInPrepareHeader      1001c498     <common>
 0003:0000349c       _pmidiInGetID              1001c49c     <common>
 0003:000034a0       _pmmioSeek                 1001c4a0     <common>
 0003:000034a4       _pwaveOutReset             1001c4a4     <common>
 0003:000034a8       _pmidiOutCacheDrumPatches  1001c4a8     <common>
 0003:000034ac       _pmmTaskYield              1001c4ac     <common>
 0003:000034b0       _pmidiOutUnprepareHeader   1001c4b0     <common>
 0003:000034b4       _pmidiInStart              1001c4b4     <common>
 0003:000034b8       _pjoySetCapture            1001c4b8     <common>
 0003:000034bc       _pmmTaskBlock              1001c4bc     <common>
 0003:000034c0       _pmidiOutClose             1001c4c0     <common>
 0003:000034c4       _pmciSetYieldProc          1001c4c4     <common>
 0003:000034c8       _pjoy32Message             1001c4c8     <common>
 0003:000034cc       _pwaveInStop               1001c4cc     <common>
 0003:000034d0       _pmciGetDeviceIDA          1001c4d0     <common>
 0003:000034d4       _pwaveOutMessage           1001c4d4     <common>
 0003:000034d8       _pDriverCallback           1001c4d8     <common>
 0003:000034dc       _pmciSendCommandA          1001c4dc     <common>
 0003:000034e0       _pmmioSetBuffer            1001c4e0     <common>
 0003:000034e4       _pmciFreeCommandResource   1001c4e4     <common>
 0003:000034e8       _pmixerGetLineControlsA    1001c4e8     <common>
 0003:000034ec       _pmixerMessage             1001c4ec     <common>
 0003:000034f0       _pmidiInOpen               1001c4f0     <common>
 0003:000034f4       _pmixerGetLineInfoW        1001c4f4     <common>
 0003:000034f8       _pmidiStreamClose          1001c4f8     <common>
 0003:000034fc       _pmmioInstallIOProcW       1001c4fc     <common>
 0003:00003500       _pPlaySound                1001c500     <common>
 0003:00003504       _pmidiOutLongMsg           1001c504     <common>
 0003:00003508       _pmixerOpen                1001c508     <common>
 0003:0000350c       _pGetDriverModuleHandle    1001c50c     <common>
 0003:00003510       _pmidiOutGetDevCapsW       1001c510     <common>
 0003:00003514       _pmxd32Message             1001c514     <common>
 0003:00003518       _pmidiInClose              1001c518     <common>
 0003:0000351c       _pmmioWrite                1001c51c     <common>
 0003:00003520       _p_gfxLogon                1001c520     <common>
 0003:00003524       _pmixerGetControlDetailsW  1001c524     <common>
 0003:00003528       _pwaveOutSetPitch          1001c528     <common>
 0003:0000352c       _pmidiStreamStop           1001c52c     <common>
 0003:00003530       _pwaveOutGetDevCapsA       1001c530     <common>
 0003:00003534       _pwaveInMessage            1001c534     <common>
 0003:00003538       _pgfxBatchChange           1001c538     <common>
 0003:0000353c       _pmidiOutGetErrorTextW     1001c53c     <common>
 0003:00003540       _pmixerGetDevCapsA         1001c540     <common>
 0003:00003544       _pwaveOutClose             1001c544     <common>
 0003:00003548       _pSelectFilterByIndex      1001c548     <common>
 0003:0000354c       _pwaveOutSetVolume         1001c54c     <common>
 0003:00003550       _paux32Message             1001c550     <common>
 0003:00003554       _pwaveInGetPosition        1001c554     <common>
 0003:00003558       _pwaveOutGetPlaybackRate   1001c558     <common>
 0003:0000355c       _pwaveOutGetVolume         1001c55c     <common>
 0003:00003560       _pmixerSetControlDetails   1001c560     <common>
 0003:00003564       _pmidiStreamPause          1001c564     <common>
 0003:00003568       _pmixerGetNumDevs          1001c568     <common>
 0003:0000356c       _pmidiInMessage            1001c56c     <common>
 0003:00003570       _pPlaySoundA               1001c570     <common>
 0003:00003574       _pmidiInGetErrorTextA      1001c574     <common>
 0003:00003578       _pwaveOutGetPosition       1001c578     <common>
 0003:0000357c       _pCloseDriver              1001c57c     <common>
 0003:00003580       _ghDataLock                1001c580     <common>
 0003:00003584       _ptimeGetSystemTime        1001c584     <common>
 0003:00003588       _pmmGetCurrentTask         1001c588     <common>
 0003:0000358c       _gDataLogFile              1001c58c     <common>
 0003:00003590       _gpSharedBlock             1001c590     <common>
 0003:00003594       _pmod32Message             1001c594     <common>
 0003:00003598       _pwaveInAddBuffer          1001c598     <common>
 0003:0000359c       _pwid32Message             1001c59c     <common>
 0003:000035a0       _pwaveOutSetPlaybackRate   1001c5a0     <common>
 0003:000035a4       _pwod32Message             1001c5a4     <common>
 0003:000035a8       _pNotifyCallbackData       1001c5a8     <common>
 0003:000035ac       _pmciGetDeviceIDFromElementIDW 1001c5ac     <common>
 0003:000035b0       _pwaveOutPause             1001c5b0     <common>
 0003:000035b4       _pwaveOutPrepareHeader     1001c5b4     <common>
 0003:000035b8       _pgfxOpenGfx               1001c5b8     <common>
 0003:000035bc       _pmciDriverNotify          1001c5bc     <common>
 0003:000035c0       _pWinmmLogon               1001c5c0     <common>
 0003:000035c4       _pmmioAscend               1001c5c4     <common>
 0003:000035c8       _ProcessPulse              1001c5c8     <common>
 0003:000035cc       _pwaveOutGetNumDevs        1001c5cc     <common>
 0003:000035d0       _pmixerGetLineControlsW    1001c5d0     <common>
 0003:000035d4       _pmmioClose                1001c5d4     <common>
 0003:000035d8       _pmidiStreamProperty       1001c5d8     <common>
 0003:000035dc       _pmmsystemGetVersion       1001c5dc     <common>
 0003:000035e0       _pmidiInAddBuffer          1001c5e0     <common>
 0003:000035e4       _pgfxDestroyDeviceInterfaceList 1001c5e4     <common>
 0003:000035e8       _pmmioOpenA                1001c5e8     <common>
 0003:000035ec       _pgfxCreateZoneFactoriesList 1001c5ec     <common>
 0003:000035f0       _pmmioStringToFOURCCA      1001c5f0     <common>
 0003:000035f4       _pmciSendStringW           1001c5f4     <common>
 0003:000035f8       _pWOWAppExit               1001c5f8     <common>
 0003:000035fc       _pmidiOutGetVolume         1001c5fc     <common>
 0003:00003600       _pwaveInUnprepareHeader    1001c600     <common>
 0003:00003604       _pjoyGetDevCapsA           1001c604     <common>
 0003:00003608       _pjoyConfigChanged         1001c608     <common>
 0003:0000360c       _pmidiStreamPosition       1001c60c     <common>
 0003:00003610       _pwaveInOpen               1001c610     <common>
 0003:00003614       _p_gfxLogoff               1001c614     <common>
 0003:00003618       _pmidiInGetDevCapsA        1001c618     <common>
 0003:0000361c       _pmidiOutGetNumDevs        1001c61c     <common>
 0003:00003620       _pmidiInStop               1001c620     <common>
 0003:00003624       _pjoyGetThreshold          1001c624     <common>
 0003:00003628       _pmmioSetInfo              1001c628     <common>
 0003:0000362c       _pwaveOutGetID             1001c62c     <common>
 0003:00003630       _ptimeBeginPeriod          1001c630     <common>
 0003:00003634       _pwaveInStart              1001c634     <common>
 0003:00003638       _pauxGetVolume             1001c638     <common>
 0003:0000363c       _pgfxEnumerateGfxs         1001c63c     <common>
 0003:00003640       _pmidiOutMessage           1001c640     <common>
 0003:00003644       _pDefDriverProc            1001c644     <common>
 0003:00003648       _pmidiOutGetDevCapsA       1001c648     <common>
 0003:0000364c       _pmmioInstallIOProcA       1001c64c     <common>
 0003:00003650       _pmidiOutOpen              1001c650     <common>
 0003:00003654       _pmmioOpenW                1001c654     <common>
 0003:00003658       _pGetFilterIdByIndex       1001c658     <common>
 0003:0000365c       _pwinmmSetDebugLevel       1001c65c     <common>
 0003:00003660       _pmciExecute               1001c660     <common>
 0003:00003664       _pmmTaskCreate             1001c664     <common>
 0003:00003668       _pmciSendStringA           1001c668     <common>
 0003:0000366c       _pmmioAdvance              1001c66c     <common>
 0003:00003670       ___ctype1_refcount         1001c670     <common>
 0003:00003674       ___lconv_mon_refcount      1001c674     <common>
 0003:00003678       ___lconv_num_refcount      1001c678     <common>
 0003:0000367c       ___mblcid                  1001c67c     <common>
 0003:00003680       ___ptmbcinfo               1001c680     <common>
 0003:00003684       ___ismbcodepage            1001c684     <common>
 0003:000036a0       __mbctype                  1001c6a0     <common>
 0003:000037a4       ___mbcodepage              1001c7a4     <common>
 0003:000037b0       ___mbulinfo                1001c7b0     <common>
 0003:000037c0       __mbcasemap                1001c7c0     <common>
 0003:000038c0       __nhandle                  1001c8c0     <common>
 0003:000038e0       ___pioinfo                 1001c8e0     <common>
 0003:000039e0       ___sbh_pHeaderDefer        1001c9e0     <common>
 0003:000039e4       ___sbh_cntHeaderList       1001c9e4     <common>
 0003:000039e8       ___sbh_pHeaderList         1001c9e8     <common>
 0003:000039ec       ___sbh_threshold           1001c9ec     <common>
 0003:000039f0       ___sbh_pHeaderScan         1001c9f0     <common>
 0003:000039f4       ___sbh_sizeHeaderList      1001c9f4     <common>
 0003:000039f8       ___sbh_indGroupDefer       1001c9f8     <common>
 0003:000039fc       __crtheap                  1001c9fc     <common>
 0003:00003a00       ___active_heap             1001ca00     <common>
 0003:00003a04       ___use_sse2_mathfcns       1001ca04     <common>
 0003:00003a08       ___sse2_available          1001ca08     <common>
 0003:00003a0c       ___env_initialized         1001ca0c     <common>
 0003:00003a10       ___onexitend               1001ca10     <common>
 0003:00003a14       ___onexitbegin             1001ca14     <common>
 0003:00003a18       ___mbctype_initialized     1001ca18     <common>
 0003:00003a1c       ___piob                    1001ca1c     <common>
 0003:00003a20       __bufin                    1001ca20     <common>
 0003:00004a20       __nstream                  1001da20     <common>
 0003:00004a24       __acmdln                   1001da24     <common>
 0003:00004a28       __pRawDllMain              1001da28     <common>

 entry point at        0001:00008d06

 Static symbols

 0001:00000ac0       _ProcessPulseWalPcm        10001ac0 f   winmm.obj
 0001:00000c60       @Convert15bits@4           10001c60 f   winmm.obj
 0001:00000cc0       _ProcessPulseAirPcm1       10001cc0 f   winmm.obj
 0001:00000fb0       @Convert20bits@4           10001fb0 f   winmm.obj
 0001:00001020       _ProcessPulseAirPcm2       10002020 f   winmm.obj
 0001:000012b0       _ProcessPulseJrPcm         100022b0 f   winmm.obj
 0001:00001580       _ProcessPulseFutabaPcm     10002580 f   winmm.obj
 0001:00001a00       _ProcessPulsePpm           10002a00 f   winmm.obj
 0001:00001ce0       _ProcessPulseFutabaPpm     10002ce0 f   winmm.obj
 0001:00001e60       _ProcessPulseJrPpm         10002e60 f   winmm.obj
 0001:000024f0       @ProcessData@4             100034f0 f   winmm.obj
 0001:00002670       _waveInProc@20             10003670 f   winmm.obj
 0001:00008fb5       __shift                    10009fb5 f   LIBCMT:cvt.obj
 0001:00008fd2       __cftoe2                   10009fd2 f   LIBCMT:cvt.obj
 0001:000090f0       __cftof2                   1000a0f0 f   LIBCMT:cvt.obj
 0001:00009477       _write_char                1000a477 f   LIBCMT:output.obj
 0001:000094aa       _write_multi_char          1000a4aa f   LIBCMT:output.obj
 0001:000094ce       _write_string              1000a4ce f   LIBCMT:output.obj
 0001:0000a029       $$$00003                   1000b029 f   LIBCMT:exsup3.obj
 0001:0000a4ed       __initterm                 1000b4ed f   LIBCMT:crt0dat.obj
 0001:0000a56f       _doexit                    1000b56f f   LIBCMT:crt0dat.obj
 0001:0000aa4d       _has_osfxsr_set            1000ba4d f   LIBCMT:cpu_disp.obj
 0001:0000baf8       _flsall                    1000caf8 f   LIBCMT:fflush.obj
 0001:0000c1f6       _parse_cmdline             1000d1f6 f   LIBCMT:stdargv.obj
 0001:0000d391       _report_failure            1000e391 f   LIBCMT:secchk.obj
 0001:0000d3d9       __abstract_cw              1000e3d9 f   LIBCMT:ieee87.obj
 0001:0000d46b       __hw_cw                    1000e46b f   LIBCMT:ieee87.obj
 0001:0000daf0       $$$00001                   1000eaf0 f   LIBCMT:exsup.obj
 0001:0000db10       $$$00003                   1000eb10 f   LIBCMT:exsup.obj
 0001:0000db10       __unwind_handler           1000eb10 f   LIBCMT:exsup.obj
 0001:0000db32       $$$00005                   1000eb32 f   LIBCMT:exsup.obj
 0001:0000db9a       $$$00007                   1000eb9a f   LIBCMT:exsup.obj
 0001:0000dbde       $$$00011                   1000ebde f   LIBCMT:exsup.obj
 0001:0000de07       __tsopen_lk                1000ee07 f   LIBCMT:open.obj
 0001:0000e143       ___crtInitCritSecNoSpinCount@8 1000f143 f   LIBCMT:initcrit.obj
 0001:0000e1de       _strncnt                   1000f1de f   LIBCMT:a_cmp.obj
 0001:0000e584       _CPtoLCID                  1000f584 f   LIBCMT:mbctype.obj
 0001:0000e5b3       _setSBCS                   1000f5b3 f   LIBCMT:mbctype.obj
 0001:0000e5dc       _setSBUpLow                1000f5dc f   LIBCMT:mbctype.obj
 0001:0000e7e6       __setmbcp_lk               1000f7e6 f   LIBCMT:mbctype.obj
 0001:0000eae8       _findenv                   1000fae8 f   LIBCMT:setenv.obj
 0001:0000eb35       _copy_environ              1000fb35 f   LIBCMT:setenv.obj
 0001:0000ed6c       __onexit_lk                1000fd6c f   LIBCMT:onexit.obj
 0001:0000fc5d       ___updatetlocinfo_lk       10010c5d f   LIBCMT:setlocal.obj
 0001:00012500       _$$$00001                  10013500 f   LIBCMT:strchr.obj

Line numbers for C:\Program Files\Microsoft Visual Studio .NET 2003\Vc7\lib\LIBCMT.lib(f:\vs70builds\6030\vc\crtbld\crt\src\strtime.c) segment .text

    37 0001:00008718    40 0001:00008721    42 0001:0000872b    52 0001:0000872f
    56 0001:0000873e    58 0001:00008764    60 0001:00008769    62 0001:00008772
    64 0001:0000877a    65 0001:0000877d

Line numbers for C:\Program Files\Microsoft Visual Studio .NET 2003\Vc7\lib\LIBCMT.lib(f:\vs70builds\6030\vc\crtbld\crt\src\strdate.c) segment .text

    37 0001:000086a8    41 0001:000086b1    44 0001:000086bb    52 0001:000086c9
    54 0001:000086ed    56 0001:000086f2    60 0001:000086fd    62 0001:0000870b
    64 0001:00008713    65 0001:00008716

Line numbers for C:\Program Files\Microsoft Visual Studio .NET 2003\Vc7\lib\LIBCMT.lib(F:\VS70Builds\6030\vc\crtbld\crt\src\Intel\STRSPN.ASM) segment .text

   191 0001:00012100   191 0001:00012100   198 0001:00012104   199 0001:00012106
   200 0001:00012107   201 0001:00012108   202 0001:00012109   203 0001:0001210a
   204 0001:0001210b   205 0001:0001210c   206 0001:0001210d   212 0001:0001210e
   216 0001:00012114   217 0001:00012116   218 0001:00012118   219 0001:0001211a
   220 0001:0001211d   221 0001:00012121   227 0001:00012123   236 0001:00012128
   237 0001:0001212a   238 0001:0001212c   239 0001:0001212e   240 0001:00012131
   247 0001:00012135   248 0001:00012137   257 0001:0001213a   259 0001:0001213d

Line numbers for C:\Program Files\Microsoft Visual Studio .NET 2003\Vc7\lib\LIBCMT.lib(F:\VS70Builds\6030\vc\crtbld\crt\src\intel\_strnicm.asm) segment .text

    69 0001:00012660    69 0001:00012660    75 0001:00012666    76 0001:00012669
    77 0001:0001266b    79 0001:0001266d    80 0001:00012670    82 0001:00012673
    83 0001:00012675    84 0001:00012677    89 0001:0001267c    91 0001:0001267e
    93 0001:00012680    95 0001:00012682    97 0001:00012684    98 0001:00012686
   100 0001:00012688   101 0001:0001268b   103 0001:0001268e   104 0001:00012690
   106 0001:00012692   107 0001:00012694   109 0001:00012696   112 0001:00012698
   113 0001:0001269a   115 0001:0001269c   116 0001:0001269e   118 0001:000126a0
   121 0001:000126a2   122 0001:000126a4   124 0001:000126a6   125 0001:000126a9
   128 0001:000126ab   129 0001:000126ad   130 0001:000126af   133 0001:000126b1
   134 0001:000126b6   135 0001:000126b8   138 0001:000126ba   140 0001:000126bc

Line numbers for C:\Program Files\Microsoft Visual Studio .NET 2003\Vc7\lib\LIBCMT.lib(F:\VS70Builds\6030\vc\crtbld\crt\src\intel\strncpy.asm) segment .text

    66 0001:000101a0    62 0001:000101a0    67 0001:000101a4    68 0001:000101a5
    69 0001:000101a7    71 0001:000101ad    72 0001:000101ae    73 0001:000101af
    74 0001:000101b1    75 0001:000101b5    76 0001:000101bb    77 0001:000101bf
    79 0001:000101c1    80 0001:000101c4    81 0001:000101ca    86 0001:000101cc
    87 0001:000101ce    88 0001:000101d1    89 0001:000101d3    90 0001:000101d6
    91 0001:000101d9    92 0001:000101db    93 0001:000101dd    95 0001:000101df
    96 0001:000101e5    97 0001:000101e7    98 0001:000101e9    99 0001:000101ec
   102 0001:000101ee   103 0001:000101f1   109 0001:000101f3   110 0001:000101f5
   111 0001:000101f8   112 0001:000101fa   113 0001:000101fd   114 0001:000101ff
   115 0001:00010201   116 0001:00010204   118 0001:00010206   119 0001:0001020a
   120 0001:0001020b   121 0001:0001020c   122 0001:0001020d   127 0001:0001020e
   128 0001:00010214   130 0001:00010216   131 0001:00010218   132 0001:0001021b
   133 0001:0001021e   134 0001:00010224   135 0001:0001022a   137 0001:0001022c
   138 0001:0001022e   139 0001:00010231   142 0001:00010233   143 0001:00010235
   145 0001:00010238   146 0001:0001023b   147 0001:0001023d   148 0001:0001023e
   150 0001:0001023f   151 0001:00010243   152 0001:00010244   157 0001:00010245
   158 0001:00010247   159 0001:0001024a   160 0001:0001024d   163 0001:0001024f
   164 0001:00010254   165 0001:00010256   166 0001:00010258   167 0001:0001025b
   168 0001:0001025d   169 0001:0001025f   170 0001:00010262   171 0001:00010267
   175 0001:00010269   176 0001:0001026b   177 0001:0001026d   178 0001:0001026f
   179 0001:00010271   180 0001:00010277   181 0001:00010279   182 0001:0001027f
   188 0001:00010281   189 0001:00010283   192 0001:00010285   193 0001:0001028b
   194 0001:0001028d   197 0001:0001028f   198 0001:00010295   199 0001:00010297
   202 0001:00010299   203 0001:0001029b   208 0001:0001029d   209 0001:000102a0
   210 0001:000102a2   211 0001:000102a5   214 0001:000102a7   216 0001:000102a9
   217 0001:000102ab   218 0001:000102ae   219 0001:000102b1   221 0001:000102b3
   222 0001:000102b6   224 0001:000102bc   225 0001:000102c0   226 0001:000102c1
   227 0001:000102c2   228 0001:000102c3

Line numbers for C:\Program Files\Microsoft Visual Studio .NET 2003\Vc7\lib\LIBCMT.lib(F:\VS70Builds\6030\vc\crtbld\crt\src\intel\strncmp.asm) segment .text

    62 0001:0000ee70    62 0001:0000ee70    69 0001:0000ee76    70 0001:0000ee79
    72 0001:0000ee7b    74 0001:0000ee7d    76 0001:0000ee80    77 0001:0000ee82
    78 0001:0000ee84    79 0001:0000ee86    80 0001:0000ee88    83 0001:0000ee8a
    84 0001:0000ee8c    85 0001:0000ee8f    86 0001:0000ee91    87 0001:0000ee94
    89 0001:0000ee96    90 0001:0000ee99    91 0001:0000ee9b    95 0001:0000ee9d
    98 0001:0000eea0   101 0001:0000eea2   103 0001:0000eea4

Line numbers for C:\Program Files\Microsoft Visual Studio .NET 2003\Vc7\lib\LIBCMT.lib(F:\VS70Builds\6030\vc\crtbld\crt\src\intel\strlen.asm) segment .text

    60 0001:0000a390    54 0001:0000a390    61 0001:0000a394    62 0001:0000a39a
    66 0001:0000a39c    67 0001:0000a39e    68 0001:0000a3a1    69 0001:0000a3a3
    70 0001:0000a3a5    71 0001:0000a3ab    73 0001:0000a3ad    78 0001:0000a3c0
    79 0001:0000a3c2    80 0001:0000a3c7    81 0001:0000a3c9    82 0001:0000a3cc
    83 0001:0000a3ce    84 0001:0000a3d1    85 0001:0000a3d6    87 0001:0000a3d8
    88 0001:0000a3db    89 0001:0000a3dd    90 0001:0000a3df    91 0001:0000a3e1
    92 0001:0000a3e3    93 0001:0000a3e8    94 0001:0000a3ea    95 0001:0000a3ef
    96 0001:0000a3f1   100 0001:0000a3f3   101 0001:0000a3f6   102 0001:0000a3fa
   103 0001:0000a3fc   105 0001:0000a3fd   106 0001:0000a400   107 0001:0000a404
   108 0001:0000a406   110 0001:0000a407   111 0001:0000a40a   112 0001:0000a40e
   113 0001:0000a410   115 0001:0000a411   116 0001:0000a414   117 0001:0000a418
   118 0001:0000a41a

Line numbers for C:\Program Files\Microsoft Visual Studio .NET 2003\Vc7\lib\LIBCMT.lib(F:\VS70Builds\6030\vc\crtbld\crt\src\intel\_stricmp.asm) segment .text

    61 0001:000125d0    61 0001:000125d0    68 0001:000125d6    69 0001:000125d9
    71 0001:000125dc    76 0001:000125e0    77 0001:000125e2    79 0001:000125e4
    80 0001:000125e6    81 0001:000125e9    82 0001:000125eb    84 0001:000125ee
    85 0001:000125f0    87 0001:000125f2    88 0001:000125f4    89 0001:000125f6
    90 0001:000125f8    91 0001:000125fb    92 0001:000125fd    94 0001:000125ff
    96 0001:00012601    97 0001:00012603    98 0001:00012605    99 0001:00012607
   100 0001:0001260a   101 0001:0001260c   103 0001:0001260e   104 0001:00012610
   107 0001:00012612   108 0001:00012614   110 0001:00012616   112 0001:00012619

Line numbers for C:\Program Files\Microsoft Visual Studio .NET 2003\Vc7\lib\LIBCMT.lib(f:\vs70builds\6030\vc\crtbld\crt\src\strdup.c) segment .text

    42 0001:000119c3    45 0001:000119c4    46 0001:000119ca    48 0001:000119cc
    49 0001:000119df    52 0001:000119e9    51 0001:000119ea    52 0001:000119ed

Line numbers for C:\Program Files\Microsoft Visual Studio .NET 2003\Vc7\lib\LIBCMT.lib(F:\VS70Builds\6030\vc\crtbld\crt\src\Intel\STRSPN.ASM) segment .text

   191 0001:00011f60   191 0001:00011f60   198 0001:00011f64   199 0001:00011f66
   200 0001:00011f67   201 0001:00011f68   202 0001:00011f69   203 0001:00011f6a
   204 0001:00011f6b   205 0001:00011f6c   206 0001:00011f6d   212 0001:00011f6e
   216 0001:00011f74   217 0001:00011f76   218 0001:00011f78   219 0001:00011f7a
   220 0001:00011f7d   221 0001:00011f81   227 0001:00011f83   229 0001:00011f86
   234 0001:00011f8c   236 0001:00011f8f   237 0001:00011f91   238 0001:00011f93
   239 0001:00011f95   240 0001:00011f98   245 0001:00011f9c   255 0001:00011f9e
   257 0001:00011fa0   259 0001:00011fa3

Line numbers for C:\Program Files\Microsoft Visual Studio .NET 2003\Vc7\lib\LIBCMT.lib(F:\VS70Builds\6030\vc\crtbld\crt\src\intel\strcmp.asm) segment .text

    69 0001:00011fb0    65 0001:00011fb0    70 0001:00011fb4    72 0001:00011fb8
    73 0001:00011fbe    77 0001:00011fc0    79 0001:00011fc2    80 0001:00011fc4
    81 0001:00011fc6    82 0001:00011fc8    83 0001:00011fca    84 0001:00011fcd
    85 0001:00011fcf    86 0001:00011fd1    88 0001:00011fd3    90 0001:00011fd6
    91 0001:00011fd9    92 0001:00011fdb    93 0001:00011fdd    94 0001:00011fdf
    95 0001:00011fe2    96 0001:00011fe4    97 0001:00011fe7    98 0001:00011fea
    99 0001:00011fec   103 0001:00011ff0   104 0001:00011ff2   111 0001:00011ff4
   112 0001:00011ff6   113 0001:00011ff8   114 0001:00011ffb   118 0001:00011ffc
   119 0001:00012002   121 0001:00012004   122 0001:00012006   123 0001:00012009
   124 0001:0001200b   125 0001:0001200d   126 0001:00012010   127 0001:00012012
   129 0001:00012014   130 0001:0001201a   135 0001:0001201c   136 0001:0001201f
   137 0001:00012022   138 0001:00012024   139 0001:00012026   140 0001:00012028
   141 0001:0001202a   142 0001:0001202d   143 0001:0001202f   144 0001:00012031
   145 0001:00012033   146 0001:00012036

Line numbers for C:\Program Files\Microsoft Visual Studio .NET 2003\Vc7\lib\LIBCMT.lib(F:\VS70Builds\6030\vc\crtbld\crt\src\intel\strchr.asm) segment .text

    54 0001:00012500    54 0001:00012500    55 0001:00012503    56 0001:00012504
    60 0001:00012510    64 0001:00012510    65 0001:00012512    69 0001:00012516
    70 0001:00012517    71 0001:00012519    72 0001:0001251c    73 0001:00012520
    74 0001:00012526    77 0001:00012528    78 0001:0001252a    79 0001:0001252d
    80 0001:0001252f    81 0001:00012531    82 0001:00012533    83 0001:00012535
    84 0001:0001253b    87 0001:0001253d    88 0001:0001253f    89 0001:00012540
    90 0001:00012542    91 0001:00012545    92 0001:00012546    97 0001:00012548
    98 0001:0001254a   100 0001:0001254f   101 0001:00012551   103 0001:00012553
   104 0001:00012555   106 0001:00012557   107 0001:00012559   109 0001:0001255c
   110 0001:0001255f   112 0001:00012561   113 0001:00012563   115 0001:00012566
   116 0001:0001256c   120 0001:0001256e   121 0001:00012573   123 0001:00012575
   124 0001:0001257a   126 0001:0001257c   127 0001:00012582   130 0001:00012584
   131 0001:00012585   133 0001:00012586   134 0001:00012587   135 0001:00012589
   138 0001:0001258a   139 0001:0001258d   140 0001:0001258f   141 0001:00012591
   142 0001:00012593   143 0001:00012595   144 0001:00012597   145 0001:00012599
   146 0001:0001259b   147 0001:0001259d   148 0001:000125a0   149 0001:000125a2
   150 0001:000125a4   151 0001:000125a6   152 0001:000125a8   153 0001:000125aa
   154 0001:000125ac   155 0001:000125ae   156 0001:000125b0   159 0001:000125b2
   160 0001:000125b3   161 0001:000125b4   162 0001:000125b7   163 0001:000125b8
   166 0001:000125b9   167 0001:000125bc   168 0001:000125bd   169 0001:000125be
   170 0001:000125bf   173 0001:000125c0   174 0001:000125c3   175 0001:000125c4
   176 0001:000125c5   177 0001:000125c6   180 0001:000125c7   181 0001:000125ca
   182 0001:000125cb   183 0001:000125cc   184 0001:000125cd

Line numbers for C:\Program Files\Microsoft Visual Studio .NET 2003\Vc7\lib\LIBCMT.lib(F:\VS70Builds\6030\vc\crtbld\crt\src\intel\strcat.asm) segment .text

    89 0001:0000d0f0    88 0001:0000d0f0    90 0001:0000d0f1    91 0001:0000d0f5
    97 0001:0000d100   101 0001:0000d100   102 0001:0000d104   103 0001:0000d105
   104 0001:0000d10b   107 0001:0000d10d   108 0001:0000d10f   109 0001:0000d112
   110 0001:0000d114   111 0001:0000d116   112 0001:0000d11c   117 0001:0000d120
   118 0001:0000d122   119 0001:0000d127   120 0001:0000d129   121 0001:0000d12c
   122 0001:0000d12e   123 0001:0000d131   124 0001:0000d136   126 0001:0000d138
   127 0001:0000d13b   128 0001:0000d13d   129 0001:0000d13f   130 0001:0000d141
   131 0001:0000d143   132 0001:0000d148   133 0001:0000d14a   134 0001:0000d14f
   135 0001:0000d151   139 0001:0000d153   140 0001:0000d156   142 0001:0000d158
   143 0001:0000d15b   145 0001:0000d15d   146 0001:0000d160   148 0001:0000d162
   153 0001:0000d165   154 0001:0000d169   155 0001:0000d16f   158 0001:0000d171
   159 0001:0000d173   160 0001:0000d176   161 0001:0000d178   162 0001:0000d17a
   163 0001:0000d17c   164 0001:0000d17f   165 0001:0000d185   166 0001:0000d187
   169 0001:0000d189   170 0001:0000d18b   172 0001:0000d18e   173 0001:0000d193
   175 0001:0000d195   176 0001:0000d197   178 0001:0000d19a   179 0001:0000d19c
   181 0001:0000d19e   182 0001:0000d1a1   184 0001:0000d1a6   187 0001:0000d1a8
   188 0001:0000d1aa   189 0001:0000d1ac   190 0001:0000d1ae   191 0001:0000d1b0
   192 0001:0000d1b6   193 0001:0000d1b8   194 0001:0000d1be   195 0001:0000d1c0
   198 0001:0000d1c2   199 0001:0000d1c4   200 0001:0000d1c8   201 0001:0000d1c9
   203 0001:0000d1ca   204 0001:0000d1cd   205 0001:0000d1d1   206 0001:0000d1d5
   207 0001:0000d1d6   209 0001:0000d1d7   210 0001:0000d1da   211 0001:0000d1de
   212 0001:0000d1df   214 0001:0000d1e0   215 0001:0000d1e2   216 0001:0000d1e6
   217 0001:0000d1e7

Line numbers for C:\Program Files\Microsoft Visual Studio .NET 2003\Vc7\lib\LIBCMT.lib(F:\VS70Builds\6030\vc\crtbld\crt\src\intel\memset.asm) segment .text

    60 0001:0000ad30    56 0001:0000ad30    61 0001:0000ad34    63 0001:0000ad38
    64 0001:0000ad3a    66 0001:0000ad3c    67 0001:0000ad3e    72 0001:0000ad42
    73 0001:0000ad43    75 0001:0000ad45    76 0001:0000ad48    78 0001:0000ad4a
    79 0001:0000ad4c    80 0001:0000ad4f    82 0001:0000ad51    84 0001:0000ad53
    85 0001:0000ad55    86 0001:0000ad58    87 0001:0000ad5b    91 0001:0000ad5d
    92 0001:0000ad5f    94 0001:0000ad62    96 0001:0000ad64    98 0001:0000ad66
   100 0001:0000ad69   103 0001:0000ad6b   104 0001:0000ad6d   105 0001:0000ad70
   106 0001:0000ad73   108 0001:0000ad75   110 0001:0000ad77   111 0001:0000ad79
   115 0001:0000ad7b   116 0001:0000ad7d   118 0001:0000ad80   119 0001:0000ad83
   123 0001:0000ad85   124 0001:0000ad89   126 0001:0000ad8a   129 0001:0000ad8b
   131 0001:0000ad8f

Line numbers for C:\Program Files\Microsoft Visual Studio .NET 2003\Vc7\lib\LIBCMT.lib(F:\VS70Builds\6030\vc\crtbld\crt\src\Intel\MEMCPY.ASM) segment .text

   109 0001:0000cdb0   109 0001:0000cdb0   121 0001:0000cdb3   122 0001:0000cdb4
   124 0001:0000cdb5   125 0001:0000cdb8   127 0001:0000cdbb   137 0001:0000cdbe
   139 0001:0000cdc0   140 0001:0000cdc2   142 0001:0000cdc4   143 0001:0000cdc6
   145 0001:0000cdc8   146 0001:0000cdca   162 0001:0000cdd0   163 0001:0000cdd6
   165 0001:0000cdd8   166 0001:0000cddb   168 0001:0000cdde   169 0001:0000cde1
   171 0001:0000cde3   173 0001:0000cde5   191 0001:0000cdec   192 0001:0000cdee
   194 0001:0000cdf3   195 0001:0000cdf6   197 0001:0000cdf8   198 0001:0000cdfb
   200 0001:0000cdfd   204 0001:0000ce04   208 0001:0000ce0c   215 0001:0000ce20
   216 0001:0000ce22   218 0001:0000ce24   219 0001:0000ce26   221 0001:0000ce29
   222 0001:0000ce2c   224 0001:0000ce2f   225 0001:0000ce32   227 0001:0000ce35
   228 0001:0000ce38   230 0001:0000ce3b   231 0001:0000ce3e   233 0001:0000ce40
   235 0001:0000ce42   239 0001:0000ce4c   240 0001:0000ce4e   242 0001:0000ce50
   243 0001:0000ce52   245 0001:0000ce55   246 0001:0000ce58   248 0001:0000ce5b
   249 0001:0000ce5e   251 0001:0000ce61   252 0001:0000ce64   254 0001:0000ce66
   256 0001:0000ce68   260 0001:0000ce70   261 0001:0000ce72   263 0001:0000ce74
   264 0001:0000ce76   266 0001:0000ce79   267 0001:0000ce7c   269 0001:0000ce7f
   270 0001:0000ce82   272 0001:0000ce84   274 0001:0000ce86   281 0001:0000ceb0
   283 0001:0000ceb4   285 0001:0000ceb8   287 0001:0000cebc   289 0001:0000cec0
   291 0001:0000cec4   293 0001:0000cec8   295 0001:0000cecc   297 0001:0000ced0
   299 0001:0000ced4   301 0001:0000ced8   303 0001:0000cedc   305 0001:0000cee0
   307 0001:0000cee4   309 0001:0000cee8   311 0001:0000ceef   312 0001:0000cef1
   314 0001:0000cef3   323 0001:0000cf0c   324 0001:0000cf0f   325 0001:0000cf10
   327 0001:0000cf11   331 0001:0000cf14   333 0001:0000cf16   334 0001:0000cf18
   335 0001:0000cf1b   336 0001:0000cf1c   337 0001:0000cf1d   341 0001:0000cf20
   343 0001:0000cf22   344 0001:0000cf24   345 0001:0000cf27   346 0001:0000cf2a
   347 0001:0000cf2d   348 0001:0000cf2e   349 0001:0000cf2f   353 0001:0000cf34
   355 0001:0000cf36   356 0001:0000cf38   357 0001:0000cf3b   358 0001:0000cf3e
   359 0001:0000cf41   360 0001:0000cf44   361 0001:0000cf47   362 0001:0000cf48
   363 0001:0000cf49   374 0001:0000cf4c   375 0001:0000cf50   380 0001:0000cf54
   381 0001:0000cf5a   383 0001:0000cf5c   384 0001:0000cf5f   386 0001:0000cf62
   387 0001:0000cf65   389 0001:0000cf67   390 0001:0000cf68   391 0001:0000cf6a
   393 0001:0000cf6b   397 0001:0000cf74   400 0001:0000cf76   405 0001:0000cf80
   406 0001:0000cf82   408 0001:0000cf87   409 0001:0000cf8a   411 0001:0000cf8c
   412 0001:0000cf8f   414 0001:0000cf91   418 0001:0000cf98   425 0001:0000cfac
   426 0001:0000cfaf   428 0001:0000cfb1   429 0001:0000cfb4   431 0001:0000cfb7
   432 0001:0000cfba   434 0001:0000cfbd   435 0001:0000cfc0   437 0001:0000cfc2
   438 0001:0000cfc3   439 0001:0000cfc5   441 0001:0000cfc6   445 0001:0000cfd0
   446 0001:0000cfd3   448 0001:0000cfd5   449 0001:0000cfd8   451 0001:0000cfdb
   452 0001:0000cfde   454 0001:0000cfe1   455 0001:0000cfe4   457 0001:0000cfe7
   458 0001:0000cfea   460 0001:0000cfec   461 0001:0000cfed   462 0001:0000cfef
   464 0001:0000cff0   468 0001:0000cff8   469 0001:0000cffb   471 0001:0000cffd
   472 0001:0000d000   474 0001:0000d003   475 0001:0000d006   477 0001:0000d009
   478 0001:0000d00c   480 0001:0000d00f   481 0001:0000d012   483 0001:0000d015
   484 0001:0000d018   486 0001:0000d01e   487 0001:0000d01f   488 0001:0000d021
   490 0001:0000d022   499 0001:0000d04c   501 0001:0000d050   503 0001:0000d054
   505 0001:0000d058   507 0001:0000d05c   509 0001:0000d060   511 0001:0000d064
   513 0001:0000d068   515 0001:0000d06c   517 0001:0000d070   519 0001:0000d074
   521 0001:0000d078   523 0001:0000d07c   525 0001:0000d080   527 0001:0000d084
   529 0001:0000d08b   530 0001:0000d08d   532 0001:0000d08f   541 0001:0000d0a8
   543 0001:0000d0ab   544 0001:0000d0ac   545 0001:0000d0ad   549 0001:0000d0b0
   551 0001:0000d0b3   552 0001:0000d0b6   553 0001:0000d0b9   554 0001:0000d0ba
   555 0001:0000d0bb   559 0001:0000d0c0   561 0001:0000d0c3   562 0001:0000d0c6
   563 0001:0000d0c9   564 0001:0000d0cc   565 0001:0000d0cf   566 0001:0000d0d0
   567 0001:0000d0d1   571 0001:0000d0d4   573 0001:0000d0d7   574 0001:0000d0da
   575 0001:0000d0dd   576 0001:0000d0e0   577 0001:0000d0e3   578 0001:0000d0e6
   579 0001:0000d0e9   580 0001:0000d0ea   581 0001:0000d0eb

Line numbers for C:\Program Files\Microsoft Visual Studio .NET 2003\Vc7\lib\LIBCMT.lib(F:\VS70Builds\6030\vc\crtbld\crt\src\intel\memcmp.asm) segment .text

    64 0001:00012040    60 0001:00012040    65 0001:00012044    66 0001:00012046
    68 0001:00012048    69 0001:0001204c    70 0001:0001204d    71 0001:0001204e
    72 0001:00012050    75 0001:00012054    76 0001:00012056    77 0001:00012059
    84 0001:0001205b    85 0001:00012060    87 0001:00012062    88 0001:00012064
    89 0001:00012066    90 0001:00012068    91 0001:0001206b    92 0001:0001206e
    93 0001:00012071    96 0001:00012073    97 0001:00012075    98 0001:00012077
    99 0001:00012079   101 0001:0001207b   102 0001:0001207e   103 0001:00012081
   104 0001:00012083   106 0001:00012085   107 0001:00012088   109 0001:0001208b
   110 0001:0001208e   112 0001:00012090   113 0001:00012091   115 0001:00012092
   119 0001:00012093   120 0001:00012095   122 0001:00012098   123 0001:0001209b
   125 0001:0001209d   127 0001:0001209f   130 0001:000120a1   131 0001:000120a4
   132 0001:000120a7   133 0001:000120a9   134 0001:000120ab   135 0001:000120ad
   136 0001:000120af   137 0001:000120b2   138 0001:000120b5   139 0001:000120b7
   140 0001:000120b9   144 0001:000120bb   147 0001:000120c0   148 0001:000120c2
   149 0001:000120c3   150 0001:000120c6   151 0001:000120c7   157 0001:000120c8
   159 0001:000120ca   160 0001:000120cc   161 0001:000120ce   162 0001:000120d0
   163 0001:000120d2   164 0001:000120d4   165 0001:000120d7   166 0001:000120d9
   167 0001:000120db   168 0001:000120dd   169 0001:000120e0   170 0001:000120e2
   171 0001:000120e8   172 0001:000120ee   173 0001:000120f0   174 0001:000120f2
   176 0001:000120f5   177 0001:000120f6   178 0001:000120f7

Line numbers for C:\Program Files\Microsoft Visual Studio .NET 2003\Vc7\lib\LIBCMT.lib(F:\VS70Builds\6030\vc\crtbld\crt\src\intel\memcpy.asm) segment .text

   109 0001:0000fd60   109 0001:0000fd60   121 0001:0000fd63   122 0001:0000fd64
   124 0001:0000fd65   125 0001:0000fd68   127 0001:0000fd6b   137 0001:0000fd6e
   139 0001:0000fd70   140 0001:0000fd72   142 0001:0000fd74   143 0001:0000fd76
   145 0001:0000fd78   146 0001:0000fd7a   162 0001:0000fd80   163 0001:0000fd86
   165 0001:0000fd88   166 0001:0000fd8b   168 0001:0000fd8e   169 0001:0000fd91
   171 0001:0000fd93   173 0001:0000fd95   191 0001:0000fd9c   192 0001:0000fd9e
   194 0001:0000fda3   195 0001:0000fda6   197 0001:0000fda8   198 0001:0000fdab
   200 0001:0000fdad   204 0001:0000fdb4   208 0001:0000fdbc   215 0001:0000fdd0
   216 0001:0000fdd2   218 0001:0000fdd4   219 0001:0000fdd6   221 0001:0000fdd9
   222 0001:0000fddc   224 0001:0000fddf   225 0001:0000fde2   227 0001:0000fde5
   228 0001:0000fde8   230 0001:0000fdeb   231 0001:0000fdee   233 0001:0000fdf0
   235 0001:0000fdf2   239 0001:0000fdfc   240 0001:0000fdfe   242 0001:0000fe00
   243 0001:0000fe02   245 0001:0000fe05   246 0001:0000fe08   248 0001:0000fe0b
   249 0001:0000fe0e   251 0001:0000fe11   252 0001:0000fe14   254 0001:0000fe16
   256 0001:0000fe18   260 0001:0000fe20   261 0001:0000fe22   263 0001:0000fe24
   264 0001:0000fe26   266 0001:0000fe29   267 0001:0000fe2c   269 0001:0000fe2f
   270 0001:0000fe32   272 0001:0000fe34   274 0001:0000fe36   281 0001:0000fe60
   283 0001:0000fe64   285 0001:0000fe68   287 0001:0000fe6c   289 0001:0000fe70
   291 0001:0000fe74   293 0001:0000fe78   295 0001:0000fe7c   297 0001:0000fe80
   299 0001:0000fe84   301 0001:0000fe88   303 0001:0000fe8c   305 0001:0000fe90
   307 0001:0000fe94   309 0001:0000fe98   311 0001:0000fe9f   312 0001:0000fea1
   314 0001:0000fea3   323 0001:0000febc   324 0001:0000febf   325 0001:0000fec0
   327 0001:0000fec1   331 0001:0000fec4   333 0001:0000fec6   334 0001:0000fec8
   335 0001:0000fecb   336 0001:0000fecc   337 0001:0000fecd   341 0001:0000fed0
   343 0001:0000fed2   344 0001:0000fed4   345 0001:0000fed7   346 0001:0000feda
   347 0001:0000fedd   348 0001:0000fede   349 0001:0000fedf   353 0001:0000fee4
   355 0001:0000fee6   356 0001:0000fee8   357 0001:0000feeb   358 0001:0000feee
   359 0001:0000fef1   360 0001:0000fef4   361 0001:0000fef7   362 0001:0000fef8
   363 0001:0000fef9   374 0001:0000fefc   375 0001:0000ff00   380 0001:0000ff04
   381 0001:0000ff0a   383 0001:0000ff0c   384 0001:0000ff0f   386 0001:0000ff12
   387 0001:0000ff15   389 0001:0000ff17   390 0001:0000ff18   391 0001:0000ff1a
   393 0001:0000ff1b   397 0001:0000ff24   400 0001:0000ff26   405 0001:0000ff30
   406 0001:0000ff32   408 0001:0000ff37   409 0001:0000ff3a   411 0001:0000ff3c
   412 0001:0000ff3f   414 0001:0000ff41   418 0001:0000ff48   425 0001:0000ff5c
   426 0001:0000ff5f   428 0001:0000ff61   429 0001:0000ff64   431 0001:0000ff67
   432 0001:0000ff6a   434 0001:0000ff6d   435 0001:0000ff70   437 0001:0000ff72
   438 0001:0000ff73   439 0001:0000ff75   441 0001:0000ff76   445 0001:0000ff80
   446 0001:0000ff83   448 0001:0000ff85   449 0001:0000ff88   451 0001:0000ff8b
   452 0001:0000ff8e   454 0001:0000ff91   455 0001:0000ff94   457 0001:0000ff97
   458 0001:0000ff9a   460 0001:0000ff9c   461 0001:0000ff9d   462 0001:0000ff9f
   464 0001:0000ffa0   468 0001:0000ffa8   469 0001:0000ffab   471 0001:0000ffad
   472 0001:0000ffb0   474 0001:0000ffb3   475 0001:0000ffb6   477 0001:0000ffb9
   478 0001:0000ffbc   480 0001:0000ffbf   481 0001:0000ffc2   483 0001:0000ffc5
   484 0001:0000ffc8   486 0001:0000ffce   487 0001:0000ffcf   488 0001:0000ffd1
   490 0001:0000ffd2   499 0001:0000fffc   501 0001:00010000   503 0001:00010004
   505 0001:00010008   507 0001:0001000c   509 0001:00010010   511 0001:00010014
   513 0001:00010018   515 0001:0001001c   517 0001:00010020   519 0001:00010024
   521 0001:00010028   523 0001:0001002c   525 0001:00010030   527 0001:00010034
   529 0001:0001003b   530 0001:0001003d   532 0001:0001003f   541 0001:00010058
   543 0001:0001005b   544 0001:0001005c   545 0001:0001005d   549 0001:00010060
   551 0001:00010063   552 0001:00010066   553 0001:00010069   554 0001:0001006a
   555 0001:0001006b   559 0001:00010070   561 0001:00010073   562 0001:00010076
   563 0001:00010079   564 0001:0001007c   565 0001:0001007f   566 0001:00010080
   567 0001:00010081   571 0001:00010084   573 0001:00010087   574 0001:0001008a
   575 0001:0001008d   576 0001:00010090   577 0001:00010093   578 0001:00010096
   579 0001:00010099   580 0001:0001009a   581 0001:0001009b

Line numbers for C:\Program Files\Microsoft Visual Studio .NET 2003\Vc7\lib\LIBCMT.lib(f:\vs70builds\6030\vc\crtbld\crt\src\stream.c) segment .text

    45 0001:0000a216    46 0001:0000a222    51 0001:0000a229    52 0001:0000a231
    59 0001:0000a234    61 0001:0000a245    65 0001:0000a251    73 0001:0000a257
    74 0001:0000a261    77 0001:0000a273    79 0001:0000a283    80 0001:0000a291
    59 0001:0000a29a    84 0001:0000a29d    85 0001:0000a29f    93 0001:0000a2a1
    97 0001:0000a2c1   103 0001:0000a2d3    97 0001:0000a2d8   103 0001:0000a2da
   104 0001:0000a2e3   105 0001:0000a2eb   108 0001:0000a2ed   110 0001:0000a2fa
   120 0001:0000a305   121 0001:0000a309   122 0001:0000a30f   123 0001:0000a317
   133 0001:0000a324   134 0001:0000a326   128 0001:0000a32c   129 0001:0000a32f

Line numbers for C:\Program Files\Microsoft Visual Studio .NET 2003\Vc7\lib\LIBCMT.lib(f:\vs70builds\6030\vc\crtbld\crt\src\sprintf.c) segment .text

    85 0001:000085f2   102 0001:000085f9   104 0001:000085fd   106 0001:00008624
   107 0001:0000862a   109 0001:00008644   110 0001:00008648

Line numbers for C:\Program Files\Microsoft Visual Studio .NET 2003\Vc7\lib\LIBCMT.lib(f:\vs70builds\6030\vc\crtbld\crt\src\output.c) segment .text

  1127 0001:00009477  1126 0001:00009477  1130 0001:00009481  1135 0001:00009483
  1137 0001:000094a4  1140 0001:000094a6  1139 0001:000094a7  1140 0001:000094a9
  1191 0001:000094aa  1194 0001:000094b0  1193 0001:000094b2  1194 0001:000094c0
  1192 0001:000094c5  1197 0001:000094cc  1251 0001:000094ce  1252 0001:000094ce
  1254 0001:000094e0  1255 0001:000094e6  1258 0001:000094e8  1259 0001:000094f6
  1257 0001:000094fb  1262 0001:00009504   346 0001:00009505   954 0001:0000952c
   383 0001:00009557   384 0001:00009568   385 0001:00009583   388 0001:0000958b
   410 0001:000095a3   412 0001:000095a5   413 0001:000095b8   414 0001:000095bb
   418 0001:000095c0   432 0001:000095df   433 0001:000095e3   420 0001:000095e8
   421 0001:000095ec   423 0001:000095f1   424 0001:000095f5   429 0001:000095fa
   430 0001:000095fe   426 0001:00009603   435 0001:00009607   439 0001:0000960c
   441 0001:00009611   442 0001:0000961b   444 0001:00009626   445 0001:0000962a
   448 0001:0000962d   450 0001:00009632   452 0001:00009642   457 0001:00009647
   458 0001:0000964b   462 0001:00009650   464 0001:00009655   465 0001:0000965f
   466 0001:0000966a   468 0001:0000966e   470 0001:00009673   472 0001:00009683
   476 0001:00009688   538 0001:000096a0   539 0001:000096a4   478 0001:000096a9
   479 0001:000096ad   533 0001:000096b2   534 0001:000096b6   503 0001:000096bb
   505 0001:000096c7   506 0001:000096c9   508 0001:000096d0   510 0001:000096df
   511 0001:000096e1   513 0001:000096e8   518 0001:000096ed   527 0001:0000971d
   399 0001:00009721   400 0001:00009735   401 0001:00009742   405 0001:00009748
   406 0001:00009755   554 0001:0000975a   644 0001:00009798   645 0001:000097a0
   667 0001:000097a4   668 0001:000097b1   694 0001:000097b5   695 0001:000097ca
   696 0001:000097ce   698 0001:000097d6   746 0001:000097e5   747 0001:000097ec
   754 0001:000097ef   758 0001:000097f3   759 0001:00009803   760 0001:0000980a
   557 0001:0000980f   561 0001:00009817   590 0001:0000981b   592 0001:0000982e
   595 0001:00009838   596 0001:00009841   597 0001:00009848   554 0001:0000984a
   814 0001:0000985b   815 0001:0000985f   883 0001:00009866   884 0001:00009876
   885 0001:00009884   603 0001:00009889   604 0001:0000988f   607 0001:00009896
   610 0001:0000989c   623 0001:000098a1   624 0001:000098ab   629 0001:000098b6
   631 0001:000098ba   632 0001:000098c7   633 0001:000098ce   634 0001:000098d3
   636 0001:000098d7   626 0001:000098dc   627 0001:000098e4   640 0001:000098e5
   760 0001:000098ea   761 0001:000098f1   762 0001:000098f8   763 0001:00009904
   765 0001:00009907   768 0001:00009911   769 0001:0000991f   770 0001:00009927
   771 0001:0000992a   773 0001:0000992e   787 0001:00009931   789 0001:00009936
   793 0001:0000995a   794 0001:0000996e   797 0001:00009976   798 0001:0000997f
   802 0001:00009987   803 0001:0000998c   804 0001:00009990   807 0001:00009994
   809 0001:0000999b   554 0001:000099a0   842 0001:000099d6   699 0001:000099df
   700 0001:000099e6   699 0001:000099e8   701 0001:000099ec   703 0001:000099f1
   704 0001:000099f6   705 0001:000099fa   706 0001:00009a02   707 0001:00009a07
   708 0001:00009a0d   707 0001:00009a0e   709 0001:00009a12   714 0001:00009a15
   827 0001:00009a1a   837 0001:00009a21   847 0001:00009a24   850 0001:00009a35
   851 0001:00009a41   853 0001:00009a48   858 0001:00009a4d   860 0001:00009a5e
   723 0001:00009a67   733 0001:00009a6b   734 0001:00009a77   735 0001:00009a7e
   737 0001:00009a80   739 0001:00009a85   741 0001:00009a8c   897 0001:00009a91
   896 0001:00009a9d   897 0001:00009aa2   898 0001:00009aa7   899 0001:00009aa9
   900 0001:00009aad   903 0001:00009aaf   904 0001:00009ab2   905 0001:00009ab5
   906 0001:00009ab7   910 0001:00009ab9   911 0001:00009ac8   912 0001:00009acf
   918 0001:00009ad3   924 0001:00009adc   930 0001:00009ade   931 0001:00009ae4
   932 0001:00009aeb   933 0001:00009aed   934 0001:00009af1   935 0001:00009afb
   939 0001:00009afe   940 0001:00009b04   945 0001:00009b08   947 0001:00009b0e
   948 0001:00009b1e   950 0001:00009b2e   952 0001:00009b3a   954 0001:00009b3d
   955 0001:00009b40   957 0001:00009b42   958 0001:00009b4a   962 0001:00009b4b
   963 0001:00009b62   964 0001:00009b6b   975 0001:00009b6f   978 0001:00009b79
   979 0001:00009b81   981 0001:00009b86   984 0001:00009b8a   986 0001:00009b91
   989 0001:00009b95   991 0001:00009b9c   992 0001:00009ba0   998 0001:00009ba7
  1002 0001:00009bb0  1004 0001:00009bb5  1008 0001:00009bc6  1010 0001:00009bd7
  1012 0001:00009be2  1017 0001:00009bf1  1023 0001:00009bfd  1024 0001:00009c06
  1025 0001:00009c09  1026 0001:00009c1e  1028 0001:00009c23  1030 0001:00009c3c
  1031 0001:00009c3e  1052 0001:00009c4d  1054 0001:00009c53  1060 0001:00009c64
  1061 0001:00009c6a  1062 0001:00009c72  1070 0001:00009c86

Line numbers for C:\Program Files\Microsoft Visual Studio .NET 2003\Vc7\lib\LIBCMT.lib(f:\vs70builds\6030\vc\crtbld\crt\src\fprintf.c) segment .text

    48 0001:0000864a    60 0001:00008656    63 0001:0000865c    64 0001:00008663
    67 0001:00008667    68 0001:00008670    69 0001:00008680    78 0001:00008695
    79 0001:00008698    74 0001:0000869e

Line numbers for C:\Program Files\Microsoft Visual Studio .NET 2003\Vc7\lib\LIBCMT.lib(f:\vs70builds\6030\vc\crtbld\crt\src\fopen.c) segment .text

    50 0001:0000877f    62 0001:0000878b    63 0001:00008797    64 0001:000087a2
    68 0001:000087a6    75 0001:000087aa    85 0001:000087c8    86 0001:000087cb
    81 0001:000087d1   116 0001:000087db   115 0001:000087db   117 0001:000087ed

Line numbers for C:\Program Files\Microsoft Visual Studio .NET 2003\Vc7\lib\LIBCMT.lib(f:\vs70builds\6030\vc\crtbld\crt\src\fflush.c) segment .text

   151 0001:0000ba6d   161 0001:0000ba6f   163 0001:0000ba94   167 0001:0000baa5
   168 0001:0000baac   170 0001:0000bab2   171 0001:0000bab4   172 0001:0000bab8
   176 0001:0000babc   177 0001:0000babf   179 0001:0000bac6   180 0001:0000bac9
    99 0001:0000baca   115 0001:0000bacb   117 0001:0000bada   125 0001:0000bade
   121 0001:0000badf   122 0001:0000bae5   125 0001:0000baf3   124 0001:0000baf4
   125 0001:0000baf7   237 0001:0000baf8   239 0001:0000bb04   240 0001:0000bb09
   243 0001:0000bb0c   244 0001:0000bb14   247 0001:0000bb17   249 0001:0000bb28
   258 0001:0000bb3a   260 0001:0000bb43   266 0001:0000bb49   269 0001:0000bb59
   275 0001:0000bb5e   279 0001:0000bb6a   281 0001:0000bb6d   282 0001:0000bb6f
   288 0001:0000bb79   289 0001:0000bb85   247 0001:0000bb90   295 0001:0000bb93
   296 0001:0000bb98   247 0001:0000bba9   309 0001:0000bbb2   310 0001:0000bbb6
   309 0001:0000bbb9   312 0001:0000bbbb   313 0001:0000bbbe   305 0001:0000bbc4
   203 0001:0000bbcd   202 0001:0000bbcd   204 0001:0000bbd5

Line numbers for C:\Program Files\Microsoft Visual Studio .NET 2003\Vc7\lib\LIBCMT.lib(f:\vs70builds\6030\vc\crtbld\crt\src\fclose.c) segment .text

    87 0001:00008ae8   115 0001:00008ae9   124 0001:00008af7   125 0001:00008afd
   127 0001:00008b05   128 0001:00008b14   130 0001:00008b17   139 0001:00008b20
   140 0001:00008b26   145 0001:00008b2b   146 0001:00008b2f   147 0001:00008b33
    45 0001:00008b34    46 0001:00008b40    51 0001:00008b44    52 0001:00008b4d
    65 0001:00008b51    66 0001:00008b54    56 0001:00008b5a    57 0001:00008b61
    58 0001:00008b65    60 0001:00008b7a    61 0001:00008b7d

Line numbers for C:\Program Files\Microsoft Visual Studio .NET 2003\Vc7\lib\LIBCMT.lib(f:\vs70builds\6030\vc\crtbld\crt\src\closeall.c) segment .text

    43 0001:0000da55    44 0001:0000da61    48 0001:0000da66    49 0001:0000da6e
    52 0001:0000da71    54 0001:0000da7f    59 0001:0000da90    60 0001:0000daa2
    65 0001:0000daa5    68 0001:0000daaa    70 0001:0000dabc    71 0001:0000daca
    52 0001:0000dad2    83 0001:0000dade    84 0001:0000dae1    79 0001:0000dae7

Line numbers for C:\Program Files\Microsoft Visual Studio .NET 2003\Vc7\lib\LIBCMT.lib(f:\vs70builds\6030\vc\crtbld\crt\src\_sftbuf.c) segment .text

    61 0001:00009e22    71 0001:00009e23    72 0001:00009e32    75 0001:00009e34
    76 0001:00009e3c    77 0001:00009e3e    78 0001:00009e48    84 0001:00009e4b
    88 0001:00009e51    89 0001:00009e57    93 0001:00009e5b    95 0001:00009e79
    96 0001:00009e7c    98 0001:00009e8a   100 0001:00009e8c   101 0001:00009e93
   104 0001:00009e99   106 0001:00009ea0   107 0001:00009ea5    80 0001:00009ea6
   107 0001:00009ea9   140 0001:00009eaa   148 0001:00009eaa   150 0001:00009eb2
   153 0001:00009ebc   154 0001:00009ec2   155 0001:00009ec6   156 0001:00009eca
   180 0001:00009ed3

Line numbers for C:\Program Files\Microsoft Visual Studio .NET 2003\Vc7\lib\LIBCMT.lib(f:\vs70builds\6030\vc\crtbld\crt\src\_open.c) segment .text

    59 0001:0000a029    61 0001:0000a030    78 0001:0000a037    92 0001:0000a04e
    84 0001:0000a054    86 0001:0000a059    80 0001:0000a05b    81 0001:0000a05d
    82 0001:0000a060    88 0001:0000a062    89 0001:0000a067   102 0001:0000a06a
   104 0001:0000a06d   105 0001:0000a07a   151 0001:0000a09a   153 0001:0000a09d
   154 0001:0000a0a3   155 0001:0000a0aa   157 0001:0000a0ad   160 0001:0000a0b2
   162 0001:0000a0b5   163 0001:0000a0b7   164 0001:0000a0be   166 0001:0000a0c1
   176 0001:0000a0c6   178 0001:0000a0c9   179 0001:0000a0cb   180 0001:0000a0ce
   108 0001:0000a0d0   110 0001:0000a0d3   206 0001:0000a0d5   169 0001:0000a0e6
   171 0001:0000a0ed   172 0001:0000a0ef   173 0001:0000a0f1   105 0001:0000a0f3
   184 0001:0000a103   126 0001:0000a105   128 0001:0000a108   129 0001:0000a10a
   130 0001:0000a110   142 0001:0000a112   144 0001:0000a115   145 0001:0000a117
   146 0001:0000a11e   148 0001:0000a124   133 0001:0000a126   134 0001:0000a12b
   135 0001:0000a12d   136 0001:0000a12f   137 0001:0000a136   139 0001:0000a13c
   119 0001:0000a13e   121 0001:0000a141   122 0001:0000a143   104 0001:0000a149
   190 0001:0000a154   191 0001:0000a16e   200 0001:0000a172   201 0001:0000a17e
   202 0001:0000a181   204 0001:0000a189   207 0001:0000a18f

Line numbers for C:\Program Files\Microsoft Visual Studio .NET 2003\Vc7\lib\LIBCMT.lib(f:\vs70builds\6030\vc\crtbld\crt\src\_getbuf.c) segment .text

    50 0001:0000d8c7    43 0001:0000d8c7    58 0001:0000d8cd    61 0001:0000d8e3
    62 0001:0000d8e7    65 0001:0000d8ee    69 0001:0000d8f0    70 0001:0000d8f4
    71 0001:0000d8fa    75 0001:0000d901    76 0001:0000d904    79 0001:0000d90a

Line numbers for C:\Program Files\Microsoft Visual Studio .NET 2003\Vc7\lib\LIBCMT.lib(f:\vs70builds\6030\vc\crtbld\crt\src\_freebuf.c) segment .text

    47 0001:0000ba42    50 0001:0000ba43    52 0001:0000ba52    54 0001:0000ba5a
    55 0001:0000ba60    56 0001:0000ba68    58 0001:0000ba6c

Line numbers for C:\Program Files\Microsoft Visual Studio .NET 2003\Vc7\lib\LIBCMT.lib(f:\vs70builds\6030\vc\crtbld\crt\src\_flsbuf.c) segment .text

    95 0001:0000935e   106 0001:00009363   108 0001:00009366   121 0001:0000937c
   122 0001:00009380   123 0001:00009384   124 0001:0000938c   125 0001:0000938f
   134 0001:00009397   135 0001:0000939a   138 0001:000093a8   148 0001:000093b1
   150 0001:000093cc   155 0001:000093d3   159 0001:000093dc   160 0001:000093e1
   161 0001:000093e6   163 0001:000093ec   164 0001:000093f3   165 0001:000093fe
   166 0001:00009400   167 0001:00009429   170 0001:00009436   177 0001:0000943e
   178 0001:00009440   180 0001:00009443   192 0001:00009454   193 0001:0000945a
   194 0001:0000945e   198 0001:00009460   109 0001:0000946a   110 0001:00009470
   203 0001:00009475

Line numbers for C:\Program Files\Microsoft Visual Studio .NET 2003\Vc7\lib\LIBCMT.lib(f:\vs70builds\6030\vc\crtbld\crt\src\_file.c) segment .text

   126 0001:00009cc1   117 0001:00009cc1   127 0001:00009cce   128 0001:00009cd3
   129 0001:00009cd9   138 0001:00009ce0   141 0001:00009cf3   142 0001:00009d0c
   161 0001:00009d10   149 0001:00009d11   150 0001:00009d1f   152 0001:00009d30
   154 0001:00009d37   156 0001:00009d57   152 0001:00009d5a   160 0001:00009d66
   161 0001:00009d69   189 0001:00009d6a   191 0001:00009d6a   194 0001:00009d6f
   195 0001:00009d78   196 0001:00009d7d   219 0001:00009d7e   224 0001:00009d7e
   228 0001:00009d92   236 0001:00009da1   235 0001:00009da2   236 0001:00009dac
   258 0001:00009dad   263 0001:00009dad   267 0001:00009db6   275 0001:00009dc0
   274 0001:00009dc1   275 0001:00009dcf   296 0001:00009dd0   301 0001:00009dd0
   305 0001:00009de4   313 0001:00009df3   312 0001:00009df4   313 0001:00009dfe
   335 0001:00009dff   340 0001:00009dff   344 0001:00009e08   352 0001:00009e12
   351 0001:00009e13   352 0001:00009e21

Line numbers for C:\Program Files\Microsoft Visual Studio .NET 2003\Vc7\lib\LIBCMT.lib(f:\vs70builds\6030\vc\crtbld\crt\src\intel\fp8.c) segment .text

    19 0001:000092e3    18 0001:000092e3    20 0001:000092f4

Line numbers for C:\Program Files\Microsoft Visual Studio .NET 2003\Vc7\lib\LIBCMT.lib(f:\vs70builds\6030\vc\crtbld\crt\src\tidtable.c) segment .text

    78 0001:0000bbd6    77 0001:0000bbd6    79 0001:0000bbdc   218 0001:0000bbdf
   210 0001:0000bbdf   219 0001:0000bbe9   220 0001:0000bbf0   227 0001:0000bbf7
   256 0001:0000bbfc   255 0001:0000bbfc   257 0001:0000bc07   266 0001:0000bc0e
   289 0001:0000bc0f   294 0001:0000bc11   295 0001:0000bc17   301 0001:0000bc2b
   307 0001:0000bc50   309 0001:0000bc5e   310 0001:0000bc64   312 0001:0000bc6a
   313 0001:0000bc6c   316 0001:0000bc74   319 0001:0000bc7b   320 0001:0000bc7f
   348 0001:0000bc80   359 0001:0000bc8c   360 0001:0000bc99   361 0001:0000bca0
   363 0001:0000bca7   364 0001:0000bcae   366 0001:0000bcb5   367 0001:0000bcbc
   369 0001:0000bcc3   370 0001:0000bcca   372 0001:0000bcd1   373 0001:0000bcd8
   375 0001:0000bcdf   376 0001:0000bce6   378 0001:0000bced   379 0001:0000bcf7
   381 0001:0000bcfe   382 0001:0000bd06   385 0001:0000bd09   386 0001:0000bd1f
   392 0001:0000bd2f   394 0001:0000bd37   395 0001:0000bd3e   397 0001:0000bd48
   399 0001:0000bd4a   400 0001:0000bd4f   402 0001:0000bd54   403 0001:0000bd59
   405 0001:0000bd5e   406 0001:0000bd63   408 0001:0000bd68   409 0001:0000bd6d
   411 0001:0000bd72   415 0001:0000bd7b   416 0001:0000bd8e   423 0001:0000bd9e
   426 0001:0000bda5   388 0001:0000bdad   389 0001:0000bdb2   419 0001:0000bdbb
   420 0001:0000bdbe   450 0001:0000bdc7   457 0001:0000bdc7   464 0001:0000bdd2
   465 0001:0000bdda   467 0001:0000bde1   473 0001:0000bde7   477 0001:0000bdf5
   108 0001:0000bdf6   117 0001:0000bdf6   118 0001:0000bdff   119 0001:0000be04
   181 0001:0000be06   126 0001:0000be09   127 0001:0000be16   129 0001:0000be1a
   132 0001:0000be28   135 0001:0000be35   138 0001:0000be42   139 0001:0000be4f
   142 0001:0000be5d   144 0001:0000be67   146 0001:0000be71   153 0001:0000be85
   155 0001:0000be98   164 0001:0000be9a   174 0001:0000bec1   176 0001:0000becb
   177 0001:0000bed1   180 0001:0000bed7   166 0001:0000bedb   167 0001:0000bee0
   181 0001:0000bee4

Line numbers for C:\Program Files\Microsoft Visual Studio .NET 2003\Vc7\lib\LIBCMT.lib(f:\vs70builds\6030\vc\crtbld\crt\src\stdenvp.c) segment .text

    73 0001:0000c12f    81 0001:0000c130    82 0001:0000c13c    90 0001:0000c141
    98 0001:0000c149    99 0001:0000c14d   110 0001:0000c14f   111 0001:0000c153
   112 0001:0000c154   117 0001:0000c165   118 0001:0000c17f   124 0001:0000c184
   127 0001:0000c18d   129 0001:0000c196   131 0001:0000c19c   137 0001:0000c1a9
   138 0001:0000c1b2   124 0001:0000c1b5   146 0001:0000c1bb   147 0001:0000c1c6
   151 0001:0000c1cc   158 0001:0000c1ce   161 0001:0000c1d8   162 0001:0000c1df

Line numbers for C:\Program Files\Microsoft Visual Studio .NET 2003\Vc7\lib\LIBCMT.lib(f:\vs70builds\6030\vc\crtbld\crt\src\stdargv.c) segment .text

   208 0001:0000c1f6   216 0001:0000c1fb   220 0001:0000c200   221 0001:0000c210
   242 0001:0000c219   244 0001:0000c21e   245 0001:0000c225   246 0001:0000c22a
   248 0001:0000c22c   249 0001:0000c22e   250 0001:0000c232   252 0001:0000c237
   254 0001:0000c239   255 0001:0000c246   256 0001:0000c248   257 0001:0000c24c
   258 0001:0000c251   262 0001:0000c252   267 0001:0000c267   268 0001:0000c26b
   271 0001:0000c26f   276 0001:0000c273   277 0001:0000c27c   278 0001:0000c288
   265 0001:0000c28b   266 0001:0000c28c   281 0001:0000c28e   285 0001:0000c297
   286 0001:0000c29d   287 0001:0000c2a6   301 0001:0000c2a8   305 0001:0000c2ab
   308 0001:0000c2af   309 0001:0000c2b0   306 0001:0000c2b1   311 0001:0000c2b6
   314 0001:0000c2bb   315 0001:0000c2c0   316 0001:0000c2c6   317 0001:0000c2ce
   318 0001:0000c2d0   321 0001:0000c2d2   323 0001:0000c2d4   325 0001:0000c2df
   329 0001:0000c2e1   330 0001:0000c2e5   331 0001:0000c2e9   332 0001:0000c2ed
   336 0001:0000c2f2   341 0001:0000c308   342 0001:0000c30c   343 0001:0000c310
   344 0001:0000c31c   345 0001:0000c320   347 0001:0000c322   348 0001:0000c327
   349 0001:0000c329   350 0001:0000c335   351 0001:0000c336   354 0001:0000c338
   356 0001:0000c33a   365 0001:0000c33b   369 0001:0000c340   370 0001:0000c344
   371 0001:0000c348   372 0001:0000c34a   375 0001:0000c352   376 0001:0000c359
   377 0001:0000c35c   378 0001:0000c360    87 0001:0000c362    96 0001:0000c36a
    97 0001:0000c374   103 0001:0000c379   119 0001:0000c392   126 0001:0000c3aa
   130 0001:0000c3bb   131 0001:0000c3d1   132 0001:0000c3d5   139 0001:0000c3da
   143 0001:0000c3ec   147 0001:0000c3f7   162 0001:0000c3fd   163 0001:0000c402

Line numbers for C:\Program Files\Microsoft Visual Studio .NET 2003\Vc7\lib\LIBCMT.lib(f:\vs70builds\6030\vc\crtbld\crt\src\mlock.c) segment .text

   122 0001:0000a652   129 0001:0000a654   130 0001:0000a65b   131 0001:0000a66c
   133 0001:0000a66e   129 0001:0000a683   142 0001:0000a689   143 0001:0000a68e
   173 0001:0000a69b   179 0001:0000a69c   181 0001:0000a6a9   185 0001:0000a6b5
   191 0001:0000a6b8   192 0001:0000a6be   200 0001:0000a6cd   202 0001:0000a6d3
   206 0001:0000a6df   209 0001:0000a6ef   342 0001:0000a6f0   346 0001:0000a6f3
   347 0001:0000a703   244 0001:0000a705   248 0001:0000a711   249 0001:0000a71f
   251 0001:0000a721   252 0001:0000a72f   253 0001:0000a73a   256 0001:0000a73c
   257 0001:0000a744   259 0001:0000a747   260 0001:0000a74b   261 0001:0000a75c
   262 0001:0000a762   263 0001:0000a77b   265 0001:0000a77f   267 0001:0000a781
   268 0001:0000a783   275 0001:0000a793   276 0001:0000a796   272 0001:0000a79c
   304 0001:0000a7a5   309 0001:0000a7a8   311 0001:0000a7b8   312 0001:0000a7c3
   319 0001:0000a7cb   320 0001:0000a7d4

Line numbers for C:\Program Files\Microsoft Visual Studio .NET 2003\Vc7\lib\LIBCMT.lib(f:\vs70builds\6030\vc\crtbld\crt\src\dllcrt0.c) segment .text

    88 0001:00008b85    93 0001:00008b88   102 0001:00008b95   108 0001:00008ba1
   109 0001:00008bb0   111 0001:00008bb6   112 0001:00008bbf   113 0001:00008bc7
   119 0001:00008bd0   120 0001:00008bd9   121 0001:00008be4   122 0001:00008bf0
   125 0001:00008bf5   129 0001:00008c04   132 0001:00008c0a   134 0001:00008c13
   135 0001:00008c18   143 0001:00008c1d   145 0001:00008c22   146 0001:00008c2d
   148 0001:00008c37   153 0001:00008c3e   158 0001:00008c40   172 0001:00008c5e
   175 0001:00008c64   160 0001:00008c69   162 0001:00008c6e   165 0001:00008c73
   175 0001:00008c75   177 0001:00008c79   179 0001:00008c81   188 0001:00008c87
   189 0001:00008c8f   198 0001:00008c94   201 0001:00008c99   205 0001:00008c9e
   212 0001:00008ca3   215 0001:00008caa   217 0001:00008cbe   221 0001:00008ccd
   223 0001:00008cd6   224 0001:00008cdc   235 0001:00008ce2   227 0001:00008ce4
   232 0001:00008cea   235 0001:00008cee   237 0001:00008cf3   241 0001:00008cfb
   242 0001:00008cfe   270 0001:00008d06   271 0001:00008d12   277 0001:00008d18
   282 0001:00008d27   284 0001:00008d2d   285 0001:00008d30   287 0001:00008d39
   288 0001:00008d42   290 0001:00008d4e   291 0001:00008d57   293 0001:00008d66
   294 0001:00008d68   297 0001:00008d6a   299 0001:00008d7a   307 0001:00008d83
   310 0001:00008d8d   312 0001:00008d96   313 0001:00008da4   315 0001:00008da7
   316 0001:00008db5   322 0001:00008dc3   318 0001:00008dc8   319 0001:00008de0
   323 0001:00008de2   348 0001:00008dea   350 0001:00008dea   351 0001:00008e01
   353 0001:00008e06   354 0001:00008e0f   355 0001:00008e1c

Line numbers for C:\Program Files\Microsoft Visual Studio .NET 2003\Vc7\lib\LIBCMT.lib(f:\vs70builds\6030\vc\crtbld\crt\src\crt0msg.c) segment .text

   171 0001:0000c72d   175 0001:0000c740   176 0001:0000c755   179 0001:0000c764
   200 0001:0000c775   208 0001:0000c794   216 0001:0000c7a0   217 0001:0000c7ba
   219 0001:0000c7ca   221 0001:0000c7cd   223 0001:0000c7dc   224 0001:0000c7ec
   231 0001:0000c7fe   233 0001:0000c824   234 0001:0000c82f   235 0001:0000c836
   236 0001:0000c841   240 0001:0000c84d   206 0001:0000c862   245 0001:0000c887
   137 0001:0000c8a5   140 0001:0000c8a5   142 0001:0000c8bc   143 0001:0000c8c6
   144 0001:0000c8d0   145 0001:0000c8d2   147 0001:0000c8dd

Line numbers for C:\Program Files\Microsoft Visual Studio .NET 2003\Vc7\lib\LIBCMT.lib(f:\vs70builds\6030\vc\crtbld\crt\src\crt0fp.c) segment .text

    47 0001:0000d3d0    46 0001:0000d3d0    48 0001:0000d3d8

Line numbers for C:\Program Files\Microsoft Visual Studio .NET 2003\Vc7\lib\LIBCMT.lib(f:\vs70builds\6030\vc\crtbld\crt\src\crt0dat.c) segment .text

   448 0001:0000a4ab   444 0001:0000a4ab   449 0001:0000a4b6   450 0001:0000a4ba
   451 0001:0000a4c6   452 0001:0000a4ca   463 0001:0000a4d0   514 0001:0000a4db
   515 0001:0000a4db   516 0001:0000a4e3   541 0001:0000a4e4   540 0001:0000a4e4
   542 0001:0000a4ec   586 0001:0000a4ed   600 0001:0000a4f0   598 0001:0000a4f2
   599 0001:0000a4f8   600 0001:0000a4fa   593 0001:0000a4fd   602 0001:0000a504
   198 0001:0000a505   181 0001:0000a505   199 0001:0000a50e   205 0001:0000a517
   206 0001:0000a53c   207 0001:0000a53e   210 0001:0000a540   215 0001:0000a54a
   217 0001:0000a56a   218 0001:0000a56e   335 0001:0000a56f   341 0001:0000a57b
   342 0001:0000a583   345 0001:0000a588   346 0001:0000a593   347 0001:0000a5a3
   350 0001:0000a5a9   352 0001:0000a5b1   368 0001:0000a5b6   369 0001:0000a5be
   374 0001:0000a5d3   375 0001:0000a5d9   376 0001:0000a5db   381 0001:0000a5dd
   387 0001:0000a5ed   408 0001:0000a606   412 0001:0000a60b   414 0001:0000a611
   403 0001:0000a619   404 0001:0000a61e   405 0001:0000a623   415 0001:0000a62c
   311 0001:0000a632   310 0001:0000a632   312 0001:0000a642   318 0001:0000a643
   317 0001:0000a643   319 0001:0000a651

Line numbers for C:\Program Files\Microsoft Visual Studio .NET 2003\Vc7\lib\LIBCMT.lib(F:\VS70Builds\6030\vc\crtbld\crt\src\intel\chkstk.asm) segment .text

    69 0001:000088b0    65 0001:000088b0    70 0001:000088b5    72 0001:000088b7
    73 0001:000088b9    74 0001:000088bb    75 0001:000088be    76 0001:000088c0
    77 0001:000088c1    78 0001:000088c3    79 0001:000088c4    82 0001:000088c5
    83 0001:000088c6    88 0001:000088ca    89 0001:000088d0    91 0001:000088d5
    93 0001:000088d7    94 0001:000088dc    97 0001:000088de    98 0001:000088e0
   100 0001:000088e2   102 0001:000088e4   104 0001:000088e6   105 0001:000088e8
   107 0001:000088eb   109 0001:000088ec

Line numbers for C:\Program Files\Microsoft Visual Studio .NET 2003\Vc7\lib\LIBCMT.lib(f:\vs70builds\6030\vc\crtbld\crt\src\wtombenv.c) segment .text

    43 0001:0000a41b    44 0001:0000a422    45 0001:0000a425    52 0001:0000a42e
    57 0001:0000a43a    61 0001:0000a44c    65 0001:0000a45a    72 0001:0000a46c
    74 0001:0000a47c    76 0001:0000a481    77 0001:0000a48a    81 0001:0000a48d
    84 0001:0000a496    85 0001:0000a49b    67 0001:0000a49d    68 0001:0000a4a6

Line numbers for C:\Program Files\Microsoft Visual Studio .NET 2003\Vc7\lib\LIBCMT.lib(f:\vs70builds\6030\vc\crtbld\crt\src\winxfltr.c) segment .text

   219 0001:0000c5ae   227 0001:0000c5b5   236 0001:0000c5ba   252 0001:0000c600
   257 0001:0000c605   258 0001:0000c609   264 0001:0000c611   268 0001:0000c614
   283 0001:0000c61a   284 0001:0000c620   293 0001:0000c626   301 0001:0000c632
   305 0001:0000c649   301 0001:0000c667   335 0001:0000c66a   337 0001:0000c677
   339 0001:0000c67e   341 0001:0000c688   343 0001:0000c68f   345 0001:0000c699
   347 0001:0000c6a0   349 0001:0000c6aa   351 0001:0000c6b1   353 0001:0000c6bb
   355 0001:0000c6c2   357 0001:0000c6cc   359 0001:0000c6d3   361 0001:0000c6dd
   370 0001:0000c6e4   375 0001:0000c6ec   377 0001:0000c6ef   382 0001:0000c6f1
   383 0001:0000c6f5   389 0001:0000c6f8   391 0001:0000c6ff   245 0001:0000c704
   393 0001:0000c710   160 0001:0000c712   161 0001:0000c712   162 0001:0000c71d
   166 0001:0000c729   164 0001:0000c72a   166 0001:0000c72c

Line numbers for C:\Program Files\Microsoft Visual Studio .NET 2003\Vc7\lib\LIBCMT.lib(f:\vs70builds\6030\vc\crtbld\crt\src\convrtcp.c) segment .text

    39 0001:00011505    44 0001:00011512    45 0001:00011531    46 0001:00011534
    47 0001:00011536    49 0001:00011540    79 0001:0001154c    81 0001:00011565
   185 0001:0001156e    81 0001:00011574    82 0001:00011579    84 0001:0001157c
    85 0001:00011581    87 0001:00011584    91 0001:00011590    93 0001:0001159f
    94 0001:000115b6    95 0001:000115be    98 0001:000115c1   100 0001:000115c6
   101 0001:000115cb   102 0001:000115cd   104 0001:000115cf   112 0001:000115e1
   113 0001:000115fe   116 0001:00011600   117 0001:00011603   118 0001:00011619
   120 0001:0001162d   121 0001:00011634   122 0001:00011639   125 0001:00011644
   126 0001:00011648   127 0001:00011658   128 0001:0001165f   137 0001:00011666
   139 0001:00011681   148 0001:00011686   149 0001:0001169e   150 0001:000116a4
   159 0001:000116a6   161 0001:000116c1   170 0001:000116d2   172 0001:000116e6
   173 0001:000116ef   174 0001:000116f2   175 0001:000116f4   176 0001:000116fa
   183 0001:00011704   184 0001:00011709   185 0001:00011710   186 0001:00011713

Line numbers for C:\Program Files\Microsoft Visual Studio .NET 2003\Vc7\lib\LIBCMT.lib(f:\vs70builds\6030\vc\crtbld\crt\src\setlocal.c) segment .text

   305 0001:0000fb8d   311 0001:0000fb8e   315 0001:0000fbab   317 0001:0000fbbe
   318 0001:0000fbc4   323 0001:0000fbce   325 0001:0000fbe1   326 0001:0000fbe7
   329 0001:0000fbf1   330 0001:0000fbf9   338 0001:0000fc03   340 0001:0000fc16
   341 0001:0000fc1c   349 0001:0000fc2c   351 0001:0000fc43   352 0001:0000fc49
   358 0001:0000fc53   359 0001:0000fc5c   398 0001:0000fc5d   400 0001:0000fc5e
   402 0001:0000fc65   408 0001:0000fc74   412 0001:0000fc7a   413 0001:0000fc83
   415 0001:0000fc85   416 0001:0000fc8c   418 0001:0000fc8e   419 0001:0000fc95
   421 0001:0000fc97   422 0001:0000fc9e   424 0001:0000fca0   431 0001:0000fca9
   432 0001:0000fcb1   434 0001:0000fcb8   435 0001:0000fcc2   437 0001:0000fccc
   438 0001:0000fcd1   440 0001:0000fcdb   441 0001:0000fce0   443 0001:0000fcea
   444 0001:0000fcef   446 0001:0000fcf9   455 0001:0000fd02   456 0001:0000fd12
   459 0001:0000fd19   460 0001:0000fd1d   381 0001:0000fd1e   384 0001:0000fd2a
   385 0001:0000fd32   387 0001:0000fd36   394 0001:0000fd47   395 0001:0000fd4a
   391 0001:0000fd50

Line numbers for C:\Program Files\Microsoft Visual Studio .NET 2003\Vc7\lib\LIBCMT.lib(f:\vs70builds\6030\vc\crtbld\crt\src\setenv.c) segment .text

   359 0001:0000eae8   362 0001:0000eae9   366 0001:0000eaf1   371 0001:0000eb03
   362 0001:0000eb10   379 0001:0000eb19   380 0001:0000eb27   372 0001:0000eb28
   380 0001:0000eb34   400 0001:0000eb35   401 0001:0000eb39   406 0001:0000eb3b
   436 0001:0000eb41   410 0001:0000eb43   411 0001:0000eb4b   415 0001:0000eb52
   416 0001:0000eb6a   420 0001:0000eb72   430 0001:0000eb78   420 0001:0000eb89
   433 0001:0000eb8d   435 0001:0000eb8f   436 0001:0000eb94    74 0001:0000eb96
    87 0001:0000eb9c    91 0001:0000ebaa    93 0001:0000ebb0   100 0001:0000ebb2
   107 0001:0000ebce   118 0001:0000ebd3   119 0001:0000ebe6   123 0001:0000ebf2
   141 0001:0000ebf6   143 0001:0000ec03   101 0001:0000ec0c   328 0001:0000ec12
   149 0001:0000ec14   150 0001:0000ec19   156 0001:0000ec1d   157 0001:0000ec2c
   158 0001:0000ec2e   161 0001:0000ec30   163 0001:0000ec38   164 0001:0000ec47
   165 0001:0000ec49   187 0001:0000ec4b   190 0001:0000ec5e   196 0001:0000ec68
   198 0001:0000ec72   214 0001:0000ec7a   217 0001:0000ec7f   220 0001:0000ec82
   202 0001:0000ec89   201 0001:0000ec92   209 0001:0000ec96   212 0001:0000eca9
   224 0001:0000ecb2   229 0001:0000ecbc   230 0001:0000ecc0   233 0001:0000ecc2
   234 0001:0000ecd9   236 0001:0000ecdf   237 0001:0000ece2   240 0001:0000ece8
   242 0001:0000ecee   265 0001:0000ecf3   267 0001:0000ed0f   268 0001:0000ed16
   316 0001:0000ed1f   317 0001:0000ed3a   319 0001:0000ed3e   322 0001:0000ed45
   324 0001:0000ed4b   327 0001:0000ed52   249 0001:0000ed5a   252 0001:0000ed60
   254 0001:0000ed67

Line numbers for C:\Program Files\Microsoft Visual Studio .NET 2003\Vc7\lib\LIBCMT.lib(f:\vs70builds\6030\vc\crtbld\crt\src\onexit.c) segment .text

   109 0001:0000ed6c   119 0001:0000ed6d   125 0001:0000ed91   131 0001:0000edab
   152 0001:0000edc1   141 0001:0000edc2   142 0001:0000edce   149 0001:0000eddf
   151 0001:0000ede8   152 0001:0000edeb   198 0001:0000edec   197 0001:0000edec
   203 0001:0000ee00   209 0001:0000ee03   205 0001:0000ee04   206 0001:0000ee07
   208 0001:0000ee11   209 0001:0000ee13    89 0001:0000ee14    93 0001:0000ee20
    95 0001:0000ee25    96 0001:0000ee29   102 0001:0000ee3d   103 0001:0000ee40
    99 0001:0000ee46   158 0001:0000ee4c   157 0001:0000ee4c   159 0001:0000ee5d

Line numbers for C:\Program Files\Microsoft Visual Studio .NET 2003\Vc7\lib\LIBCMT.lib(f:\vs70builds\6030\vc\crtbld\crt\src\inittime.c) segment .text

   186 0001:00011c91   187 0001:00011c92   190 0001:00011c9e   191 0001:00011ca6
   192 0001:00011cae   193 0001:00011cb6   194 0001:00011cbe   195 0001:00011cc6
   196 0001:00011cce   198 0001:00011cd5   199 0001:00011cdd   200 0001:00011ce5
   201 0001:00011ced   202 0001:00011cf5   203 0001:00011cfd   204 0001:00011d05
   206 0001:00011d0d   207 0001:00011d15   208 0001:00011d20   209 0001:00011d28
   210 0001:00011d30   211 0001:00011d38   212 0001:00011d40   213 0001:00011d48
   214 0001:00011d50   215 0001:00011d58   216 0001:00011d60   217 0001:00011d68
   219 0001:00011d70   220 0001:00011d78   221 0001:00011d80   222 0001:00011d88
   223 0001:00011d90   224 0001:00011d98   225 0001:00011da3   226 0001:00011dae
   227 0001:00011db9   228 0001:00011dc4   229 0001:00011dcf   230 0001:00011dda
   232 0001:00011de5   233 0001:00011df0   235 0001:00011dfb   236 0001:00011e06
   237 0001:00011e11   239 0001:00011e20

Line numbers for C:\Program Files\Microsoft Visual Studio .NET 2003\Vc7\lib\LIBCMT.lib(f:\vs70builds\6030\vc\crtbld\crt\src\initnum.c) segment .text

   268 0001:00011e21   269 0001:00011e22   274 0001:00011e2a   278 0001:00011e3e
   282 0001:00011e45   286 0001:00011e5b   290 0001:00011e62   294 0001:00011e77
   295 0001:00011e7f

Line numbers for C:\Program Files\Microsoft Visual Studio .NET 2003\Vc7\lib\LIBCMT.lib(f:\vs70builds\6030\vc\crtbld\crt\src\initmon.c) segment .text

   280 0001:00011e80   281 0001:00011e81   286 0001:00011e8d   290 0001:00011ea3
   294 0001:00011eaa   298 0001:00011ec0   302 0001:00011ec7   306 0001:00011edd
   310 0001:00011ee4   314 0001:00011efa   318 0001:00011f01   322 0001:00011f17
   326 0001:00011f1e   330 0001:00011f34   334 0001:00011f3b   338 0001:00011f50
   339 0001:00011f58

Line numbers for C:\Program Files\Microsoft Visual Studio .NET 2003\Vc7\lib\LIBCMT.lib(f:\vs70builds\6030\vc\crtbld\crt\src\initcrit.c) segment .text

    56 0001:0000e143    55 0001:0000e143    57 0001:0000e14d    58 0001:0000e150
    88 0001:0000e153    92 0001:0000e15f    98 0001:0000e168   107 0001:0000e16f
   108 0001:0000e171   109 0001:0000e17c   112 0001:0000e180   114 0001:0000e191
   127 0001:0000e195   132 0001:0000e19f   138 0001:0000e1a3   140 0001:0000e1b0
   147 0001:0000e1c1   148 0001:0000e1ca   150 0001:0000e1d2   154 0001:0000e1d8

Line numbers for C:\Program Files\Microsoft Visual Studio .NET 2003\Vc7\lib\LIBCMT.lib(f:\vs70builds\6030\vc\crtbld\crt\src\getenv.c) segment .text

   107 0001:000087ee    99 0001:000087ee   108 0001:000087fe   164 0001:00008801
   130 0001:00008802   133 0001:00008810   134 0001:00008817   137 0001:00008819
   142 0001:0000881f   144 0001:0000882b   152 0001:00008834   155 0001:00008836
   159 0001:00008858   152 0001:0000885b   163 0001:00008861   164 0001:00008866
    58 0001:0000886f    61 0001:0000887b    63 0001:00008883    67 0001:00008887
    74 0001:0000889c    76 0001:0000889f    71 0001:000088a5

Line numbers for C:\Program Files\Microsoft Visual Studio .NET 2003\Vc7\lib\LIBCMT.lib(f:\vs70builds\6030\vc\crtbld\crt\src\crtmbox.c) segment .text

    36 0001:0001009d    49 0001:000100a4    55 0001:000100a6    57 0001:000100b0
    61 0001:000100bd    65 0001:000100dc    68 0001:000100e4    70 0001:000100f1
    73 0001:000100ff    75 0001:00010107    77 0001:00010110    91 0001:0001011d
    96 0001:00010126   104 0001:00010149   105 0001:00010152   106 0001:00010156
    62 0001:00010158   107 0001:0001015c   109 0001:00010160   111 0001:00010162
   112 0001:0001016b   114 0001:0001016f   115 0001:0001017c   118 0001:00010181
   119 0001:00010194

Line numbers for C:\Program Files\Microsoft Visual Studio .NET 2003\Vc7\lib\LIBCMT.lib(f:\vs70builds\6030\vc\crtbld\crt\src\a_str.c) segment .text

    64 0001:00011809    73 0001:00011815    77 0001:0001181f    78 0001:00011837
    80 0001:0001183d    81 0001:0001184a    86 0001:00011854   118 0001:0001186a
   123 0001:00011873   124 0001:00011876   140 0001:00011879   141 0001:0001187e
   152 0001:00011886   153 0001:000118ae   156 0001:000118b4   157 0001:000118b8
   158 0001:000118d0   160 0001:000118e2   161 0001:000118e9   162 0001:000118ee
   165 0001:000118f7   167 0001:000118fb   168 0001:00011909   169 0001:0001190b
   178 0001:00011912   183 0001:00011929   185 0001:0001193a   186 0001:00011940
   188 0001:00011947    92 0001:0001194c    93 0001:00011953    94 0001:00011959
    95 0001:00011960    97 0001:00011966    98 0001:00011972   102 0001:00011976
   104 0001:0001197a   105 0001:00011991   106 0001:00011993   107 0001:00011995
   110 0001:00011998   111 0001:000119ad   112 0001:000119b1   113 0001:000119b8
   192 0001:000119ba

Line numbers for C:\Program Files\Microsoft Visual Studio .NET 2003\Vc7\lib\LIBCMT.lib(f:\vs70builds\6030\vc\crtbld\crt\src\a_map.c) segment .text

    96 0001:0001033b   105 0001:00010347   106 0001:00010351   107 0001:0001036c
   108 0001:00010372   109 0001:0001037f   116 0001:00010389   117 0001:0001038e
   121 0001:000103a9   211 0001:000103bf   213 0001:000103c8   218 0001:000103cd
   219 0001:000103d0   235 0001:000103d3   236 0001:000103d8   247 0001:000103e0
   248 0001:00010408   251 0001:0001040e   252 0001:00010415   254 0001:00010431
   255 0001:00010438   256 0001:0001043d   259 0001:0001044c   261 0001:00010451
   262 0001:00010460   263 0001:00010466   272 0001:0001046d   281 0001:0001048a
   284 0001:000104a9   287 0001:000104af   289 0001:000104b8   298 0001:000104c1
   302 0001:000104d7   308 0001:000104dc   309 0001:000104e3   311 0001:000104ff
   312 0001:00010506   313 0001:0001050b   316 0001:0001051a   318 0001:0001051f
   320 0001:00010530   329 0001:00010537   342 0001:0001054f   332 0001:00010551
   342 0001:00010556   345 0001:00010558   355 0001:0001055a   361 0001:00010570
   362 0001:00010575   364 0001:0001057e   365 0001:00010583   367 0001:0001058c
   122 0001:00010593   123 0001:00010596   124 0001:00010598   126 0001:0001059b
   130 0001:0001059e   131 0001:000105a3   132 0001:000105ab   133 0001:000105b0
   135 0001:000105b8   136 0001:000105c9   142 0001:000105d0   144 0001:000105d9
   145 0001:000105f1   146 0001:000105f3   153 0001:000105f5   158 0001:00010614
   159 0001:00010617   160 0001:0001062a   161 0001:00010637   162 0001:0001063e
   163 0001:00010643   166 0001:0001064b   167 0001:0001064f   170 0001:0001065c
   172 0001:0001065e   173 0001:0001066b   180 0001:00010672   182 0001:0001068f
   183 0001:00010691   189 0001:00010693   183 0001:000106ba   195 0001:000106bd
   196 0001:000106c2   197 0001:000106c9   200 0001:000106cb   202 0001:000106e5
   203 0001:000106ea   204 0001:000106f3   205 0001:000106ff   206 0001:00010706
   371 0001:00010708

Line numbers for C:\Program Files\Microsoft Visual Studio .NET 2003\Vc7\lib\LIBCMT.lib(f:\vs70builds\6030\vc\crtbld\crt\src\a_env.c) segment .text

    43 0001:0000c404    57 0001:0000c406    59 0001:0000c420    60 0001:0000c428
    62 0001:0000c432    63 0001:0000c43f    68 0001:0000c44d    71 0001:0000c452
    72 0001:0000c456    73 0001:0000c45c    77 0001:0000c45e    78 0001:0000c465
    79 0001:0000c46c    93 0001:0000c473    97 0001:0000c48e   111 0001:0000c4a1
   113 0001:0000c4b2   114 0001:0000c4bc   117 0001:0000c4c4   118 0001:0000c4cb
   123 0001:0000c4cf   152 0001:0000c4d7   126 0001:0000c4db   127 0001:0000c4e5
   133 0001:0000c4e7   134 0001:0000c4eb   135 0001:0000c4f0   138 0001:0000c4f5
   140 0001:0000c4fa   145 0001:0000c50b   147 0001:0000c516   149 0001:0000c51d
   153 0001:0000c523

Line numbers for C:\Program Files\Microsoft Visual Studio .NET 2003\Vc7\lib\LIBCMT.lib(f:\vs70builds\6030\vc\crtbld\crt\src\a_cmp.c) segment .text

    50 0001:0000e1de    49 0001:0000e1de    53 0001:0000e1e2    54 0001:0000e1ec
    53 0001:0000e1f1    56 0001:0000e1f2    57 0001:0000e1f9    94 0001:0000e1fa
   103 0001:0000e213   105 0001:0000e226   106 0001:0000e23d   108 0001:0000e247
   109 0001:0000e254   117 0001:0000e25e   118 0001:0000e263   119 0001:0000e271
   120 0001:0000e278   124 0001:0000e284   183 0001:0000e29b   189 0001:0000e2a6
   190 0001:0000e2a9   191 0001:0000e2ac   197 0001:0000e2af   198 0001:0000e2b4
   204 0001:0000e2bd   210 0001:0000e2ca   211 0001:0000e2cf   214 0001:0000e2d7
   215 0001:0000e2db   218 0001:0000e2e2   219 0001:0000e2e5   227 0001:0000e2e7
   228 0001:0000e2f6   233 0001:0000e2fc   235 0001:0000e301   236 0001:0000e305
   240 0001:0000e307   242 0001:0000e317   240 0001:0000e321   245 0001:0000e328
   249 0001:0000e32c   251 0001:0000e331   252 0001:0000e337   256 0001:0000e33f
   258 0001:0000e34f   256 0001:0000e35d   258 0001:0000e364   276 0001:0000e366
   277 0001:0000e37e   280 0001:0000e384   281 0001:0000e387   283 0001:0000e3a3
   284 0001:0000e3aa   285 0001:0000e3af   288 0001:0000e3bf   290 0001:0000e3c6
   291 0001:0000e3d5   292 0001:0000e3db   301 0001:0000e3e2   311 0001:0000e3fb
   315 0001:0000e41d   316 0001:0000e424   318 0001:0000e440   319 0001:0000e447
   320 0001:0000e44c   323 0001:0000e458   325 0001:0000e45c   327 0001:0000e46c
   336 0001:0000e473   342 0001:0000e48a   344 0001:0000e49f   345 0001:0000e4a5
   348 0001:0000e4ac   349 0001:0000e4b2   351 0001:0000e4bb   127 0001:0000e4c3
   131 0001:0000e4c6   132 0001:0000e4cb   133 0001:0000e4d3   134 0001:0000e4da
   136 0001:0000e4e0   137 0001:0000e4f0   142 0001:0000e4f4   149 0001:0000e4f8
   150 0001:0000e50f   151 0001:0000e511   157 0001:0000e513   158 0001:0000e52b
   160 0001:0000e52f   161 0001:0000e536   163 0001:0000e538   164 0001:0000e53b
   172 0001:0000e541   173 0001:0000e55b   175 0001:0000e55f   176 0001:0000e565
   178 0001:0000e56f   355 0001:0000e571

Line numbers for C:\Program Files\Microsoft Visual Studio .NET 2003\Vc7\lib\LIBCMT.lib(f:\vs70builds\6030\vc\crtbld\crt\src\secfail.c) segment .text

    75 0001:00011015    77 0001:00011031    78 0001:0001103c    79 0001:0001103f
    81 0001:00011050    89 0001:00011057    97 0001:00011059   103 0001:0001105f
   104 0001:00011064   105 0001:0001106e   106 0001:00011073   112 0001:00011075
   113 0001:0001107a   114 0001:00011084   123 0001:00011089   124 0001:0001108c
   125 0001:000110a3   127 0001:000110b6   130 0001:000110bc   132 0001:000110cd
   133 0001:000110e2   138 0001:000110f2   140 0001:0001110d   141 0001:00011114
   142 0001:00011120   143 0001:0001112b   144 0001:00011132   145 0001:00011139
   150 0001:00011145   153 0001:00011158

Line numbers for C:\Program Files\Microsoft Visual Studio .NET 2003\Vc7\lib\LIBCMT.lib(f:\vs70builds\6030\vc\crtbld\crt\src\seccinit.c) segment .text

    49 0001:00010faf    58 0001:00010fb5    67 0001:00010fc6    70 0001:00010fd0
    75 0001:00010fd6    76 0001:00010fde    77 0001:00010fe6    79 0001:00010fee
    93 0001:00010ff8    94 0001:00011013

Line numbers for C:\Program Files\Microsoft Visual Studio .NET 2003\Vc7\lib\LIBCMT.lib(f:\vs70builds\6030\vc\crtbld\crt\src\secchk.c) segment .text

   114 0001:0000d391   116 0001:0000d39d   117 0001:0000d3a1   119 0001:0000d3ae
   123 0001:0000d3b9   100 0001:0000d3c2   103 0001:0000d3c2   104 0001:0000d3c8
   105 0001:0000d3ca   107 0001:0000d3cb

Line numbers for C:\Program Files\Microsoft Visual Studio .NET 2003\Vc7\lib\LIBCMT.lib(f:\vs70builds\6030\vc\crtbld\crt\src\mbsnbico.c) segment .text

    48 0001:0000a338    51 0001:0000a33b    53 0001:0000a343    54 0001:0000a34b
    57 0001:0000a350    58 0001:0000a356    79 0001:0000a358    71 0001:0000a35a
    75 0001:0000a37a    79 0001:0000a37f    77 0001:0000a381    79 0001:0000a384

Line numbers for C:\Program Files\Microsoft Visual Studio .NET 2003\Vc7\lib\LIBCMT.lib(f:\vs70builds\6030\vc\crtbld\crt\src\mbschr.c) segment .text

    48 0001:00011ba0    51 0001:00011ba3    53 0001:00011bab    54 0001:00011bb3
    56 0001:00011bb8    83 0001:00011bbe    60 0001:00011bbf    62 0001:00011bc4
    65 0001:00011bcb    70 0001:00011bd5    72 0001:00011bdc    73 0001:00011bec
    75 0001:00011bf1    62 0001:00011bf9    79 0001:00011c03    83 0001:00011c15
    71 0001:00011c17

Line numbers for C:\Program Files\Microsoft Visual Studio .NET 2003\Vc7\lib\LIBCMT.lib(f:\vs70builds\6030\vc\crtbld\crt\src\mbctype.c) segment .text

   269 0001:0000e584   268 0001:0000e584   286 0001:0000e598   287 0001:0000e59a
   282 0001:0000e59b   287 0001:0000e5a0   279 0001:0000e5a1   287 0001:0000e5a6
   276 0001:0000e5a7   287 0001:0000e5ac   273 0001:0000e5ad   287 0001:0000e5b2
   304 0001:0000e5b3   309 0001:0000e5b4   312 0001:0000e5c1   315 0001:0000e5c8
   317 0001:0000e5cd   320 0001:0000e5d2   321 0001:0000e5db   337 0001:0000e5dc
   347 0001:0000e5f8   350 0001:0000e60b   351 0001:0000e618   355 0001:0000e624
   356 0001:0000e637   362 0001:0000e668   367 0001:0000e689   372 0001:0000e6ad
   377 0001:0000e6d8   378 0001:0000e6da   380 0001:0000e6e4   381 0001:0000e6eb
   383 0001:0000e6f8   385 0001:0000e6ff   386 0001:0000e706   388 0001:0000e70d
   389 0001:0000e70f   377 0001:0000e716   391 0001:0000e71b   395 0001:0000e71d
   396 0001:0000e71f   398 0001:0000e729   399 0001:0000e730   401 0001:0000e73b
   403 0001:0000e747   404 0001:0000e74e   406 0001:0000e753   407 0001:0000e755
   395 0001:0000e75c   409 0001:0000e761   432 0001:0000e777   435 0001:0000e783
   437 0001:0000e78b   439 0001:0000e78f   441 0001:0000e799   447 0001:0000e7a7
   452 0001:0000e7af   459 0001:0000e7b6   460 0001:0000e7c7   468 0001:0000e7d2
   469 0001:0000e7d4   463 0001:0000e7da   465 0001:0000e7dd   584 0001:0000e7e6
   604 0001:0000e7f3   608 0001:0000e800   614 0001:0000e806   617 0001:0000e80a
   652 0001:0000e81d   657 0001:0000e831   662 0001:0000e835   665 0001:0000e854
   667 0001:0000e86b   621 0001:0000e877   624 0001:0000e883   629 0001:0000e893
   632 0001:0000e8a0   633 0001:0000e8b3   629 0001:0000e8be   624 0001:0000e8c6
   637 0001:0000e8d2   639 0001:0000e8da   640 0001:0000e8e4   642 0001:0000e8ef
   646 0001:0000e8fe   668 0001:0000e900   667 0001:0000e908   672 0001:0000e918
   673 0001:0000e91d   676 0001:0000e92c   679 0001:0000e938   681 0001:0000e93e
   683 0001:0000e940   686 0001:0000e946   690 0001:0000e950   695 0001:0000e952
   697 0001:0000e95a   698 0001:0000e95f   699 0001:0000e964   703 0001:0000e968
   704 0001:0000e96b   502 0001:0000e97a   504 0001:0000e986   508 0001:0000e98a
   510 0001:0000e992   512 0001:0000e997   514 0001:0000e9e5   521 0001:0000e9f1
   523 0001:0000ea02   530 0001:0000ea12   535 0001:0000ea26   536 0001:0000ea28
   537 0001:0000ea30   538 0001:0000ea38   539 0001:0000ea40   540 0001:0000ea4a
   539 0001:0000ea57   541 0001:0000ea5a   542 0001:0000ea66   541 0001:0000ea70
   543 0001:0000ea73   544 0001:0000ea7f   543 0001:0000ea8c   549 0001:0000ea8f
   555 0001:0000ea95   560 0001:0000eaa3   562 0001:0000eaaa   567 0001:0000eaac
   580 0001:0000eab8   581 0001:0000eabb   571 0001:0000eac1   753 0001:0000eaca
   743 0001:0000eaca   754 0001:0000ead3   755 0001:0000eadb   760 0001:0000eae5
   761 0001:0000eae7

Line numbers for C:\Program Files\Microsoft Visual Studio .NET 2003\Vc7\lib\LIBCMT.lib(f:\vs70builds\6030\vc\crtbld\crt\src\write.c) segment .text

    99 0001:0000d660   137 0001:0000d673   139 0001:0000d677   140 0001:0000d695
   143 0001:0000d69c   147 0001:0000d6c6   155 0001:0000d6da   161 0001:0000d6e8
   162 0001:0000d6fe   166 0001:0000d70a   167 0001:0000d712   168 0001:0000d71b
   169 0001:0000d720   170 0001:0000d723   172 0001:0000d72a   180 0001:0000d739
   182 0001:0000d75a   183 0001:0000d760   192 0001:0000d772   198 0001:0000d774
   201 0001:0000d78c   203 0001:0000d796   204 0001:0000d798   207 0001:0000d7a1
   211 0001:0000d7a8   213 0001:0000d7ad   216 0001:0000d7b5   217 0001:0000d7c0
   219 0001:0000d7c7   220 0001:0000d7c9   221 0001:0000d7d2   220 0001:0000d7d4
   223 0001:0000d7d7   224 0001:0000d7e5   226 0001:0000d7e9   227 0001:0000d7f4
   228 0001:0000d7fc   233 0001:0000d801   234 0001:0000d806    62 0001:0000d81c
    67 0001:0000d828    75 0001:0000d853    77 0001:0000d85a    78 0001:0000d85e
    79 0001:0000d867    80 0001:0000d879    81 0001:0000d87b    82 0001:0000d886
    83 0001:0000d88e    90 0001:0000d89b    86 0001:0000d8a0    87 0001:0000d8a3
    70 0001:0000d8ab    71 0001:0000d8b6    72 0001:0000d8be    91 0001:0000d8c1

Line numbers for C:\Program Files\Microsoft Visual Studio .NET 2003\Vc7\lib\LIBCMT.lib(f:\vs70builds\6030\vc\crtbld\crt\src\setmode.c) segment .text

   120 0001:00012404    99 0001:00012404   122 0001:00012425   123 0001:00012435
   124 0001:0001243e   125 0001:0001244a   131 0001:00012453   133 0001:0001245f
   127 0001:00012460   128 0001:0001246b   133 0001:0001246f

Line numbers for C:\Program Files\Microsoft Visual Studio .NET 2003\Vc7\lib\LIBCMT.lib(f:\vs70builds\6030\vc\crtbld\crt\src\read.c) segment .text

    95 0001:00011328   134 0001:0001132e   137 0001:00011332   142 0001:0001136c
   145 0001:00011377   147 0001:0001137d   148 0001:00011382   154 0001:00011393
   165 0001:000113ac   167 0001:000113b9   168 0001:000113c4   169 0001:000113cb
   171 0001:000113cd   172 0001:000113d0   175 0001:000113d6   176 0001:000113dd
   180 0001:000113e5   182 0001:000113e8   186 0001:000113f8   187 0001:00011401
   188 0001:0001140a   189 0001:0001140c   192 0001:00011415   193 0001:00011418
   194 0001:0001142b   200 0001:00011438   201 0001:0001143c   202 0001:00011442
   204 0001:00011447   205 0001:00011451   206 0001:00011456   209 0001:0001145a
   210 0001:0001145c   212 0001:0001145f   216 0001:00011461   220 0001:00011464
   221 0001:0001147f   223 0001:00011485   239 0001:0001148f   241 0001:00011498
   243 0001:0001149d   244 0001:0001149f   245 0001:000114a2   248 0001:000114a8
   250 0001:000114aa   253 0001:000114b5   255 0001:000114b8   257 0001:000114ba
   258 0001:000114cb   225 0001:000114d1   193 0001:000114d5   194 0001:000114e1
   196 0001:000114e3   197 0001:000114ec   269 0001:000114f3   272 0001:000114f9
   139 0001:000114fe   273 0001:00011503

Line numbers for C:\Program Files\Microsoft Visual Studio .NET 2003\Vc7\lib\LIBCMT.lib(f:\vs70builds\6030\vc\crtbld\crt\src\osfinfo.c) segment .text

   210 0001:0000f757   207 0001:0000f757   211 0001:0000f784   212 0001:0000f792
   220 0001:0000f79d   221 0001:0000f7a0   217 0001:0000f7a2   218 0001:0000f7a5
   214 0001:0000f7a7   225 0001:0000f7b0   226 0001:0000f7b5   228 0001:0000f7ba
   229 0001:0000f7c5   230 0001:0000f7cd   232 0001:0000f7d2   260 0001:0000f7d3
   257 0001:0000f7d3   262 0001:0000f807   263 0001:0000f810   271 0001:0000f81c
   272 0001:0000f81f   268 0001:0000f821   269 0001:0000f824   265 0001:0000f826
   276 0001:0000f82f   277 0001:0000f835   279 0001:0000f839   280 0001:0000f844
   281 0001:0000f84c   283 0001:0000f851   306 0001:0000f852   307 0001:0000f852
   308 0001:0000f879   314 0001:0000f87b   310 0001:0000f87c   311 0001:0000f887
   312 0001:0000f88f   314 0001:0000f892   425 0001:0000f893   426 0001:0000f89f
   431 0001:0000f8b9   433 0001:0000f8c0   434 0001:0000f8c8   436 0001:0000f8cb
   437 0001:0000f8d0   441 0001:0000f8f1   443 0001:0000f8f5   451 0001:0000f901
   453 0001:0000f91e   454 0001:0000f921   446 0001:0000f927   447 0001:0000f92a
   476 0001:0000f933   475 0001:0000f933   477 0001:0000f954    49 0001:0000f955
    50 0001:0000f961    55 0001:0000f965    56 0001:0000f96f    59 0001:0000f975
    60 0001:0000f97d    69 0001:0000f982    75 0001:0000f98e    81 0001:0000f99d
    83 0001:0000f9b4    88 0001:0000f9ba    89 0001:0000f9c1    90 0001:0000f9c9
    91 0001:0000f9d0    92 0001:0000f9d5    97 0001:0000f9f6    99 0001:0000f9fe
   106 0001:0000fa09   112 0001:0000fa13   113 0001:0000fa19    81 0001:0000fa20
   101 0001:0000fa28   102 0001:0000fa2e   117 0001:0000fa37   118 0001:0000fa3a
   126 0001:0000fa53    69 0001:0000fa59   134 0001:0000fa5f   140 0001:0000fa72
   141 0001:0000fa7b   143 0001:0000fa82   144 0001:0000fa8a   145 0001:0000fa8e
   146 0001:0000fa91   148 0001:0000fa95   143 0001:0000fa99   156 0001:0000faa1
   158 0001:0000faa7   162 0001:0000fab2   180 0001:0000fabf   181 0001:0000fac2
   172 0001:0000fac8

Line numbers for C:\Program Files\Microsoft Visual Studio .NET 2003\Vc7\lib\LIBCMT.lib(f:\vs70builds\6030\vc\crtbld\crt\src\open.c) segment .text

   199 0001:0000de07   221 0001:0000de0d   222 0001:0000de22   223 0001:0000de25
   225 0001:0000de29   226 0001:0000de2b   227 0001:0000de32   231 0001:0000de36
   232 0001:0000de3f   234 0001:0000de42   235 0001:0000de4c   240 0001:0000de50
   254 0001:0000de5f   249 0001:0000de61   250 0001:0000de68   246 0001:0000de6a
   247 0001:0000de71   243 0001:0000de73   260 0001:0000de7a   279 0001:0000de8e
   280 0001:0000de99   281 0001:0000dea0   275 0001:0000dea8   276 0001:0000deab
   271 0001:0000dead   272 0001:0000deb4   267 0001:0000deb6   268 0001:0000debd
   263 0001:0000debf   287 0001:0000dec2   308 0001:0000def2   309 0001:0000def9
   294 0001:0000defb   295 0001:0000df02   290 0001:0000df04   291 0001:0000df07
   287 0001:0000df09   313 0001:0000df1b   314 0001:0000df26   315 0001:0000df2d
   304 0001:0000df35   305 0001:0000df3c   299 0001:0000df3e   323 0001:0000df45
   333 0001:0000df51   334 0001:0000df60   340 0001:0000df63   342 0001:0000df67
   343 0001:0000df71   344 0001:0000df7a   350 0001:0000df7e   351 0001:0000df83
   356 0001:0000df85   357 0001:0000df89   358 0001:0000df8f   359 0001:0000df95
   366 0001:0000df9b   367 0001:0000dfa9   368 0001:0000dfb4   369 0001:0000dfbc
   373 0001:0000dfc3   387 0001:0000dfc6   395 0001:0000dfee   399 0001:0000dff0
   400 0001:0000dffb   401 0001:0000e002   402 0001:0000e00f   406 0001:0000e011
   407 0001:0000e016   408 0001:0000e01a   409 0001:0000e021   414 0001:0000e025
   420 0001:0000e02c   421 0001:0000e030   424 0001:0000e04e   431 0001:0000e065
   434 0001:0000e07a   465 0001:0000e087   466 0001:0000e093   468 0001:0000e09c
   469 0001:0000e0a1   444 0001:0000e0a3   447 0001:0000e0c0   450 0001:0000e0ce
   455 0001:0000e0d0   456 0001:0000e0e2   457 0001:0000e0e9   163 0001:0000e0ee
   169 0001:0000e0fa   175 0001:0000e0fe   181 0001:0000e102   188 0001:0000e12a
   189 0001:0000e12d   184 0001:0000e133   185 0001:0000e139

Line numbers for C:\Program Files\Microsoft Visual Studio .NET 2003\Vc7\lib\LIBCMT.lib(f:\vs70builds\6030\vc\crtbld\crt\src\lseeki64.c) segment .text

   125 0001:00011160   155 0001:00011165   163 0001:00011169   165 0001:00011184
   166 0001:0001118f   174 0001:00011191   176 0001:000111b3   177 0001:000111ba
   180 0001:000111c0   181 0001:000111d9   182 0001:000111e1

Line numbers for C:\Program Files\Microsoft Visual Studio .NET 2003\Vc7\lib\LIBCMT.lib(f:\vs70builds\6030\vc\crtbld\crt\src\lseek.c) segment .text

    99 0001:0000d541   134 0001:0000d542   136 0001:0000d552   137 0001:0000d55d
   153 0001:0000d561   140 0001:0000d563   141 0001:0000d57b   142 0001:0000d581
   143 0001:0000d583   145 0001:0000d585   147 0001:0000d589   148 0001:0000d590
   151 0001:0000d595   152 0001:0000d5b0   153 0001:0000d5b4    62 0001:0000d5b5
    67 0001:0000d5c1    75 0001:0000d5ec    77 0001:0000d5f3    78 0001:0000d5f7
    79 0001:0000d600    80 0001:0000d612    81 0001:0000d614    82 0001:0000d61f
    83 0001:0000d627    90 0001:0000d634    86 0001:0000d639    87 0001:0000d63c
    70 0001:0000d644    71 0001:0000d64f    72 0001:0000d657    91 0001:0000d65a

Line numbers for C:\Program Files\Microsoft Visual Studio .NET 2003\Vc7\lib\LIBCMT.lib(f:\vs70builds\6030\vc\crtbld\crt\src\isatty.c) segment .text

    39 0001:0000d90b    37 0001:0000d90b    40 0001:0000d917    44 0001:0000d919
    43 0001:0000d91a    44 0001:0000d934

Line numbers for C:\Program Files\Microsoft Visual Studio .NET 2003\Vc7\lib\LIBCMT.lib(f:\vs70builds\6030\vc\crtbld\crt\src\ioinit.c) segment .text

   115 0001:0000bee5   131 0001:0000bee9   133 0001:0000bef9   136 0001:0000bf01
   137 0001:0000bf06   139 0001:0000bf10   141 0001:0000bf18   144 0001:0000bf1b
   139 0001:0000bf36   151 0001:0000bf3d   154 0001:0000bf48   159 0001:0000bf60
   165 0001:0000bf62   166 0001:0000bf65   172 0001:0000bf6c   178 0001:0000bf77
   184 0001:0000bf84   198 0001:0000bf8f   200 0001:0000bf98   202 0001:0000bfa0
   205 0001:0000bfa3   200 0001:0000bfb6   277 0001:0000bfc5   190 0001:0000bfc7
   213 0001:0000bfcd   225 0001:0000bfd3   227 0001:0000bff6   228 0001:0000c00d
   229 0001:0000c015   233 0001:0000c01b   235 0001:0000c02f   213 0001:0000c032
   246 0001:0000c03d   248 0001:0000c03f   250 0001:0000c04b   258 0001:0000c050
   234 0001:0000c05d   258 0001:0000c062   269 0001:0000c085   270 0001:0000c091
   271 0001:0000c095   272 0001:0000c09c   277 0001:0000c0a0   279 0001:0000c0b4
   282 0001:0000c0b7   288 0001:0000c0b9   291 0001:0000c0bd   296 0001:0000c0bf
   246 0001:0000c0c3   303 0001:0000c0cd   305 0001:0000c0d9   306 0001:0000c0df
   331 0001:0000c0e3   337 0001:0000c0e5   339 0001:0000c0ea   346 0001:0000c0f0
   348 0001:0000c0f8   349 0001:0000c101   346 0001:0000c112   355 0001:0000c116
   356 0001:0000c11d   359 0001:0000c12e

Line numbers for C:\Program Files\Microsoft Visual Studio .NET 2003\Vc7\lib\LIBCMT.lib(f:\vs70builds\6030\vc\crtbld\crt\src\commit.c) segment .text

    39 0001:0000fad1    44 0001:0000fadd    51 0001:0000fb0c    52 0001:0000fb13
    53 0001:0000fb17    56 0001:0000fb20    57 0001:0000fb32    59 0001:0000fb3b
    60 0001:0000fb3d    64 0001:0000fb41    67 0001:0000fb47    73 0001:0000fb51
    74 0001:0000fb5c    83 0001:0000fb69    79 0001:0000fb6e    80 0001:0000fb71
    46 0001:0000fb79    47 0001:0000fb84    84 0001:0000fb87

Line numbers for C:\Program Files\Microsoft Visual Studio .NET 2003\Vc7\lib\LIBCMT.lib(f:\vs70builds\6030\vc\crtbld\crt\src\close.c) segment .text

    77 0001:0000b924   115 0001:0000b925   121 0001:0000b968   118 0001:0000b972
   123 0001:0000b974   125 0001:0000b97a   127 0001:0000b989   129 0001:0000b996
   130 0001:0000b99d   133 0001:0000b9a2   134 0001:0000b9a6    43 0001:0000b9a7
    48 0001:0000b9b3    56 0001:0000b9de    58 0001:0000b9e5    59 0001:0000b9e9
    60 0001:0000b9f2    61 0001:0000b9fc    62 0001:0000b9fe    63 0001:0000ba09
    70 0001:0000ba16    66 0001:0000ba1b    67 0001:0000ba1e    51 0001:0000ba26
    52 0001:0000ba31    53 0001:0000ba39    71 0001:0000ba3c

Line numbers for C:\Program Files\Microsoft Visual Studio .NET 2003\Vc7\lib\LIBCMT.lib(f:\vs70builds\6030\vc\crtbld\crt\src\chsize.c) segment .text

    85 0001:000111e3   125 0001:000111f7   128 0001:00011234   132 0001:00011239
   136 0001:0001123d   137 0001:00011250   142 0001:00011266   147 0001:00011268
   157 0001:00011286   150 0001:0001128e   151 0001:00011298   153 0001:000112a3
   159 0001:000112a6   163 0001:000112b6   169 0001:000112ba   172 0001:000112c7
   174 0001:000112e6   175 0001:000112f1   186 0001:00011300   187 0001:00011313
   126 0001:00011318   188 0001:0001131a

Line numbers for C:\Program Files\Microsoft Visual Studio .NET 2003\Vc7\lib\LIBCMT.lib(F:\VS70Builds\6030\vc\crtbld\crt\src\intel\ulldvrm.asm) segment .text

    47 0001:0000d9c0    45 0001:0000d9c0    79 0001:0000d9c1    80 0001:0000d9c5
    81 0001:0000d9c7    82 0001:0000d9c9    83 0001:0000d9cd    84 0001:0000d9d1
    85 0001:0000d9d3    86 0001:0000d9d5    87 0001:0000d9d7    88 0001:0000d9db
    89 0001:0000d9dd    94 0001:0000d9df    95 0001:0000d9e1    96 0001:0000d9e5
    97 0001:0000d9e7    98 0001:0000d9e9    99 0001:0000d9ed   100 0001:0000d9ef
   107 0001:0000d9f1   108 0001:0000d9f3   109 0001:0000d9f7   110 0001:0000d9fb
   112 0001:0000d9ff   113 0001:0000da01   114 0001:0000da03   115 0001:0000da05
   116 0001:0000da07   117 0001:0000da09   118 0001:0000da0b   119 0001:0000da0d
   128 0001:0000da0f   129 0001:0000da13   130 0001:0000da15   131 0001:0000da19
   132 0001:0000da1b   133 0001:0000da1d   141 0001:0000da1f   142 0001:0000da23
   143 0001:0000da25   144 0001:0000da27   145 0001:0000da2b   147 0001:0000da2d
   148 0001:0000da2e   149 0001:0000da32   151 0001:0000da36   160 0001:0000da38
   161 0001:0000da3c   162 0001:0000da40   163 0001:0000da42   164 0001:0000da44
   169 0001:0000da47   170 0001:0000da49   171 0001:0000da4b   172 0001:0000da4d
   173 0001:0000da4f   179 0001:0000da51   181 0001:0000da52

Line numbers for C:\Program Files\Microsoft Visual Studio .NET 2003\Vc7\lib\LIBCMT.lib(F:\VS70Builds\6030\vc\crtbld\crt\src\intel\llmul.asm) segment .text

    62 0001:00012620    47 0001:00012620    63 0001:00012624    64 0001:00012628
    65 0001:0001262a    66 0001:0001262e    68 0001:00012630    69 0001:00012634
    71 0001:00012636    74 0001:00012639    81 0001:0001263a    82 0001:0001263c
    84 0001:0001263e    85 0001:00012642    86 0001:00012646    88 0001:00012648
    89 0001:0001264c    90 0001:0001264e    92 0001:00012650    94 0001:00012651

Line numbers for C:\Program Files\Microsoft Visual Studio .NET 2003\Vc7\lib\LIBCMT.lib(f:\vs70builds\6030\vc\crtbld\crt\src\handler.cpp) segment .text

    96 0001:0000ac27    94 0001:0000ac27    98 0001:0000ac2c   101 0001:0000ac3b
   102 0001:0000ac3e    99 0001:0000ac3f   102 0001:0000ac41

Line numbers for C:\Program Files\Microsoft Visual Studio .NET 2003\Vc7\lib\LIBCMT.lib(f:\vs70builds\6030\vc\crtbld\crt\src\sbheap.c) segment .text

   189 0001:0000ad90   188 0001:0000ad90   199 0001:0000adac   192 0001:0000adad
   194 0001:0000adb1   195 0001:0000adb8   198 0001:0000adc4   199 0001:0000add7
   221 0001:0000add8   220 0001:0000add8   230 0001:0000adea   231 0001:0000adf1
   233 0001:0000adf9   228 0001:0000adfc   235 0001:0000ae00   236 0001:0000ae02
   295 0001:0000ae03   313 0001:0000ae09   316 0001:0000ae10   321 0001:0000ae19
   322 0001:0000ae31   326 0001:0000ae34   330 0001:0000ae41   331 0001:0000ae44
   334 0001:0000ae49   338 0001:0000ae4f   343 0001:0000ae5a   344 0001:0000ae5e
   345 0001:0000ae63   348 0001:0000ae66   353 0001:0000ae6e   355 0001:0000ae71
   356 0001:0000ae7c   357 0001:0000ae8a   359 0001:0000ae8f   362 0001:0000ae91
   363 0001:0000ae96   364 0001:0000aea7   369 0001:0000aeb0   373 0001:0000aeb9
   377 0001:0000aece   378 0001:0000aed4   379 0001:0000aed9   382 0001:0000aedc
   388 0001:0000aeeb   391 0001:0000aeee   392 0001:0000aef4   393 0001:0000aeff
   397 0001:0000af01   398 0001:0000af04   399 0001:0000af0a   400 0001:0000af11
   403 0001:0000af13   407 0001:0000af17   412 0001:0000af22   415 0001:0000af25
   416 0001:0000af36   417 0001:0000af3c   419 0001:0000af41   422 0001:0000af43
   423 0001:0000af51   425 0001:0000af57   430 0001:0000af5d   431 0001:0000af69
   434 0001:0000af75   438 0001:0000af7d   442 0001:0000af8b   443 0001:0000af91
   444 0001:0000af94   445 0001:0000af9a   446 0001:0000af9d   449 0001:0000afa3
   455 0001:0000afab   456 0001:0000afc3   457 0001:0000afd1   459 0001:0000afe0
   461 0001:0000afe2   462 0001:0000afe8   464 0001:0000aff8   470 0001:0000b00b
   472 0001:0000b010   475 0001:0000b014   478 0001:0000b01f   482 0001:0000b02c
   483 0001:0000b032   487 0001:0000b04c   491 0001:0000b061   492 0001:0000b077
   493 0001:0000b090   497 0001:0000b099   500 0001:0000b09f   503 0001:0000b0a7
   509 0001:0000b0bd   513 0001:0000b0e6   514 0001:0000b0fa   517 0001:0000b0fe
   522 0001:0000b108   523 0001:0000b110   525 0001:0000b119   811 0001:0000b11b
   805 0001:0000b11b   814 0001:0000b12d   815 0001:0000b14c   850 0001:0000b14f
   819 0001:0000b150   823 0001:0000b161   827 0001:0000b168   828 0001:0000b188
   832 0001:0000b18c   834 0001:0000b1a6   835 0001:0000b1b6   841 0001:0000b1b8
   844 0001:0000b1c1   847 0001:0000b1c7   849 0001:0000b1cd   850 0001:0000b1d1
   872 0001:0000b1d2   873 0001:0000b1d7   886 0001:0000b1da   887 0001:0000b1e3
   890 0001:0000b1e7   891 0001:0000b1e9   888 0001:0000b1ea   895 0001:0000b1ee
   900 0001:0000b203   907 0001:0000b20f   908 0001:0000b22e   912 0001:0000b236
   915 0001:0000b23c   918 0001:0000b24e   919 0001:0000b252   925 0001:0000b259
   927 0001:0000b261   930 0001:0000b271   915 0001:0000b283   935 0001:0000b286
   937 0001:0000b28e   938 0001:0000b294   941 0001:0000b297   942 0001:0000b29d
   944 0001:0000b2a0   945 0001:0000b2a5   946 0001:0000b2af   947 0001:0000b2b8
   950 0001:0000b2c3   952 0001:0000b2d1   953 0001:0000b2d6   975 0001:0000b2d8
   994 0001:0000b2de   997 0001:0000b2ea   998 0001:0000b2f5   999 0001:0000b2f8
  1003 0001:0000b30a  1010 0001:0000b311  1013 0001:0000b325  1019 0001:0000b338
  1020 0001:0000b33f  1021 0001:0000b347  1024 0001:0000b34d  1029 0001:0000b355
  1031 0001:0000b358  1032 0001:0000b361  1033 0001:0000b372  1035 0001:0000b377
  1038 0001:0000b379  1039 0001:0000b37e  1040 0001:0000b392  1045 0001:0000b398
  1046 0001:0000b3a1  1049 0001:0000b3aa  1055 0001:0000b3bc  1056 0001:0000b3c6
  1057 0001:0000b3cf  1061 0001:0000b3d2  1062 0001:0000b3db  1063 0001:0000b3e1
  1064 0001:0000b3e7  1065 0001:0000b3ea  1068 0001:0000b3f0  1074 0001:0000b3f8
  1075 0001:0000b410  1076 0001:0000b41e  1078 0001:0000b424  1080 0001:0000b426
  1081 0001:0000b42c  1083 0001:0000b43c  1088 0001:0000b44f  1090 0001:0000b45b
  1094 0001:0000b464  1096 0001:0000b46a  1100 0001:0000b46e  1014 0001:0000b473
  1100 0001:0000b47a  1103 0001:0000b480  1109 0001:0000b483  1112 0001:0000b490
  1113 0001:0000b497  1114 0001:0000b4a2  1117 0001:0000b4a5  1122 0001:0000b4af
  1123 0001:0000b4b6  1124 0001:0000b4bb  1127 0001:0000b4be  1132 0001:0000b4c6
  1135 0001:0000b4c9  1136 0001:0000b4d4  1137 0001:0000b4e2  1139 0001:0000b4e7
  1142 0001:0000b4e9  1143 0001:0000b4ee  1145 0001:0000b4ff  1150 0001:0000b508
  1151 0001:0000b511  1154 0001:0000b51a  1155 0001:0000b523  1156 0001:0000b527
  1157 0001:0000b52c  1163 0001:0000b52f  1164 0001:0000b535  1165 0001:0000b538
  1166 0001:0000b53e  1167 0001:0000b541  1170 0001:0000b547  1176 0001:0000b54f
  1177 0001:0000b567  1178 0001:0000b575  1180 0001:0000b57b  1182 0001:0000b57d
  1183 0001:0000b583  1185 0001:0000b593  1190 0001:0000b5a6  1192 0001:0000b5ab
  1195 0001:0000b5af  1196 0001:0000b5b5   546 0001:0000b5b7   564 0001:0000b5bd
   582 0001:0000b5d5   583 0001:0000b5de   585 0001:0000b5e9   586 0001:0000b5ee
   588 0001:0000b5f2   591 0001:0000b5f4   596 0001:0000b601   597 0001:0000b60b
   600 0001:0000b60f   602 0001:0000b61d   597 0001:0000b626   606 0001:0000b628
   608 0001:0000b62d   612 0001:0000b631   614 0001:0000b63f   609 0001:0000b642
   614 0001:0000b644   619 0001:0000b649   651 0001:0000b651   653 0001:0000b657
   654 0001:0000b65a   659 0001:0000b65c   665 0001:0000b678   666 0001:0000b69d
   665 0001:0000b6ab   668 0001:0000b6ae   674 0001:0000b6c0   677 0001:0000b6ca
   682 0001:0000b6d7   623 0001:0000b6d9   625 0001:0000b6df   621 0001:0000b6e5
   629 0001:0000b6ea   631 0001:0000b6ef   634 0001:0000b6f3   636 0001:0000b6f9
   632 0001:0000b6fc   636 0001:0000b6fe   640 0001:0000b703   641 0001:0000b707
   642 0001:0000b713   647 0001:0000b715   648 0001:0000b72d   681 0001:0000b734
   682 0001:0000b736   679 0001:0000b737   684 0001:0000b73b   689 0001:0000b742
   690 0001:0000b747   691 0001:0000b74d   692 0001:0000b755   695 0001:0000b758
   698 0001:0000b760   702 0001:0000b768   705 0001:0000b76b   706 0001:0000b779
   707 0001:0000b78e   709 0001:0000b796   712 0001:0000b798   713 0001:0000b7a7
   714 0001:0000b7b6   723 0001:0000b7c4   727 0001:0000b7e0   728 0001:0000b7e6
   729 0001:0000b7e9   730 0001:0000b7ef   731 0001:0000b7f2   734 0001:0000b7f8
   740 0001:0000b800   741 0001:0000b818   743 0001:0000b823   745 0001:0000b833
   747 0001:0000b835   749 0001:0000b83b   751 0001:0000b848   745 0001:0000b85e
   758 0001:0000b861   760 0001:0000b865   762 0001:0000b867   767 0001:0000b870
   769 0001:0000b87a   772 0001:0000b87e   776 0001:0000b88c   777 0001:0000b89f
   780 0001:0000b8a6   782 0001:0000b8ab   783 0001:0000b8b1

Line numbers for C:\Program Files\Microsoft Visual Studio .NET 2003\Vc7\lib\LIBCMT.lib(f:\vs70builds\6030\vc\crtbld\crt\src\realloc.c) segment .text

    64 0001:000119ee    69 0001:000119fa    70 0001:00011a03    73 0001:00011a10
    75 0001:00011a17    76 0001:00011a1d    81 0001:00011a22    88 0001:00011a2f
    89 0001:00011a32    92 0001:00011a3b    93 0001:00011a43    98 0001:00011a46
   102 0001:00011a58   104 0001:00011a60   105 0001:00011a6f   106 0001:00011a72
   109 0001:00011a82   110 0001:00011a89   112 0001:00011a99   113 0001:00011aa2
   120 0001:00011aac   122 0001:00011ab1   123 0001:00011ab5   125 0001:00011abb
   126 0001:00011ac4   129 0001:00011ad9   130 0001:00011ae0   131 0001:00011af0
   146 0001:00011b05   148 0001:00011b0a   149 0001:00011b0e   151 0001:00011b11
   152 0001:00011b1a   161 0001:00011b2c   172 0001:00011b3b   173 0001:00011b4a
   158 0001:00011b4c   138 0001:00011b4e   140 0001:00011b56   280 0001:00011b5f
   281 0001:00011b63   282 0001:00011b66   290 0001:00011b75   301 0001:00011b81
   278 0001:00011b8c   286 0001:00011b91   287 0001:00011b97   286 0001:00011b99
   307 0001:00011b9a

Line numbers for C:\Program Files\Microsoft Visual Studio .NET 2003\Vc7\lib\LIBCMT.lib(f:\vs70builds\6030\vc\crtbld\crt\src\msize.c) segment .text

    39 0001:00011c1b    44 0001:00011c27    49 0001:00011c30    50 0001:00011c38
    52 0001:00011c3c    54 0001:00011c4d    61 0001:00011c64    89 0001:00011c6a
    92 0001:00011c7d    94 0001:00011c7f    57 0001:00011c85    58 0001:00011c88

Line numbers for C:\Program Files\Microsoft Visual Studio .NET 2003\Vc7\lib\LIBCMT.lib(f:\vs70builds\6030\vc\crtbld\crt\src\malloc.c) segment .text

   142 0001:00008e1d   156 0001:00008e29   152 0001:00008e2c   156 0001:00008e35
   159 0001:00008e3d   160 0001:00008e45   162 0001:00008e49   169 0001:00008e5c
   170 0001:00008e61   205 0001:00008e63   206 0001:00008e67   208 0001:00008e68
   209 0001:00008e71   211 0001:00008e77   212 0001:00008e86   165 0001:00008e8c
   166 0001:00008e8f    94 0001:00008e98    90 0001:00008e98    95 0001:00008e9d
   106 0001:00008e9f   113 0001:00008ea8   117 0001:00008eb3   121 0001:00008ebf
   118 0001:00008ec1   122 0001:00008ec3    54 0001:00008ec4    53 0001:00008ec4
    59 0001:00008ed5

Line numbers for C:\Program Files\Microsoft Visual Studio .NET 2003\Vc7\lib\LIBCMT.lib(f:\vs70builds\6030\vc\crtbld\crt\src\heapinit.c) segment .text

   123 0001:0000ac42    69 0001:0000ac42   124 0001:0000ac54   142 0001:0000ac57
   139 0001:0000ac58   142 0001:0000ac5b   170 0001:0000ac5c   173 0001:0000ac5c
   174 0001:0000ac7a   178 0001:0000ac7c   180 0001:0000ac81   183 0001:0000ac8b
   185 0001:0000ac9a   186 0001:0000aca6   202 0001:0000aca8   201 0001:0000aca9
   202 0001:0000acac   226 0001:0000acad   223 0001:0000acad   232 0001:0000acb7
   235 0001:0000acd9   236 0001:0000ace7   239 0001:0000acf2   241 0001:0000acff
   244 0001:0000ad0d   263 0001:0000ad1f   264 0001:0000ad2b

Line numbers for C:\Program Files\Microsoft Visual Studio .NET 2003\Vc7\lib\LIBCMT.lib(f:\vs70builds\6030\vc\crtbld\crt\src\free.c) segment .text

    42 0001:0000b8b3    45 0001:0000b8bf    51 0001:0000b8c6    56 0001:0000b8cf
    57 0001:0000b8d7    60 0001:0000b8db    61 0001:0000b8e9    70 0001:0000b8fb
    71 0001:0000b901    98 0001:0000b904    66 0001:0000b906   101 0001:0000b90f
   103 0001:0000b91e

Line numbers for C:\Program Files\Microsoft Visual Studio .NET 2003\Vc7\lib\LIBCMT.lib(f:\vs70builds\6030\vc\crtbld\crt\src\calloc.c) segment .text

    46 0001:00008a11    51 0001:00008a1d    53 0001:00008a30    55 0001:00008a37
    59 0001:00008a40    60 0001:00008a44    64 0001:00008a45    66 0001:00008a4a
    69 0001:00008a4f    73 0001:00008a58    75 0001:00008a61    80 0001:00008a6c
    81 0001:00008a74    83 0001:00008a77    91 0001:00008a8a    92 0001:00008a91
   124 0001:00008a9f   125 0001:00008aa3   128 0001:00008ab4   135 0001:00008ac0
   136 0001:00008acf    86 0001:00008ad4    87 0001:00008ad7   131 0001:00008ae0
   141 0001:00008ae2

Line numbers for C:\Program Files\Microsoft Visual Studio .NET 2003\Vc7\lib\LIBCMT.lib(f:\vs70builds\6030\vc\crtbld\crt\src\resetstk.c) segment .text

    30 0001:00011726    40 0001:0001172f    44 0001:00011739    45 0001:00011748
    46 0001:0001174a    51 0001:0001174d    52 0001:00011757    63 0001:0001175a
    65 0001:0001177a    66 0001:0001177f    73 0001:00011781    77 0001:00011786
    79 0001:0001178e    81 0001:000117a1    82 0001:000117a7    88 0001:000117ac
    89 0001:000117b8    94 0001:000117bd    95 0001:000117c1   100 0001:000117c5
   101 0001:000117c9   103 0001:000117cc   105 0001:000117db   106 0001:000117e2
   113 0001:000117e5   115 0001:000117ef   116 0001:00011801

Line numbers for C:\Program Files\Microsoft Visual Studio .NET 2003\Vc7\lib\LIBCMT.lib(f:\vs70builds\6030\vc\crtbld\crt\src\dosmap.c) segment .text

   161 0001:0000a191   160 0001:0000a191   162 0001:0000a199   168 0001:0000a19a
   167 0001:0000a19a   169 0001:0000a1a2   110 0001:0000a1a3   113 0001:0000a1a4
   116 0001:0000a1b0   117 0001:0000a1b2   127 0001:0000a1c1   128 0001:0000a1cb
   133 0001:0000a1d8   118 0001:0000a1d9   133 0001:0000a1e9   129 0001:0000a1ea
   130 0001:0000a1fa   133 0001:0000a207   132 0001:0000a208   133 0001:0000a215

Line numbers for C:\Program Files\Microsoft Visual Studio .NET 2003\Vc7\lib\LIBCMT.lib(f:\vs70builds\6030\vc\crtbld\crt\src\wctomb.c) segment .text

    63 0001:0000d935    65 0001:0000d938    67 0001:0000d942    71 0001:0000d946
    76 0001:0000d94e    79 0001:0000d956    82 0001:0000d958    83 0001:0000d95a
   106 0001:0000d95f   112 0001:0000d982   108 0001:0000d984   109 0001:0000d98f
   115 0001:0000d993    48 0001:0000d995    50 0001:0000d995    52 0001:0000d99d
    53 0001:0000d9a5    55 0001:0000d9aa    56 0001:0000d9bb

Line numbers for C:\Program Files\Microsoft Visual Studio .NET 2003\Vc7\lib\LIBCMT.lib(f:\vs70builds\6030\vc\crtbld\crt\src\tolower.c) segment .text

   101 0001:0000c918   115 0001:0000c91d   120 0001:0000c93e   123 0001:0000c949
   128 0001:0000c966   134 0001:0000c968   142 0001:0000c97a   143 0001:0000c987
   144 0001:0000c989   145 0001:0000c98c   146 0001:0000c990   165 0001:0000c992
   167 0001:0000c9b3   171 0001:0000c9b5   172 0001:0000c9b9   174 0001:0000c9bf
   116 0001:0000c9cc   176 0001:0000c9de    72 0001:0000c9e0    75 0001:0000c9e0
    77 0001:0000c9e8    78 0001:0000c9f0    80 0001:0000c9f5    81 0001:0000ca01

Line numbers for C:\Program Files\Microsoft Visual Studio .NET 2003\Vc7\lib\LIBCMT.lib(f:\vs70builds\6030\vc\crtbld\crt\src\isctype.c) segment .text

   121 0001:000102c4   128 0001:000102c8   130 0001:000102d4   136 0001:000102e3
   144 0001:000102f8   145 0001:00010305   146 0001:00010307   148 0001:0001030a
   162 0001:00010311   168 0001:00010330   167 0001:00010332   168 0001:00010339

Line numbers for C:\Program Files\Microsoft Visual Studio .NET 2003\Vc7\lib\LIBCMT.lib(f:\vs70builds\6030\vc\crtbld\crt\src\atox.c) segment .text

    48 0001:00012470    53 0001:00012472    55 0001:0001247a    56 0001:00012482
    59 0001:0001248d    63 0001:000124b2    65 0001:000124b5    67 0001:000124b9
    68 0001:000124c5    70 0001:000124c9    72 0001:000124cb    73 0001:000124e2
    74 0001:000124e8    75 0001:000124ec    77 0001:000124ee    78 0001:000124f5
    81 0001:000124f7

Line numbers for C:\Program Files\Microsoft Visual Studio .NET 2003\Vc7\lib\LIBCMT.lib(f:\vs70builds\6030\vc\crtbld\crt\src\_fptostr.c) segment .text

    46 0001:0000d1e8    48 0001:0000d1eb    62 0001:0000d1f2    63 0001:0000d20b
    62 0001:0000d222    73 0001:0000d225    74 0001:0000d231    76 0001:0000d233
    77 0001:0000d23c    80 0001:0000d23e    85 0001:0000d243    87 0001:0000d246
    91 0001:0000d248    93 0001:0000d25d

Line numbers for C:\Program Files\Microsoft Visual Studio .NET 2003\Vc7\lib\LIBCMT.lib(f:\vs70builds\6030\vc\crtbld\crt\src\_ctype.c) segment .text

    96 0001:0000c8de    94 0001:0000c8de    98 0001:0000c8e6    99 0001:0000c8ee
   101 0001:0000c8f3   105 0001:0000c908   101 0001:0000c909   105 0001:0000c917

 Exports

  ordinal    name

        3    _CloseDriver
               exported name: CloseDriver
        4    _DefDriverProc
               exported name: DefDriverProc
        5    _DriverCallback
               exported name: DriverCallback
        6    _DrvGetModuleHandle
               exported name: DrvGetModuleHandle
        7    _GetDriverModuleHandle
               exported name: GetDriverModuleHandle
        8    _MigrateAllDrivers
               exported name: MigrateAllDrivers
        9    _MigrateSoundEvents
               exported name: MigrateSoundEvents
       10    _NotifyCallbackData
               exported name: NotifyCallbackData
       11    _OpenDriver
               exported name: OpenDriver
       12    _PlaySound
               exported name: PlaySound
       13    _PlaySoundA
               exported name: PlaySoundA
       14    _PlaySoundW
               exported name: PlaySoundW
       15    _SendDriverMessage
               exported name: SendDriverMessage
       16    _WOW32DriverCallback
               exported name: WOW32DriverCallback
       17    _WOW32ResolveMultiMediaHandle
               exported name: WOW32ResolveMultiMediaHandle
       18    _WOWAppExit
               exported name: WOWAppExit
       19    _WinmmLogoff
               exported name: WinmmLogoff
       20    _WinmmLogon
               exported name: WinmmLogon
       21    _aux32Message
               exported name: aux32Message
       22    _auxGetDevCapsA
               exported name: auxGetDevCapsA
       23    _auxGetDevCapsW
               exported name: auxGetDevCapsW
       24    _auxGetNumDevs
               exported name: auxGetNumDevs
       25    _auxGetVolume
               exported name: auxGetVolume
       26    _auxOutMessage
               exported name: auxOutMessage
       27    _auxSetVolume
               exported name: auxSetVolume
       28    _gfxAddGfx
               exported name: gfxAddGfx
       29    _gfxBatchChange
               exported name: gfxBatchChange
       30    _gfxCreateGfxFactoriesList
               exported name: gfxCreateGfxFactoriesList
       31    _gfxCreateZoneFactoriesList
               exported name: gfxCreateZoneFactoriesList
       32    _gfxDestroyDeviceInterfaceList
               exported name: gfxDestroyDeviceInterfaceList
       33    _gfxEnumerateGfxs
               exported name: gfxEnumerateGfxs
       34    __gfxLogoff
               exported name: _gfxLogoff
       35    __gfxLogon
               exported name: _gfxLogon
       36    _gfxModifyGfx
               exported name: gfxModifyGfx
       37    _gfxOpenGfx
               exported name: gfxOpenGfx
       38    _gfxRemoveGfx
               exported name: gfxRemoveGfx
       39    _joy32Message
               exported name: joy32Message
       40    _joyConfigChanged
               exported name: joyConfigChanged
       41    _joyGetDevCapsA@12
               exported name: joyGetDevCapsA
       42    _joyGetDevCapsW
               exported name: joyGetDevCapsW
       43    _joyGetNumDevs@0
               exported name: joyGetNumDevs
       44    _joyGetPos@8
               exported name: joyGetPos
       45    _joyGetPosEx@8
               exported name: joyGetPosEx
       46    _joyGetThreshold
               exported name: joyGetThreshold
       47    _joyReleaseCapture
               exported name: joyReleaseCapture
       48    _joySetCapture
               exported name: joySetCapture
       49    _joySetThreshold
               exported name: joySetThreshold
       50    _mci32Message
               exported name: mci32Message
       51    _mciDriverNotify
               exported name: mciDriverNotify
       52    _mciDriverYield
               exported name: mciDriverYield
       53    _mciExecute
               exported name: mciExecute
       54    _mciFreeCommandResource
               exported name: mciFreeCommandResource
       55    _mciGetCreatorTask
               exported name: mciGetCreatorTask
       56    _mciGetDeviceIDA
               exported name: mciGetDeviceIDA
       57    _mciGetDeviceIDFromElementIDA
               exported name: mciGetDeviceIDFromElementIDA
       58    _mciGetDeviceIDFromElementIDW
               exported name: mciGetDeviceIDFromElementIDW
       59    _mciGetDeviceIDW
               exported name: mciGetDeviceIDW
       60    _mciGetDriverData
               exported name: mciGetDriverData
       61    _mciGetErrorStringA
               exported name: mciGetErrorStringA
       62    _mciGetErrorStringW
               exported name: mciGetErrorStringW
       63    _mciGetYieldProc
               exported name: mciGetYieldProc
       64    _mciLoadCommandResource
               exported name: mciLoadCommandResource
       65    _mciSendCommandA
               exported name: mciSendCommandA
       66    _mciSendCommandW
               exported name: mciSendCommandW
       67    _mciSendStringA
               exported name: mciSendStringA
       68    _mciSendStringW
               exported name: mciSendStringW
       69    _mciSetDriverData
               exported name: mciSetDriverData
       70    _mciSetYieldProc
               exported name: mciSetYieldProc
       71    _mid32Message
               exported name: mid32Message
       72    _midiConnect
               exported name: midiConnect
       73    _midiDisconnect
               exported name: midiDisconnect
       74    _midiInAddBuffer
               exported name: midiInAddBuffer
       75    _midiInClose
               exported name: midiInClose
       76    _midiInGetDevCapsA
               exported name: midiInGetDevCapsA
       77    _midiInGetDevCapsW
               exported name: midiInGetDevCapsW
       78    _midiInGetErrorTextA
               exported name: midiInGetErrorTextA
       79    _midiInGetErrorTextW
               exported name: midiInGetErrorTextW
       80    _midiInGetID
               exported name: midiInGetID
       81    _midiInGetNumDevs
               exported name: midiInGetNumDevs
       82    _midiInMessage
               exported name: midiInMessage
       83    _midiInOpen
               exported name: midiInOpen
       84    _midiInPrepareHeader
               exported name: midiInPrepareHeader
       85    _midiInReset
               exported name: midiInReset
       86    _midiInStart
               exported name: midiInStart
       87    _midiInStop
               exported name: midiInStop
       88    _midiInUnprepareHeader
               exported name: midiInUnprepareHeader
       89    _midiOutCacheDrumPatches
               exported name: midiOutCacheDrumPatches
       90    _midiOutCachePatches
               exported name: midiOutCachePatches
       91    _midiOutClose
               exported name: midiOutClose
       92    _midiOutGetDevCapsA
               exported name: midiOutGetDevCapsA
       93    _midiOutGetDevCapsW
               exported name: midiOutGetDevCapsW
       94    _midiOutGetErrorTextA
               exported name: midiOutGetErrorTextA
       95    _midiOutGetErrorTextW
               exported name: midiOutGetErrorTextW
       96    _midiOutGetID
               exported name: midiOutGetID
       97    _midiOutGetNumDevs
               exported name: midiOutGetNumDevs
       98    _midiOutGetVolume
               exported name: midiOutGetVolume
       99    _midiOutLongMsg
               exported name: midiOutLongMsg
      100    _midiOutMessage
               exported name: midiOutMessage
      101    _midiOutOpen
               exported name: midiOutOpen
      102    _midiOutPrepareHeader
               exported name: midiOutPrepareHeader
      103    _midiOutReset
               exported name: midiOutReset
      104    _midiOutSetVolume
               exported name: midiOutSetVolume
      105    _midiOutShortMsg
               exported name: midiOutShortMsg
      106    _midiOutUnprepareHeader
               exported name: midiOutUnprepareHeader
      107    _midiStreamClose
               exported name: midiStreamClose
      108    _midiStreamOpen
               exported name: midiStreamOpen
      109    _midiStreamOut
               exported name: midiStreamOut
      110    _midiStreamPause
               exported name: midiStreamPause
      111    _midiStreamPosition
               exported name: midiStreamPosition
      112    _midiStreamProperty
               exported name: midiStreamProperty
      113    _midiStreamRestart
               exported name: midiStreamRestart
      114    _midiStreamStop
               exported name: midiStreamStop
      115    _mixerClose
               exported name: mixerClose
      116    _mixerGetControlDetailsA
               exported name: mixerGetControlDetailsA
      117    _mixerGetControlDetailsW
               exported name: mixerGetControlDetailsW
      118    _mixerGetDevCapsA
               exported name: mixerGetDevCapsA
      119    _mixerGetDevCapsW
               exported name: mixerGetDevCapsW
      120    _mixerGetID
               exported name: mixerGetID
      121    _mixerGetLineControlsA
               exported name: mixerGetLineControlsA
      122    _mixerGetLineControlsW
               exported name: mixerGetLineControlsW
      123    _mixerGetLineInfoA
               exported name: mixerGetLineInfoA
      124    _mixerGetLineInfoW
               exported name: mixerGetLineInfoW
      125    _mixerGetNumDevs
               exported name: mixerGetNumDevs
      126    _mixerMessage
               exported name: mixerMessage
      127    _mixerOpen
               exported name: mixerOpen
      128    _mixerSetControlDetails
               exported name: mixerSetControlDetails
      129    _mmDrvInstall
               exported name: mmDrvInstall
      130    _mmGetCurrentTask
               exported name: mmGetCurrentTask
      131    _mmTaskBlock
               exported name: mmTaskBlock
      132    _mmTaskCreate
               exported name: mmTaskCreate
      133    _mmTaskSignal
               exported name: mmTaskSignal
      134    _mmTaskYield
               exported name: mmTaskYield
      135    _mmioAdvance
               exported name: mmioAdvance
      136    _mmioAscend
               exported name: mmioAscend
      137    _mmioClose
               exported name: mmioClose
      138    _mmioCreateChunk
               exported name: mmioCreateChunk
      139    _mmioDescend
               exported name: mmioDescend
      140    _mmioFlush
               exported name: mmioFlush
      141    _mmioGetInfo
               exported name: mmioGetInfo
      142    _mmioInstallIOProcA
               exported name: mmioInstallIOProcA
      143    _mmioInstallIOProcW
               exported name: mmioInstallIOProcW
      144    _mmioOpenA
               exported name: mmioOpenA
      145    _mmioOpenW
               exported name: mmioOpenW
      146    _mmioRead
               exported name: mmioRead
      147    _mmioRenameA
               exported name: mmioRenameA
      148    _mmioRenameW
               exported name: mmioRenameW
      149    _mmioSeek
               exported name: mmioSeek
      150    _mmioSendMessage
               exported name: mmioSendMessage
      151    _mmioSetBuffer
               exported name: mmioSetBuffer
      152    _mmioSetInfo
               exported name: mmioSetInfo
      153    _mmioStringToFOURCCA
               exported name: mmioStringToFOURCCA
      154    _mmioStringToFOURCCW
               exported name: mmioStringToFOURCCW
      155    _mmioWrite
               exported name: mmioWrite
      156    _mmsystemGetVersion
               exported name: mmsystemGetVersion
      157    _mod32Message
               exported name: mod32Message
      158    _mxd32Message
               exported name: mxd32Message
      159    _sndPlaySoundA
               exported name: sndPlaySoundA
      160    _sndPlaySoundW
               exported name: sndPlaySoundW
      161    _tid32Message
               exported name: tid32Message
      162    _timeBeginPeriod
               exported name: timeBeginPeriod
      163    _timeEndPeriod
               exported name: timeEndPeriod
      164    _timeGetDevCaps
               exported name: timeGetDevCaps
      165    _timeGetSystemTime
               exported name: timeGetSystemTime
      166    _timeGetTime
               exported name: timeGetTime
      167    _timeKillEvent
               exported name: timeKillEvent
      168    _timeSetEvent
               exported name: timeSetEvent
      169    _waveInAddBuffer
               exported name: waveInAddBuffer
      170    _waveInClose
               exported name: waveInClose
      171    _waveInGetDevCapsA
               exported name: waveInGetDevCapsA
      172    _waveInGetDevCapsW
               exported name: waveInGetDevCapsW
      173    _waveInGetErrorTextA
               exported name: waveInGetErrorTextA
      174    _waveInGetErrorTextW
               exported name: waveInGetErrorTextW
      175    _waveInGetID
               exported name: waveInGetID
      176    _waveInGetNumDevs
               exported name: waveInGetNumDevs
      177    _waveInGetPosition
               exported name: waveInGetPosition
      178    _waveInMessage
               exported name: waveInMessage
      179    _waveInOpen
               exported name: waveInOpen
      180    _waveInPrepareHeader
               exported name: waveInPrepareHeader
      181    _waveInReset
               exported name: waveInReset
      182    _waveInStart
               exported name: waveInStart
      183    _waveInStop
               exported name: waveInStop
      184    _waveInUnprepareHeader
               exported name: waveInUnprepareHeader
      185    _waveOutBreakLoop
               exported name: waveOutBreakLoop
      186    _waveOutClose
               exported name: waveOutClose
      187    _waveOutGetDevCapsA
               exported name: waveOutGetDevCapsA
      188    _waveOutGetDevCapsW
               exported name: waveOutGetDevCapsW
      189    _waveOutGetErrorTextA
               exported name: waveOutGetErrorTextA
      190    _waveOutGetErrorTextW
               exported name: waveOutGetErrorTextW
      191    _waveOutGetID
               exported name: waveOutGetID
      192    _waveOutGetNumDevs
               exported name: waveOutGetNumDevs
      193    _waveOutGetPitch
               exported name: waveOutGetPitch
      194    _waveOutGetPlaybackRate
               exported name: waveOutGetPlaybackRate
      195    _waveOutGetPosition
               exported name: waveOutGetPosition
      196    _waveOutGetVolume
               exported name: waveOutGetVolume
      197    _waveOutMessage
               exported name: waveOutMessage
      198    _waveOutOpen
               exported name: waveOutOpen
      199    _waveOutPause
               exported name: waveOutPause
      200    _waveOutPrepareHeader
               exported name: waveOutPrepareHeader
      201    _waveOutReset
               exported name: waveOutReset
      202    _waveOutRestart
               exported name: waveOutRestart
      203    _waveOutSetPitch
               exported name: waveOutSetPitch
      204    _waveOutSetPlaybackRate
               exported name: waveOutSetPlaybackRate
      205    _waveOutSetVolume
               exported name: waveOutSetVolume
      206    _waveOutUnprepareHeader
               exported name: waveOutUnprepareHeader
      207    _waveOutWrite
               exported name: waveOutWrite
      208    _wid32Message
               exported name: wid32Message
      209    _winmmDbgOut
               exported name: winmmDbgOut
      210    _winmmSetDebugLevel
               exported name: winmmSetDebugLevel
      211    _wod32Message
               exported name: wod32Message
