 SppConsole

 Timestamp is 4995dcaa (Fri Feb 13 22:48:42 2009)

 Preferred load address is 00400000

 Start         Length     Name                   Class
 0001:00000000 0001b82cH .text                   CODE
 0001:0001b830 000009b5H .text$x                 CODE
 0001:0001c1f0 00000556H .text$yc                CODE
 0001:0001c750 000000dfH .text$yd                CODE
 0002:00000000 000008d0H .idata$5                DATA
 0002:000008d0 0000c028H .rdata                  DATA
 0002:0000c8f8 00000053H .rdata$debug            DATA
 0002:0000c94c 00000044H .rdata$r                DATA
 0002:0000c990 00000124H .rdata$sxdata           DATA
 0002:0000cab4 00000004H .rtc$IAA                DATA
 0002:0000cab8 00000004H .rtc$IMZ                DATA
 0002:0000cabc 00000004H .rtc$IZZ                DATA
 0002:0000cac0 00000004H .rtc$TAA                DATA
 0002:0000cac4 00000004H .rtc$TMZ                DATA
 0002:0000cac8 00000004H .rtc$TZZ                DATA
 0002:0000cacc 00000c5cH .xdata$x                DATA
 0002:0000d728 00000004H ATL$__a                 DATA
 0002:0000d72c 00000004H ATL$__z                 DATA
 0002:0000d730 000000f0H .idata$2                DATA
 0002:0000d820 00000014H .idata$3                DATA
 0002:0000d834 000008d0H .idata$4                DATA
 0002:0000e104 00000e84H .idata$6                DATA
 0002:0000ef88 00000000H .edata                  DATA
 0003:00000000 00000004H .CRT$XCA                DATA
 0003:00000004 00000004H .CRT$XCAA               DATA
 0003:00000008 0000000cH .CRT$XCC                DATA
 0003:00000014 00000074H .CRT$XCL                DATA
 0003:00000088 00000008H .CRT$XCU                DATA
 0003:00000090 00000004H .CRT$XCZ                DATA
 0003:00000094 00000004H .CRT$XIA                DATA
 0003:00000098 00000004H .CRT$XIZ                DATA
 0003:000000a0 00000fc0H .data                   DATA
 0003:00001060 000002c8H .bss                    DATA
 0004:00000000 00000550H .rsrc$01                DATA
 0004:00000550 00002910H .rsrc$02                DATA

  Address         Publics by Value              Rva+Base     Lib:Object

 0000:00000000       __except_list              00000000     <absolute>
 0000:00000049       ___safe_se_handler_count   00000049     <absolute>
 0000:00009876       __fltused                  00009876     <absolute>
 0000:00009876       __ldused                   00009876     <absolute>
 0000:00000000       ___ImageBase               00400000     <linker-defined>
 0001:00000000       ??0CAboutDlg@@QAE@PAVCWnd@@@Z 00401000 f   AboutDlg.obj
 0001:00000070       ?DoDataExchange@CAboutDlg@@MAEXPAVCDataExchange@@@Z 00401070 f   AboutDlg.obj
 0001:00000090       ?GetThisMessageMap@CAboutDlg@@KGPBUAFX_MSGMAP@@XZ 00401090 f   AboutDlg.obj
 0001:000000a0       ?GetMessageMap@CAboutDlg@@MBEPBUAFX_MSGMAP@@XZ 004010a0 f   AboutDlg.obj
 0001:000000b0       ?OnInitDialog@CAboutDlg@@MAEHXZ 004010b0 f   AboutDlg.obj
 0001:000001e0       ??_GCAboutDlg@@UAEPAXI@Z   004011e0 f i AboutDlg.obj
 0001:000001e0       ??_ECAboutDlg@@UAEPAXI@Z   004011e0 f i AboutDlg.obj
 0001:00000210       ??1CAboutDlg@@UAE@XZ       00401210 f i AboutDlg.obj
 0001:00000260       ??1CStaticLink@@UAE@XZ     00401260 f i AboutDlg.obj
 0001:000002c0       ?_AtlGetThreadACPThunk@ATL@@YGIXZ 004012c0 f i AboutDlg.obj
 0001:00000340       ?InterlockedExchangePointer@@YGPAXPAPAXPAX@Z 00401340 f i AboutDlg.obj
 0001:00000360       ?_AtlGetThreadACPFake@ATL@@YGIXZ 00401360 f i AboutDlg.obj
 0001:000003f0       ?_AtlGetThreadACPReal@ATL@@YGIXZ 004013f0 f i AboutDlg.obj
 0001:00000400       ?isSpk@@YA_NI@Z            00401400 f   AudioInput.obj
 0001:00000430       ?GetLineControlByID@@YAIPAUHMIXEROBJ__@@KPAUtagMIXERCONTROLA@@@Z 00401430 f   AudioInput.obj
 0001:00000480       ?Mute@@YAIPAUHMIXER__@@I_N@Z 00401480 f   AudioInput.obj
 0001:00000550       ?GetMuteValue@@YA_NPAUHMIXER__@@IPA_N@Z 00401550 f   AudioInput.obj
 0001:00000620       ?GetSelSrcLineID@@YAJPAUHMIXER__@@I@Z 00401620 f   AudioInput.obj
 0001:00000810       ?SetControlDetailList@@YAIPAUHMIXER__@@PAUtMIXERCONTROLDETAILS_BOOLEAN@@KI@Z 00401810 f   AudioInput.obj
 0001:00000860       ?SetControlDetailList@@YAIPAUHMIXER__@@PAUtMIXERCONTROLDETAILS_UNSIGNED@@KI@Z 00401860 f   AudioInput.obj
 0001:000008b0       ?GetLineControlList@@YAIPAUHMIXEROBJ__@@KPAUtagMIXERCONTROLA@@PAH@Z 004018b0 f   AudioInput.obj
 0001:00000970       ?GetControlDetailList@@YAIPAUHMIXER__@@PAUtagMIXERCONTROLDETAILS_LISTTEXTA@@KI@Z 00401970 f   AudioInput.obj
 0001:000009c0       ?GetControlDetailList@@YAIPAUHMIXER__@@PAUtMIXERCONTROLDETAILS_BOOLEAN@@KI@Z 004019c0 f   AudioInput.obj
 0001:00000a10       ?GetVolumeValue@@YA_NPAUHMIXER__@@IPAJ@Z 00401a10 f   AudioInput.obj
 0001:00000b40       ?SetVolumeValue@@YAHPAUHMIXER__@@IJ@Z 00401b40 f   AudioInput.obj
 0001:00000c50       ??0CAudioInput@@QAE@PAUHWND__@@@Z 00401c50 f   AudioInput.obj
 0001:00000d80       ??1CAudioInput@@UAE@XZ     00401d80 f   AudioInput.obj
 0001:00000e40       ?GetCountMixerDevice@CAudioInput@@QAEHXZ 00401e40 f   AudioInput.obj
 0001:00000e60       ?GetMixerDeviceName@CAudioInput@@QAEPBDH@Z 00401e60 f   AudioInput.obj
 0001:00000ea0       ?GetMixerDeviceInputLineName@CAudioInput@@QAEPBDHH@Z 00401ea0 f   AudioInput.obj
 0001:00000ef0       ?GetMixerDevice@CAudioInput@@QAEPAVCMixerDevice@1@H@Z 00401ef0 f   AudioInput.obj
 0001:00000f30       ?Restore@CAudioInput@@QAEXXZ 00401f30 f   AudioInput.obj
 0001:00000f90       ?GetPreferredMixerDeviceIndex@CAudioInput@@QAEHXZ 00401f90 f   AudioInput.obj
 0001:00001090       ?GetMixerDeviceIndex@CAudioInput@@QAEHPAD@Z 00402090 f   AudioInput.obj
 0001:00001100       ?GetMixerDeviceID@CAudioInput@@QAEHPAD@Z 00402100 f   AudioInput.obj
 0001:00001180       ?SetCurrentMixerDevice@CAudioInput@@QAE_NH@Z 00402180 f   AudioInput.obj
 0001:000011d0       ?GetCurrentMixerDevice@CAudioInput@@QAEHXZ 004021d0 f   AudioInput.obj
 0001:000011f0       ??0CMixerDevice@CAudioInput@@QAE@XZ 004021f0 f   AudioInput.obj
 0001:00001270       ??1CMixerDevice@CAudioInput@@UAE@XZ 00402270 f   AudioInput.obj
 0001:000013d0       ??0CMixerDevice@CAudioInput@@QAE@HPAUHWND__@@@Z 004023d0 f   AudioInput.obj
 0001:00001510       ?AdjustInputVolume@CMixerDevice@CAudioInput@@QAEXK@Z 00402510 f   AudioInput.obj
 0001:000015d0       ?CreateInputLineArray@CMixerDevice@CAudioInput@@IAEHXZ 004025d0 f   AudioInput.obj
 0001:00001940       ?CreatePhysicalDevArray@CMixerDevice@CAudioInput@@QAEHXZ 00402940 f   AudioInput.obj
 0001:00001c80       ?GetInputLineIndex@CMixerDevice@CAudioInput@@QAE_NIPAI@Z 00402c80 f   AudioInput.obj
 0001:00001cf0       ?GetInputLineName@CMixerDevice@CAudioInput@@QAEPBDH@Z 00402cf0 f   AudioInput.obj
 0001:00001d30       ?GetInputLineVolumeValue@CMixerDevice@CAudioInput@@QAEHH@Z 00402d30 f   AudioInput.obj
 0001:00001d70       ?GetInputLineSrcID@CMixerDevice@CAudioInput@@QAE_NPAII@Z 00402d70 f   AudioInput.obj
 0001:00001dd0       ?GetName@CMixerDevice@CAudioInput@@QAEPBDXZ 00402dd0 f   AudioInput.obj
 0001:00001df0       ?GetSelectedInputLine@CMixerDevice@CAudioInput@@QAE_NPAI@Z 00402df0 f   AudioInput.obj
 0001:00002080       ?MuteOutputLine@CMixerDevice@CAudioInput@@QAE_NK_N0@Z 00403080 f   AudioInput.obj
 0001:00002160       ?MuteSelectedInputLine@CMixerDevice@CAudioInput@@QAE_NI_N0@Z 00403160 f   AudioInput.obj
 0001:000021c0       ?RestoreSelectedInputLine@CMixerDevice@CAudioInput@@QAEXI@Z 004031c0 f   AudioInput.obj
 0001:00002220       ?Restore@CMixerDevice@CAudioInput@@QAEHXZ 00403220 f   AudioInput.obj
 0001:000022b0       ?SelectInputLine@CMixerDevice@CAudioInput@@QAEXI@Z 004032b0 f   AudioInput.obj
 0001:00002590       ?SetSelectedInputLine@CMixerDevice@CAudioInput@@QAE_NI@Z 00403590 f   AudioInput.obj
 0001:00002610       ?SetSpeakers@CMixerDevice@CAudioInput@@QAEH_N0@Z 00403610 f   AudioInput.obj
 0001:000026b0       ??0CInputLine@CMixerDevice@CAudioInput@@QAE@XZ 004036b0 f   AudioInput.obj
 0001:000026f0       ??1CInputLine@CMixerDevice@CAudioInput@@UAE@XZ 004036f0 f   AudioInput.obj
 0001:00002760       ??0CInputLine@CMixerDevice@CAudioInput@@QAE@PAUHMIXER__@@KPBDKJ@Z 00403760 f   AudioInput.obj
 0001:000028f0       ?GetVolumeValue@CInputLine@CMixerDevice@CAudioInput@@QAEHXZ 004038f0 f   AudioInput.obj
 0001:000029e0       ?CreateArrayMuteCtrl@CInputLine@CMixerDevice@CAudioInput@@IAEPAV?$CArray@UsMuteLine@CInputLine@CMixerDevice@CAudioInput@@U1234@@@KPBD@Z 004039e0 f   AudioInput.obj
 0001:00002e20       ?GetName@CInputLine@CMixerDevice@CAudioInput@@QAEPBDXZ 00403e20 f   AudioInput.obj
 0001:00002e40       ?GetSrcID@CInputLine@CMixerDevice@CAudioInput@@QAEKXZ 00403e40 f   AudioInput.obj
 0001:00002e60       ?isInitSelected@CInputLine@CMixerDevice@CAudioInput@@QAE_NXZ 00403e60 f   AudioInput.obj
 0001:00002e80       ?RestoreMute@CInputLine@CMixerDevice@CAudioInput@@QAEXXZ 00403e80 f   AudioInput.obj
 0001:00002ef0       ?RestoreVolume@CInputLine@CMixerDevice@CAudioInput@@QAEHXZ 00403ef0 f   AudioInput.obj
 0001:00002fd0       ?SetDefaultVolume@CInputLine@CMixerDevice@CAudioInput@@QAEXXZ 00403fd0 f   AudioInput.obj
 0001:000030d0       ?SetMute@CInputLine@CMixerDevice@CAudioInput@@QAE_N_N0@Z 004040d0 f   AudioInput.obj
 0001:000031a0       ?SetName@CInputLine@CMixerDevice@CAudioInput@@QAEXPBD@Z 004041a0 f   AudioInput.obj
 0001:000031c0       ?SetSrcType@CInputLine@CMixerDevice@CAudioInput@@QAEXK@Z 004041c0 f   AudioInput.obj
 0001:000031e0       ?StoreDefaultVolume@CInputLine@CMixerDevice@CAudioInput@@QAEHXZ 004041e0 f   AudioInput.obj
 0001:000032e0       ??0CPhysicalDevice@CMixerDevice@CAudioInput@@QAE@XZ 004042e0 f   AudioInput.obj
 0001:00003320       ??0CPhysicalDevice@CMixerDevice@CAudioInput@@QAE@PAUHMIXER__@@KK_NKH@Z 00404320 f   AudioInput.obj
 0001:00003370       ??1CPhysicalDevice@CMixerDevice@CAudioInput@@UAE@XZ 00404370 f   AudioInput.obj
 0001:00003390       ?restore@CPhysicalDevice@CMixerDevice@CAudioInput@@QAEXXZ 00404390 f   AudioInput.obj
 0001:000033f0       ?SetMute@CPhysicalDevice@CMixerDevice@CAudioInput@@QAEX_N@Z 004043f0 f   AudioInput.obj
 0001:00003420       ?SetVolume@CPhysicalDevice@CMixerDevice@CAudioInput@@QAEXH@Z 00404420 f   AudioInput.obj
 0001:00003450       ?isValid@CMixerDevice@CAudioInput@@QAE_NXZ 00404450 f   AudioInput.obj
 0001:00003470       ?GetID@CMixerDevice@CAudioInput@@QAEHXZ 00404470 f   AudioInput.obj
 0001:00003490       ??_GCAudioInput@@UAEPAXI@Z 00404490 f i AudioInput.obj
 0001:00003490       ??_ECAudioInput@@UAEPAXI@Z 00404490 f i AudioInput.obj
 0001:000034c0       ??_GCMixerDevice@CAudioInput@@UAEPAXI@Z 004044c0 f i AudioInput.obj
 0001:000034c0       ??_ECMixerDevice@CAudioInput@@UAEPAXI@Z 004044c0 f i AudioInput.obj
 0001:000034f0       ??_GCInputLine@CMixerDevice@CAudioInput@@UAEPAXI@Z 004044f0 f i AudioInput.obj
 0001:000034f0       ??_ECInputLine@CMixerDevice@CAudioInput@@UAEPAXI@Z 004044f0 f i AudioInput.obj
 0001:00003520       ??_GCPhysicalDevice@CMixerDevice@CAudioInput@@UAEPAXI@Z 00404520 f i AudioInput.obj
 0001:00003520       ??_ECPhysicalDevice@CMixerDevice@CAudioInput@@UAEPAXI@Z 00404520 f i AudioInput.obj
 0001:00003550       ??0?$CArray@PAVCInputLine@CMixerDevice@CAudioInput@@PAV123@@@QAE@XZ 00404550 f i AudioInput.obj
 0001:000035a0       ?GetSize@?$CArray@PAVCInputLine@CMixerDevice@CAudioInput@@PAV123@@@QBEHXZ 004045a0 f i AudioInput.obj
 0001:000035c0       ?RemoveAll@?$CArray@PAVCInputLine@CMixerDevice@CAudioInput@@PAV123@@@QAEXXZ 004045c0 f i AudioInput.obj
 0001:000035e0       ?GetAt@?$CArray@PAVCInputLine@CMixerDevice@CAudioInput@@PAV123@@@QAEAAPAVCInputLine@CMixerDevice@CAudioInput@@H@Z 004045e0 f i AudioInput.obj
 0001:00003640       ?Add@?$CArray@PAVCInputLine@CMixerDevice@CAudioInput@@PAV123@@@QAEHPAVCInputLine@CMixerDevice@CAudioInput@@@Z 00404640 f i AudioInput.obj
 0001:00003670       ?RemoveAt@?$CArray@PAVCInputLine@CMixerDevice@CAudioInput@@PAV123@@@QAEXHH@Z 00404670 f i AudioInput.obj
 0001:00003780       ??1?$CArray@PAVCInputLine@CMixerDevice@CAudioInput@@PAV123@@@UAE@XZ 00404780 f i AudioInput.obj
 0001:00003820       ?Serialize@?$CArray@PAVCInputLine@CMixerDevice@CAudioInput@@PAV123@@@UAEXAAVCArchive@@@Z 00404820 f i AudioInput.obj
 0001:000038a0       ?Dump@?$CArray@PAVCInputLine@CMixerDevice@CAudioInput@@PAV123@@@UBEXAAVCDumpContext@@@Z 004048a0 f i AudioInput.obj
 0001:00003920       ?AssertValid@?$CArray@PAVCInputLine@CMixerDevice@CAudioInput@@PAV123@@@UBEXXZ 00404920 f i AudioInput.obj
 0001:00003a10       ??0?$CArray@PAVCPhysicalDevice@CMixerDevice@CAudioInput@@PAV123@@@QAE@XZ 00404a10 f i AudioInput.obj
 0001:00003a60       ?GetSize@?$CArray@PAVCPhysicalDevice@CMixerDevice@CAudioInput@@PAV123@@@QBEHXZ 00404a60 f i AudioInput.obj
 0001:00003a80       ?RemoveAll@?$CArray@PAVCPhysicalDevice@CMixerDevice@CAudioInput@@PAV123@@@QAEXXZ 00404a80 f i AudioInput.obj
 0001:00003aa0       ?GetAt@?$CArray@PAVCPhysicalDevice@CMixerDevice@CAudioInput@@PAV123@@@QAEAAPAVCPhysicalDevice@CMixerDevice@CAudioInput@@H@Z 00404aa0 f i AudioInput.obj
 0001:00003b00       ?Add@?$CArray@PAVCPhysicalDevice@CMixerDevice@CAudioInput@@PAV123@@@QAEHPAVCPhysicalDevice@CMixerDevice@CAudioInput@@@Z 00404b00 f i AudioInput.obj
 0001:00003b30       ?RemoveAt@?$CArray@PAVCPhysicalDevice@CMixerDevice@CAudioInput@@PAV123@@@QAEXHH@Z 00404b30 f i AudioInput.obj
 0001:00003c40       ??1?$CArray@PAVCPhysicalDevice@CMixerDevice@CAudioInput@@PAV123@@@UAE@XZ 00404c40 f i AudioInput.obj
 0001:00003ce0       ?Serialize@?$CArray@PAVCPhysicalDevice@CMixerDevice@CAudioInput@@PAV123@@@UAEXAAVCArchive@@@Z 00404ce0 f i AudioInput.obj
 0001:00003d60       ?Dump@?$CArray@PAVCPhysicalDevice@CMixerDevice@CAudioInput@@PAV123@@@UBEXAAVCDumpContext@@@Z 00404d60 f i AudioInput.obj
 0001:00003de0       ?AssertValid@?$CArray@PAVCPhysicalDevice@CMixerDevice@CAudioInput@@PAV123@@@UBEXXZ 00404de0 f i AudioInput.obj
 0001:00003ed0       ??0?$CArray@PAVCMixerDevice@CAudioInput@@PAV12@@@QAE@XZ 00404ed0 f i AudioInput.obj
 0001:00003f20       ?GetSize@?$CArray@PAVCMixerDevice@CAudioInput@@PAV12@@@QBEHXZ 00404f20 f i AudioInput.obj
 0001:00003f40       ?RemoveAll@?$CArray@PAVCMixerDevice@CAudioInput@@PAV12@@@QAEXXZ 00404f40 f i AudioInput.obj
 0001:00003f60       ?GetAt@?$CArray@PAVCMixerDevice@CAudioInput@@PAV12@@@QAEAAPAVCMixerDevice@CAudioInput@@H@Z 00404f60 f i AudioInput.obj
 0001:00003fc0       ?Add@?$CArray@PAVCMixerDevice@CAudioInput@@PAV12@@@QAEHPAVCMixerDevice@CAudioInput@@@Z 00404fc0 f i AudioInput.obj
 0001:00003ff0       ?RemoveAt@?$CArray@PAVCMixerDevice@CAudioInput@@PAV12@@@QAEXHH@Z 00404ff0 f i AudioInput.obj
 0001:00004100       ??1?$CArray@PAVCMixerDevice@CAudioInput@@PAV12@@@UAE@XZ 00405100 f i AudioInput.obj
 0001:000041a0       ?Serialize@?$CArray@PAVCMixerDevice@CAudioInput@@PAV12@@@UAEXAAVCArchive@@@Z 004051a0 f i AudioInput.obj
 0001:00004220       ?Dump@?$CArray@PAVCMixerDevice@CAudioInput@@PAV12@@@UBEXAAVCDumpContext@@@Z 00405220 f i AudioInput.obj
 0001:000042a0       ?AssertValid@?$CArray@PAVCMixerDevice@CAudioInput@@PAV12@@@UBEXXZ 004052a0 f i AudioInput.obj
 0001:00004390       ??0?$CArray@UsMuteLine@CInputLine@CMixerDevice@CAudioInput@@U1234@@@QAE@XZ 00405390 f i AudioInput.obj
 0001:000043e0       ?GetSize@?$CArray@UsMuteLine@CInputLine@CMixerDevice@CAudioInput@@U1234@@@QBEHXZ 004053e0 f i AudioInput.obj
 0001:00004400       ?GetCount@?$CArray@UsMuteLine@CInputLine@CMixerDevice@CAudioInput@@U1234@@@QBEHXZ 00405400 f i AudioInput.obj
 0001:00004420       ?RemoveAll@?$CArray@UsMuteLine@CInputLine@CMixerDevice@CAudioInput@@U1234@@@QAEXXZ 00405420 f i AudioInput.obj
 0001:00004440       ?GetAt@?$CArray@UsMuteLine@CInputLine@CMixerDevice@CAudioInput@@U1234@@@QAEAAUsMuteLine@CInputLine@CMixerDevice@CAudioInput@@H@Z 00405440 f i AudioInput.obj
 0001:000044a0       ?SetAt@?$CArray@UsMuteLine@CInputLine@CMixerDevice@CAudioInput@@U1234@@@QAEXHUsMuteLine@CInputLine@CMixerDevice@CAudioInput@@@Z 004054a0 f i AudioInput.obj
 0001:00004510       ?Add@?$CArray@UsMuteLine@CInputLine@CMixerDevice@CAudioInput@@U1234@@@QAEHUsMuteLine@CInputLine@CMixerDevice@CAudioInput@@@Z 00405510 f i AudioInput.obj
 0001:00004550       ?Serialize@?$CArray@UsMuteLine@CInputLine@CMixerDevice@CAudioInput@@U1234@@@UAEXAAVCArchive@@@Z 00405550 f i AudioInput.obj
 0001:000045d0       ?Dump@?$CArray@UsMuteLine@CInputLine@CMixerDevice@CAudioInput@@U1234@@@UBEXAAVCDumpContext@@@Z 004055d0 f i AudioInput.obj
 0001:00004650       ?AssertValid@?$CArray@UsMuteLine@CInputLine@CMixerDevice@CAudioInput@@U1234@@@UBEXXZ 00405650 f i AudioInput.obj
 0001:00004740       ??_G?$CArray@PAVCInputLine@CMixerDevice@CAudioInput@@PAV123@@@UAEPAXI@Z 00405740 f i AudioInput.obj
 0001:00004740       ??_E?$CArray@PAVCInputLine@CMixerDevice@CAudioInput@@PAV123@@@UAEPAXI@Z 00405740 f i AudioInput.obj
 0001:00004770       ??_G?$CArray@PAVCPhysicalDevice@CMixerDevice@CAudioInput@@PAV123@@@UAEPAXI@Z 00405770 f i AudioInput.obj
 0001:00004770       ??_E?$CArray@PAVCPhysicalDevice@CMixerDevice@CAudioInput@@PAV123@@@UAEPAXI@Z 00405770 f i AudioInput.obj
 0001:000047a0       ??_E?$CArray@PAVCMixerDevice@CAudioInput@@PAV12@@@UAEPAXI@Z 004057a0 f i AudioInput.obj
 0001:000047a0       ??_G?$CArray@PAVCMixerDevice@CAudioInput@@PAV12@@@UAEPAXI@Z 004057a0 f i AudioInput.obj
 0001:000047d0       ??_G?$CArray@UsMuteLine@CInputLine@CMixerDevice@CAudioInput@@U1234@@@UAEPAXI@Z 004057d0 f i AudioInput.obj
 0001:000047d0       ??_E?$CArray@UsMuteLine@CInputLine@CMixerDevice@CAudioInput@@U1234@@@UAEPAXI@Z 004057d0 f i AudioInput.obj
 0001:00004800       ??1?$CArray@UsMuteLine@CInputLine@CMixerDevice@CAudioInput@@U1234@@@UAE@XZ 00405800 f i AudioInput.obj
 0001:000048a0       ?SetSize@?$CArray@PAVCInputLine@CMixerDevice@CAudioInput@@PAV123@@@QAEXHH@Z 004058a0 f i AudioInput.obj
 0001:00004cb0       ??2@YAPAXIPAX@Z            00405cb0 f i AudioInput.obj
 0001:00004cc0       ?SetAtGrow@?$CArray@PAVCInputLine@CMixerDevice@CAudioInput@@PAV123@@@QAEXHPAVCInputLine@CMixerDevice@CAudioInput@@@Z 00405cc0 f i AudioInput.obj
 0001:00004d30       ??$SerializeElements@PAVCInputLine@CMixerDevice@CAudioInput@@@@YGXAAVCArchive@@PAPAVCInputLine@CMixerDevice@CAudioInput@@H@Z 00405d30 f i AudioInput.obj
 0001:00004e30       ??$DumpElements@PAVCInputLine@CMixerDevice@CAudioInput@@@@YGXAAVCDumpContext@@PBQAVCInputLine@CMixerDevice@CAudioInput@@H@Z 00405e30 f i AudioInput.obj
 0001:00004e70       ?SetSize@?$CArray@PAVCPhysicalDevice@CMixerDevice@CAudioInput@@PAV123@@@QAEXHH@Z 00405e70 f i AudioInput.obj
 0001:00005280       ?SetAtGrow@?$CArray@PAVCPhysicalDevice@CMixerDevice@CAudioInput@@PAV123@@@QAEXHPAVCPhysicalDevice@CMixerDevice@CAudioInput@@@Z 00406280 f i AudioInput.obj
 0001:000052f0       ??$SerializeElements@PAVCPhysicalDevice@CMixerDevice@CAudioInput@@@@YGXAAVCArchive@@PAPAVCPhysicalDevice@CMixerDevice@CAudioInput@@H@Z 004062f0 f i AudioInput.obj
 0001:000053f0       ??$DumpElements@PAVCPhysicalDevice@CMixerDevice@CAudioInput@@@@YGXAAVCDumpContext@@PBQAVCPhysicalDevice@CMixerDevice@CAudioInput@@H@Z 004063f0 f i AudioInput.obj
 0001:00005430       ?SetSize@?$CArray@PAVCMixerDevice@CAudioInput@@PAV12@@@QAEXHH@Z 00406430 f i AudioInput.obj
 0001:00005840       ?SetAtGrow@?$CArray@PAVCMixerDevice@CAudioInput@@PAV12@@@QAEXHPAVCMixerDevice@CAudioInput@@@Z 00406840 f i AudioInput.obj
 0001:000058b0       ??$SerializeElements@PAVCMixerDevice@CAudioInput@@@@YGXAAVCArchive@@PAPAVCMixerDevice@CAudioInput@@H@Z 004068b0 f i AudioInput.obj
 0001:000059b0       ??$DumpElements@PAVCMixerDevice@CAudioInput@@@@YGXAAVCDumpContext@@PBQAVCMixerDevice@CAudioInput@@H@Z 004069b0 f i AudioInput.obj
 0001:000059f0       ?SetSize@?$CArray@UsMuteLine@CInputLine@CMixerDevice@CAudioInput@@U1234@@@QAEXHH@Z 004069f0 f i AudioInput.obj
 0001:00005e00       ?SetAtGrow@?$CArray@UsMuteLine@CInputLine@CMixerDevice@CAudioInput@@U1234@@@QAEXHUsMuteLine@CInputLine@CMixerDevice@CAudioInput@@@Z 00406e00 f i AudioInput.obj
 0001:00005e80       ??$SerializeElements@UsMuteLine@CInputLine@CMixerDevice@CAudioInput@@@@YGXAAVCArchive@@PAUsMuteLine@CInputLine@CMixerDevice@CAudioInput@@H@Z 00406e80 f i AudioInput.obj
 0001:00005f80       ??$DumpElements@UsMuteLine@CInputLine@CMixerDevice@CAudioInput@@@@YGXAAVCDumpContext@@PBUsMuteLine@CInputLine@CMixerDevice@CAudioInput@@H@Z 00406f80 f i AudioInput.obj
 0001:00005fc0       ??0CDefVolumeDlg@@QAE@PAVCWnd@@@Z 00406fc0 f   DefVolumeDlg.obj
 0001:000060e0       ?DoDataExchange@CDefVolumeDlg@@MAEXPAVCDataExchange@@@Z 004070e0 f   DefVolumeDlg.obj
 0001:000061c0       ?GetThisMessageMap@CDefVolumeDlg@@KGPBUAFX_MSGMAP@@XZ 004071c0 f   DefVolumeDlg.obj
 0001:000061d0       ?GetMessageMap@CDefVolumeDlg@@MBEPBUAFX_MSGMAP@@XZ 004071d0 f   DefVolumeDlg.obj
 0001:000061e0       ?OnHScroll@CDefVolumeDlg@@IAEXIIPAVCScrollBar@@@Z 004071e0 f   DefVolumeDlg.obj
 0001:00006330       ?OnInitDialog@CDefVolumeDlg@@MAEHXZ 00407330 f   DefVolumeDlg.obj
 0001:000064e0       ?ChangeEdt@CDefVolumeDlg@@IAEHHPAVCEdit@@PAVCSliderCtrl@@@Z 004074e0 f   DefVolumeDlg.obj
 0001:00006640       ?OnChangeEdtMic@CDefVolumeDlg@@IAEXXZ 00407640 f   DefVolumeDlg.obj
 0001:00006680       ?OnChangeEdtLin@CDefVolumeDlg@@IAEXXZ 00407680 f   DefVolumeDlg.obj
 0001:000066c0       ?OnChangeEdtAux@CDefVolumeDlg@@IAEXXZ 004076c0 f   DefVolumeDlg.obj
 0001:00006700       ?OnChangeEdtAnl@CDefVolumeDlg@@IAEXXZ 00407700 f   DefVolumeDlg.obj
 0001:00006740       ?GetDefaultVolumeValues@CDefVolumeDlg@@IAEXXZ 00407740 f   DefVolumeDlg.obj
 0001:000067b0       ?OnOK@CDefVolumeDlg@@MAEXXZ 004077b0 f   DefVolumeDlg.obj
 0001:00006820       ??_GCDefVolumeDlg@@UAEPAXI@Z 00407820 f i DefVolumeDlg.obj
 0001:00006820       ??_ECDefVolumeDlg@@UAEPAXI@Z 00407820 f i DefVolumeDlg.obj
 0001:00006850       ??1CDefVolumeDlg@@UAE@XZ   00407850 f i DefVolumeDlg.obj
 0001:00006920       ??0CDynamicLED@@QAE@XZ     00407920 f   DynamicLED.obj
 0001:00006a00       ??1CDynamicLED@@UAE@XZ     00407a00 f   DynamicLED.obj
 0001:00006ad0       ?GetThisMessageMap@CDynamicLED@@KGPBUAFX_MSGMAP@@XZ 00407ad0 f   DynamicLED.obj
 0001:00006ae0       ?GetMessageMap@CDynamicLED@@MBEPBUAFX_MSGMAP@@XZ 00407ae0 f   DynamicLED.obj
 0001:00006af0       ?InitLed@CDynamicLED@@QAEXPAVCWnd@@II@Z 00407af0 f   DynamicLED.obj
 0001:00006bb0       ?OnPaint@CDynamicLED@@IAEXXZ 00407bb0 f   DynamicLED.obj
 0001:00006c30       ?OnTimer@CDynamicLED@@IAEXI@Z 00407c30 f   DynamicLED.obj
 0001:00006ce0       ?Switch@CDynamicLED@@AAEXH@Z 00407ce0 f   DynamicLED.obj
 0001:00006db0       ?SwitchOn@CDynamicLED@@QAEXXZ 00407db0 f   DynamicLED.obj
 0001:00006dd0       ?SwitchOff@CDynamicLED@@QAEXXZ 00407dd0 f   DynamicLED.obj
 0001:00006df0       ?Blink@CDynamicLED@@QAEXH@Z 00407df0 f   DynamicLED.obj
 0001:00006e70       ?SetLedBright@CDynamicLED@@AAEHHH@Z 00407e70 f   DynamicLED.obj
 0001:00006f70       ?SetPenBrush@CDynamicLED@@AAEXXZ 00407f70 f   DynamicLED.obj
 0001:00007140       ?DrawRoundLed@CDynamicLED@@AAEXVCRect@@@Z 00408140 f   DynamicLED.obj
 0001:00007340       ?DrawSquareLed@CDynamicLED@@AAEXVCRect@@@Z 00408340 f   DynamicLED.obj
 0001:00007480       ??_GCDynamicLED@@UAEPAXI@Z 00408480 f i DynamicLED.obj
 0001:00007480       ??_ECDynamicLED@@UAEPAXI@Z 00408480 f i DynamicLED.obj
 0001:000074b0       ??0CLogAudioHdrs@@QAE@XZ   004084b0 f   LogAudioHdrs.obj
 0001:00007500       ??1CLogAudioHdrs@@UAE@XZ   00408500 f   LogAudioHdrs.obj
 0001:00007520       ?UpdateControls@CLogAudioHdrs@@MAEXXZ 00408520 f   LogAudioHdrs.obj
 0001:00007600       ?PostMessageStop@CLogAudioHdrs@@MAEXXZ 00408600 f   LogAudioHdrs.obj
 0001:00007630       ?PostMessageStart@CLogAudioHdrs@@MAEXXZ 00408630 f   LogAudioHdrs.obj
 0001:00007660       ?PostMessageCancel@CLogAudioHdrs@@MAEXXZ 00408660 f   LogAudioHdrs.obj
 0001:00007690       ?SppLoggerStop@CLogAudioHdrs@@MAEHXZ 00408690 f   LogAudioHdrs.obj
 0001:000076a0       ?SppLoggerStart@CLogAudioHdrs@@MAEHPAD@Z 004086a0 f   LogAudioHdrs.obj
 0001:000076c0       ?SppLoggerStat@CLogAudioHdrs@@MAEHPAH@Z 004086c0 f   LogAudioHdrs.obj
 0001:000076e0       ??_ECLogAudioHdrs@@UAEPAXI@Z 004086e0 f i LogAudioHdrs.obj
 0001:000076e0       ??_GCLogAudioHdrs@@UAEPAXI@Z 004086e0 f i LogAudioHdrs.obj
 0001:00007710       ??0CLogFmsConn@@QAE@XZ     00408710 f   LogFmsConn.obj
 0001:00007770       ??1CLogFmsConn@@UAE@XZ     00408770 f   LogFmsConn.obj
 0001:00007790       ?UpdateControls@CLogFmsConn@@MAEXXZ 00408790 f   LogFmsConn.obj
 0001:00007870       ?PostMessageStop@CLogFmsConn@@MAEXXZ 00408870 f   LogFmsConn.obj
 0001:000078a0       ?PostMessageStart@CLogFmsConn@@MAEXXZ 004088a0 f   LogFmsConn.obj
 0001:000078d0       ?PostMessageCancel@CLogFmsConn@@MAEXXZ 004088d0 f   LogFmsConn.obj
 0001:00007900       ?SppLoggerStop@CLogFmsConn@@MAEHXZ 00408900 f   LogFmsConn.obj
 0001:00007920       ?SppLoggerStart@CLogFmsConn@@MAEHPAD@Z 00408920 f   LogFmsConn.obj
 0001:00007940       ??_ECLogFmsConn@@UAEPAXI@Z 00408940 f i LogFmsConn.obj
 0001:00007940       ??_GCLogFmsConn@@UAEPAXI@Z 00408940 f i LogFmsConn.obj
 0001:00007970       ??0CLogPulse@@QAE@XZ       00408970 f   LogPulses.obj
 0001:000079c0       ??1CLogPulse@@UAE@XZ       004089c0 f   LogPulses.obj
 0001:000079e0       ?UpdateControls@CLogPulse@@MAEXXZ 004089e0 f   LogPulses.obj
 0001:00007ac0       ?PostMessageStop@CLogPulse@@MAEXXZ 00408ac0 f   LogPulses.obj
 0001:00007af0       ?PostMessageStart@CLogPulse@@MAEXXZ 00408af0 f   LogPulses.obj
 0001:00007b20       ?PostMessageCancel@CLogPulse@@MAEXXZ 00408b20 f   LogPulses.obj
 0001:00007b50       ?SppLoggerStop@CLogPulse@@MAEHXZ 00408b50 f   LogPulses.obj
 0001:00007b60       ?SppLoggerStart@CLogPulse@@MAEHPAD@Z 00408b60 f   LogPulses.obj
 0001:00007b80       ?SppLoggerStat@CLogPulse@@MAEHPAH@Z 00408b80 f   LogPulses.obj
 0001:00007ba0       ??_GCLogPulse@@UAEPAXI@Z   00408ba0 f i LogPulses.obj
 0001:00007ba0       ??_ECLogPulse@@UAEPAXI@Z   00408ba0 f i LogPulses.obj
 0001:00007bd0       ??0CLogRawPulse@@QAE@XZ    00408bd0 f   LogRawPulse.obj
 0001:00007c30       ??1CLogRawPulse@@UAE@XZ    00408c30 f   LogRawPulse.obj
 0001:00007c50       ?UpdateControls@CLogRawPulse@@MAEXXZ 00408c50 f   LogRawPulse.obj
 0001:00007d30       ?PostMessageStop@CLogRawPulse@@MAEXXZ 00408d30 f   LogRawPulse.obj
 0001:00007d60       ?PostMessageStart@CLogRawPulse@@MAEXXZ 00408d60 f   LogRawPulse.obj
 0001:00007d90       ?PostMessageCancel@CLogRawPulse@@MAEXXZ 00408d90 f   LogRawPulse.obj
 0001:00007dc0       ?SppLoggerStop@CLogRawPulse@@MAEHXZ 00408dc0 f   LogRawPulse.obj
 0001:00007dd0       ?SppLoggerStart@CLogRawPulse@@MAEHPAD@Z 00408dd0 f   LogRawPulse.obj
 0001:00007df0       ?SppLoggerStat@CLogRawPulse@@MAEHPAH@Z 00408df0 f   LogRawPulse.obj
 0001:00007e10       ??_ECLogRawPulse@@UAEPAXI@Z 00408e10 f i LogRawPulse.obj
 0001:00007e10       ??_GCLogRawPulse@@UAEPAXI@Z 00408e10 f i LogRawPulse.obj
 0001:00007e40       ?_GetBaseClass@CScanInputs@@KGPAUCRuntimeClass@@XZ 00408e40 f   ScanInputs.obj
 0001:00007e50       ?GetThisClass@CScanInputs@@SGPAUCRuntimeClass@@XZ 00408e50 f   ScanInputs.obj
 0001:00007e60       ?GetRuntimeClass@CScanInputs@@UBEPAUCRuntimeClass@@XZ 00408e60 f   ScanInputs.obj
 0001:00007e70       ??0CScanInputs@@QAE@PAVCWnd@@@Z 00408e70 f   ScanInputs.obj
 0001:00007fe0       ??1CScanInputs@@UAE@XZ     00408fe0 f   ScanInputs.obj
 0001:00008040       ?DoDataExchange@CScanInputs@@MAEXPAVCDataExchange@@@Z 00409040 f   ScanInputs.obj
 0001:00008070       ?GetThisMessageMap@CScanInputs@@KGPBUAFX_MSGMAP@@XZ 00409070 f   ScanInputs.obj
 0001:00008080       ?GetMessageMap@CScanInputs@@MBEPBUAFX_MSGMAP@@XZ 00409080 f   ScanInputs.obj
 0001:00008090       ?OnBnClickedCancel@CScanInputs@@QAEXXZ 00409090 f   ScanInputs.obj
 0001:00008130       ?OnBnClickedScan@CScanInputs@@QAEXXZ 00409130 f   ScanInputs.obj
 0001:00008310       ?OnBnClickedSaveLog@CScanInputs@@QAEXXZ 00409310 f   ScanInputs.obj
 0001:00008520       ?LogAudioLevel@CScanInputs@@IAEXHHH@Z 00409520 f   ScanInputs.obj
 0001:000086c0       ?ScanModulationTypes@CScanInputs@@IAEHXZ 004096c0 f   ScanInputs.obj
 0001:000087d0       ?LogModulation@CScanInputs@@IAEXHH@Z 004097d0 f   ScanInputs.obj
 0001:00008910       ?OnShowWindow@CScanInputs@@QAEXHI@Z 00409910 f   ScanInputs.obj
 0001:000089a0       ?OnIdle@CScanInputs@@QAEHXZ 004099a0 f   ScanInputs.obj
 0001:000089e0       ??_GCScanInputs@@UAEPAXI@Z 004099e0 f i ScanInputs.obj
 0001:000089e0       ??_ECScanInputs@@UAEPAXI@Z 004099e0 f i ScanInputs.obj
 0001:00008a10       ??HATL@@YA?AV?$CStringT@DV?$StrTraitMFC_DLL@DV?$ChTraitsCRT@D@ATL@@@@@0@ABV10@0@Z 00409a10 f i ScanInputs.obj
 0001:00008ac0       ?GetThisMessageMap@CSppConsoleApp@@KGPBUAFX_MSGMAP@@XZ 00409ac0 f   SppConsole.obj
 0001:00008ad0       ?GetMessageMap@CSppConsoleApp@@MBEPBUAFX_MSGMAP@@XZ 00409ad0 f   SppConsole.obj
 0001:00008ae0       ??0CSppConsoleApp@@QAE@XZ  00409ae0 f   SppConsole.obj
 0001:00008b10       ?InitInstance@CSppConsoleApp@@UAEHXZ 00409b10 f   SppConsole.obj
 0001:00008bd0       ?doStartIconified@CSppConsoleApp@@IAE_NXZ 00409bd0 f   SppConsole.obj
 0001:00008c30       ?OnAbout@CSppConsoleApp@@QAEXXZ 00409c30 f   SppConsole.obj
 0001:00008ca0       ??_GCSppConsoleApp@@UAEPAXI@Z 00409ca0 f i SppConsole.obj
 0001:00008ca0       ??_ECSppConsoleApp@@UAEPAXI@Z 00409ca0 f i SppConsole.obj
 0001:00008cd0       ??1CSppConsoleApp@@UAE@XZ  00409cd0 f i SppConsole.obj
 0001:00008cf0       ??1CSppConsoleDlg@@UAE@XZ  00409cf0 f i SppConsole.obj
 0001:00008d80       ??0CSppConsoleDlg@@QAE@PAVCWnd@@@Z 00409d80 f   SppConsoleDlg.obj
 0001:00008f30       ?DoDataExchange@CSppConsoleDlg@@MAEXPAVCDataExchange@@@Z 00409f30 f   SppConsoleDlg.obj
 0001:000090a0       ?GetThisMessageMap@CSppConsoleDlg@@KGPBUAFX_MSGMAP@@XZ 0040a0a0 f   SppConsoleDlg.obj
 0001:000090b0       ?GetMessageMap@CSppConsoleDlg@@MBEPBUAFX_MSGMAP@@XZ 0040a0b0 f   SppConsoleDlg.obj
 0001:000090c0       ?GetDllVersion@@YAKPBD@Z   0040a0c0 f   SppConsoleDlg.obj
 0001:00009150       ?ThreeBeeps@@YAXXZ         0040a150 f   SppConsoleDlg.obj
 0001:000091b0       ?OneBeep@@YAXXZ            0040a1b0 f   SppConsoleDlg.obj
 0001:000091e0       ?OnInitDialog@CSppConsoleDlg@@MAEHXZ 0040a1e0 f   SppConsoleDlg.obj
 0001:000096b0       ?OnDestroy@CSppConsoleDlg@@IAEXXZ 0040a6b0 f   SppConsoleDlg.obj
 0001:000097e0       ?OnPaint@CSppConsoleDlg@@IAEXXZ 0040a7e0 f   SppConsoleDlg.obj
 0001:00009920       ?OnQueryDragIcon@CSppConsoleDlg@@IAEPAUHICON__@@XZ 0040a920 f   SppConsoleDlg.obj
 0001:00009940       ?SomethingChanged@CSppConsoleDlg@@QAEXXZ 0040a940 f   SppConsoleDlg.obj
 0001:00009980       ?OnSelchangeModType@CSppConsoleDlg@@IAEXXZ 0040a980 f   SppConsoleDlg.obj
 0001:00009ad0       ?GetModeTypeCtrl@CSppConsoleDlg@@QAEPAVCWnd@@XZ 0040aad0 f   SppConsoleDlg.obj
 0001:00009af0       ?OnShiftAuto@CSppConsoleDlg@@IAEXXZ 0040aaf0 f   SppConsoleDlg.obj
 0001:00009b90       ?GetShiftAutoCtrl@CSppConsoleDlg@@QAEPAVCWnd@@XZ 0040ab90 f   SppConsoleDlg.obj
 0001:00009bb0       ?OnShiftPos@CSppConsoleDlg@@IAEXXZ 0040abb0 f   SppConsoleDlg.obj
 0001:00009bd0       ?GetShiftPosCtrl@CSppConsoleDlg@@QAEPAVCWnd@@XZ 0040abd0 f   SppConsoleDlg.obj
 0001:00009bf0       ?OnShiftNeg@CSppConsoleDlg@@IAEXXZ 0040abf0 f   SppConsoleDlg.obj
 0001:00009c10       ?OnHide@CSppConsoleDlg@@IAEXXZ 0040ac10 f   SppConsoleDlg.obj
 0001:00009c40       ?OnShow@CSppConsoleDlg@@IAEXXZ 0040ac40 f   SppConsoleDlg.obj
 0001:00009c70       ?PopulateModulation@CSppConsoleDlg@@IAEHXZ 0040ac70 f   SppConsoleDlg.obj
 0001:00009e70       ?ShowShiftRB@CSppConsoleDlg@@IAEX_N@Z 0040ae70 f   SppConsoleDlg.obj
 0001:00009f20       ?TaskBarAddIcon@CSppConsoleDlg@@IAEHIPAUHICON__@@PAD@Z 0040af20 f   SppConsoleDlg.obj
 0001:0000a100       ?TaskBarDelIcon@CSppConsoleDlg@@IAEHI@Z 0040b100 f   SppConsoleDlg.obj
 0001:0000a160       ?TaskBarIconBaloon@CSppConsoleDlg@@IAEHIPBD0@Z 0040b160 f   SppConsoleDlg.obj
 0001:0000a280       ?TaskBarIconToolTip@CSppConsoleDlg@@IAEHIPBD@Z 0040b280 f   SppConsoleDlg.obj
 0001:0000a310       ?StartIconified@CSppConsoleDlg@@QAEX_N@Z 0040b310 f   SppConsoleDlg.obj
 0001:0000a330       ?OnStatusAreaMessage@CSppConsoleDlg@@IAEJIJ@Z 0040b330 f   SppConsoleDlg.obj
 0001:0000a390       ?OnMixerLineChange@CSppConsoleDlg@@AAEJIJ@Z 0040b390 f   SppConsoleDlg.obj
 0001:0000a3a0       ?OnMixerControlChange@CSppConsoleDlg@@AAEJIJ@Z 0040b3a0 f   SppConsoleDlg.obj
 0001:0000a420       ?ShowTrayIconMenu@CSppConsoleDlg@@IAEXI@Z 0040b420 f   SppConsoleDlg.obj
 0001:0000a580       ?OnWindowPosChanging@CSppConsoleDlg@@IAEXPAUtagWINDOWPOS@@@Z 0040b580 f   SppConsoleDlg.obj
 0001:0000a5c0       ?OnInterSppConsole@CSppConsoleDlg@@IAEJIJ@Z 0040b5c0 f   SppConsoleDlg.obj
 0001:0000a5f0       ?OnInterSppApps@CSppConsoleDlg@@IAEJIJ@Z 0040b5f0 f   SppConsoleDlg.obj
 0001:0000aa50       ?OnOK@CSppConsoleDlg@@MAEXXZ 0040ba50 f   SppConsoleDlg.obj
 0001:0000aab0       ?OnCancel@CSppConsoleDlg@@MAEXXZ 0040bab0 f   SppConsoleDlg.obj
 0001:0000aad0       ?isDllActive@CSppConsoleDlg@@IAE_NXZ 0040bad0 f   SppConsoleDlg.obj
 0001:0000ab20       ?GetStatusString@CSppConsoleDlg@@QAE?AV?$CStringT@DV?$StrTraitMFC_DLL@DV?$ChTraitsCRT@D@ATL@@@@@ATL@@XZ 0040bb20 f   SppConsoleDlg.obj
 0001:0000ae20       ?OnToolTipNotify@CSppConsoleDlg@@IAEHIPAUtagNMHDR@@PAJ@Z 0040be20 f   SppConsoleDlg.obj
 0001:0000ae90       ?GetFmsStatusString@CSppConsoleDlg@@IAEHAAV?$CStringT@DV?$StrTraitMFC_DLL@DV?$ChTraitsCRT@D@ATL@@@@@ATL@@@Z 0040be90 f   SppConsoleDlg.obj
 0001:0000b100       ?PopulateAudioSource@CSppConsoleDlg@@IAEXXZ 0040c100 f   SppConsoleDlg.obj
 0001:0000b1f0       ?GetMixerDeviceCtrl@CSppConsoleDlg@@QAEPAVCWnd@@XZ 0040c1f0 f   SppConsoleDlg.obj
 0001:0000b210       ?PopulateInputLines@CSppConsoleDlg@@IAEXXZ 0040c210 f   SppConsoleDlg.obj
 0001:0000b2f0       ?GetAudioLinesCtrl@CSppConsoleDlg@@QAEPAVCWnd@@XZ 0040c2f0 f   SppConsoleDlg.obj
 0001:0000b310       ?OnSelchangeMixerdevice@CSppConsoleDlg@@IAEXXZ 0040c310 f   SppConsoleDlg.obj
 0001:0000b3f0       ?OnSelchangeAudioSrc@CSppConsoleDlg@@IAEXXZ 0040c3f0 f   SppConsoleDlg.obj
 0001:0000b4c0       ?OnEnableAudio@CSppConsoleDlg@@IAEXXZ 0040c4c0 f   SppConsoleDlg.obj
 0001:0000b550       ?EnableAudio@CSppConsoleDlg@@IAEXH@Z 0040c550 f   SppConsoleDlg.obj
 0001:0000b6b0       ?GetCurrentMixerDevice@CSppConsoleDlg@@IAEHXZ 0040c6b0 f   SppConsoleDlg.obj
 0001:0000b740       ?GetCurrentInputLine@CSppConsoleDlg@@IAEHXZ 0040c740 f   SppConsoleDlg.obj
 0001:0000b780       ?GetSavedCurrentInputLine@CSppConsoleDlg@@IAE_NPAI@Z 0040c780 f   SppConsoleDlg.obj
 0001:0000b7f0       ?GetCurrentInputLineFromSystem@CSppConsoleDlg@@IAE_NPAI@Z 0040c7f0 f   SppConsoleDlg.obj
 0001:0000b850       ?SetCurrentMixerDevice@CSppConsoleDlg@@IAEXI@Z 0040c850 f   SppConsoleDlg.obj
 0001:0000b8a0       ?SetCurrentInputLine@CSppConsoleDlg@@IAEXH@Z 0040c8a0 f   SppConsoleDlg.obj
 0001:0000b920       ?GetCheckAudioCtrl@CSppConsoleDlg@@QAEPAVCWnd@@XZ 0040c920 f   SppConsoleDlg.obj
 0001:0000b940       ?CheckAudioCB@CSppConsoleDlg@@IAEXXZ 0040c940 f   SppConsoleDlg.obj
 0001:0000b970       ?OnSetCursor@CSppConsoleDlg@@IAEHPAVCWnd@@II@Z 0040c970 f   SppConsoleDlg.obj
 0001:0000ba00       ?HearTx@CSppConsoleDlg@@IAEX_N@Z 0040ca00 f   SppConsoleDlg.obj
 0001:0000bad0       ?OnSelSrc@CSppConsoleDlg@@IAEXXZ 0040cad0 f   SppConsoleDlg.obj
 0001:0000bc60       ?OnAudioDst@CSppConsoleDlg@@IAEXXZ 0040cc60 f   SppConsoleDlg.obj
 0001:0000bdf0       ?OnAudioVol@CSppConsoleDlg@@IAEXXZ 0040cdf0 f   SppConsoleDlg.obj
 0001:0000be80       ?OnAudioPrint@CSppConsoleDlg@@IAEXXZ 0040ce80 f   SppConsoleDlg.obj
 0001:0000bfa0       ?PpJoyExShowCtrl@CSppConsoleDlg@@IAEXXZ 0040cfa0 f   SppConsoleDlg.obj
 0001:0000bfe0       ?OnPpjoyex@CSppConsoleDlg@@IAEXXZ 0040cfe0 f   SppConsoleDlg.obj
 0001:0000c0e0       ?UpdateFilterMenu@CSppConsoleDlg@@IAEXXZ 0040d0e0 f   SppConsoleDlg.obj
 0001:0000c3f0       ?OnFilterSelect@CSppConsoleDlg@@IAEXI@Z 0040d3f0 f   SppConsoleDlg.obj
 0001:0000c570       ?OnHideMsg@CSppConsoleDlg@@AAEJIJ@Z 0040d570 f   SppConsoleDlg.obj
 0001:0000c590       ?LocateDialogWindow@CSppConsoleDlg@@IAEHXZ 0040d590 f   SppConsoleDlg.obj
 0001:0000c610       ?StoreLocationDialogWindow@CSppConsoleDlg@@IAEHXZ 0040d610 f   SppConsoleDlg.obj
 0001:0000c640       ?OnTimer@CSppConsoleDlg@@QAEXI@Z 0040d640 f   SppConsoleDlg.obj
 0001:0000c750       ?InitJoyPosBars@CSppConsoleDlg@@IAEXXZ 0040d750 f   SppConsoleDlg.obj
 0001:0000c7e0       ?SetJoyPosBars@CSppConsoleDlg@@IAEXPAH@Z 0040d7e0 f   SppConsoleDlg.obj
 0001:0000c8d0       ?OnWaveRec@CSppConsoleDlg@@IAEXXZ 0040d8d0 f   SppConsoleDlg.obj
 0001:0000c9b0       ?OnWaveRecStart@CSppConsoleDlg@@AAEJIJ@Z 0040d9b0 f   SppConsoleDlg.obj
 0001:0000ca10       ?OnWaveRecStop@CSppConsoleDlg@@AAEJIJ@Z 0040da10 f   SppConsoleDlg.obj
 0001:0000ca70       ?OnWaveRecCancel@CSppConsoleDlg@@AAEJIJ@Z 0040da70 f   SppConsoleDlg.obj
 0001:0000caa0       ?OnAdvancedJitter@CSppConsoleDlg@@QAEXXZ 0040daa0 f   SppConsoleDlg.obj
 0001:0000cac0       ?InitJitterStatus@CSppConsoleDlg@@IAEXXZ 0040dac0 f   SppConsoleDlg.obj
 0001:0000cb20       ?UpdateJitterStatus@CSppConsoleDlg@@IAEXHH@Z 0040db20 f   SppConsoleDlg.obj
 0001:0000cd30       ?UpdateFmsMenuItem@CSppConsoleDlg@@IAEXH@Z 0040dd30 f   SppConsoleDlg.obj
 0001:0000ce50       ?OnRunFms@CSppConsoleDlg@@QAEXXZ 0040de50 f   SppConsoleDlg.obj
 0001:0000cf70       ?OnSysCommand@CSppConsoleDlg@@QAEXIJ@Z 0040df70 f   SppConsoleDlg.obj
 0001:0000cfa0       ?OnLogAudioHdrs@CSppConsoleDlg@@QAEXXZ 0040dfa0 f   SppConsoleDlg.obj
 0001:0000d080       ?OnLogAudioHdrsCancel@CSppConsoleDlg@@AAEJIJ@Z 0040e080 f   SppConsoleDlg.obj
 0001:0000d0b0       ?OnLogPulse@CSppConsoleDlg@@QAEXXZ 0040e0b0 f   SppConsoleDlg.obj
 0001:0000d1f0       ?OnLogPulseCancel@CSppConsoleDlg@@AAEJIJ@Z 0040e1f0 f   SppConsoleDlg.obj
 0001:0000d220       ?OnLogFmsConn@CSppConsoleDlg@@QAEXXZ 0040e220 f   SppConsoleDlg.obj
 0001:0000d340       ?OnFmsConnStart@CSppConsoleDlg@@AAEJIJ@Z 0040e340 f   SppConsoleDlg.obj
 0001:0000d5f0       ?OnFmsConnStop@CSppConsoleDlg@@AAEJIJ@Z 0040e5f0 f   SppConsoleDlg.obj
 0001:0000d740       ?OnFmsConnCancel@CSppConsoleDlg@@AAEJIJ@Z 0040e740 f   SppConsoleDlg.obj
 0001:0000d770       ?OnLogRawPulse@CSppConsoleDlg@@QAEXXZ 0040e770 f   SppConsoleDlg.obj
 0001:0000d890       ?OnRawPulseCancel@CSppConsoleDlg@@AAEJIJ@Z 0040e890 f   SppConsoleDlg.obj
 0001:0000d8c0       ?OnBnClickedScandlg@CSppConsoleDlg@@QAEXXZ 0040e8c0 f   SppConsoleDlg.obj
 0001:0000d9a0       ?GetAudioLevel@CSppConsoleDlg@@QAEHXZ 0040e9a0 f   SppConsoleDlg.obj
 0001:0000d9d0       ?GetNumJoystickPos@CSppConsoleDlg@@QAEHXZ 0040e9d0 f   SppConsoleDlg.obj
 0001:0000da10       ?OnEnterIdle@CSppConsoleDlg@@QAEXIPAVCWnd@@@Z 0040ea10 f   SppConsoleDlg.obj
 0001:0000da50       ??_ECSppConsoleDlg@@UAEPAXI@Z 0040ea50 f i SppConsoleDlg.obj
 0001:0000da50       ??_GCSppConsoleDlg@@UAEPAXI@Z 0040ea50 f i SppConsoleDlg.obj
 0001:0000da80       ??_GCFilterIf@@QAEPAXI@Z   0040ea80 f i SppConsoleDlg.obj
 0001:0000dab0       ?GetWindowInfo@CWnd@@QBEHPAUtagWINDOWINFO@@@Z 0040eab0 f i SppConsoleDlg.obj
 0001:0000daf0       ?_GetBaseClass@CStaticLink@@KGPAUCRuntimeClass@@XZ 0040eaf0 f   StatLink.obj
 0001:0000db00       ?GetThisClass@CStaticLink@@SGPAUCRuntimeClass@@XZ 0040eb00 f   StatLink.obj
 0001:0000db10       ?GetRuntimeClass@CStaticLink@@UBEPAUCRuntimeClass@@XZ 0040eb10 f   StatLink.obj
 0001:0000db20       ?GetThisMessageMap@CStaticLink@@KGPBUAFX_MSGMAP@@XZ 0040eb20 f   StatLink.obj
 0001:0000db30       ?GetMessageMap@CStaticLink@@MBEPBUAFX_MSGMAP@@XZ 0040eb30 f   StatLink.obj
 0001:0000db40       ??0CStaticLink@@QAE@XZ     0040eb40 f   StatLink.obj
 0001:0000dbd0       ?CtlColor@CStaticLink@@QAEPAUHBRUSH__@@PAVCDC@@I@Z 0040ebd0 f   StatLink.obj
 0001:0000dcf0       ?OnClicked@CStaticLink@@QAEXXZ 0040ecf0 f   StatLink.obj
 0001:0000dda0       ?SetDefaultCursor@CStaticLink@@QAEXXZ 0040eda0 f   StatLink.obj
 0001:0000de80       ?OnSetCursor@CStaticLink@@QAEHPAVCWnd@@II@Z 0040ee80 f   StatLink.obj
 0001:0000deb0       ?SetLink@CStaticLink@@QAE?AV?$CStringT@DV?$StrTraitMFC_DLL@DV?$ChTraitsCRT@D@ATL@@@@@ATL@@V23@@Z 0040eeb0 f   StatLink.obj
 0001:0000dfa0       ??_GCStaticLink@@UAEPAXI@Z 0040efa0 f i StatLink.obj
 0001:0000dfa0       ??_ECStaticLink@@UAEPAXI@Z 0040efa0 f i StatLink.obj
 0001:0000dfd0       ??0CTraceFileAndLineInfo@ATL@@QAE@PBDH@Z 0040efd0 f i StatLink.obj
 0001:0000e000       ??RCTraceFileAndLineInfo@ATL@@QBAXPBDZZ 0040f000 f i StatLink.obj
 0001:0000e050       ?TraceV@CTrace@ATL@@QBAXPBDHKI0PAD@Z 0040f050 f i StatLink.obj
 0001:0000e080       ??BCTraceCategory@ATL@@QBEKXZ 0040f080 f i StatLink.obj
 0001:0000e090       ?GetEnvironmentVariableWThunk@ATL@@YGKPBGPAGK@Z 0040f090 f i StdAfx.obj
 0001:0000e0d0       ?_AtlInstallStringThunk@ATL@@YAXPAPAXPAX1@Z 0040f0d0 f i StdAfx.obj
 0001:0000e130       ?GetEnvironmentVariableWFake@ATL@@YGKPBGPAGK@Z 0040f130 f i StdAfx.obj
 0001:0000e310       ?_AtlGetConversionACP@ATL@@YGIXZ 0040f310 f i StdAfx.obj
 0001:0000e320       ?CompareStringWThunk@ATL@@YGHKKPBGH0H@Z 0040f320 f i StdAfx.obj
 0001:0000e360       ?CompareStringWFake@ATL@@YGHKKPBGH0H@Z 0040f360 f i StdAfx.obj
 0001:0000e540       ?_AtlVerifyStackAvailable@_ATL_SAFE_ALLOCA_IMPL@ATL@@YA_NK@Z 0040f540 f i StdAfx.obj
 0001:0000e5e0       ?AtlW2AHelper@@YGPADPADPBGHI@Z 0040f5e0 f i StdAfx.obj
 0001:0000e6b0       ?AtlThrow@ATL@@YGXJ@Z      0040f6b0 f i StdAfx.obj
 0001:0000e710       ??RCTraceFileAndLineInfo@ATL@@QBAXKIPBDZZ 0040f710 f i StdAfx.obj
 0001:0000e750       ?GetStringTypeExWThunk@ATL@@YGHKKPBGHPAG@Z 0040f750 f i StdAfx.obj
 0001:0000e790       ?GetStringTypeExWFake@ATL@@YGHKKPBGHPAG@Z 0040f790 f i StdAfx.obj
 0001:0000e8a0       ?lstrcmpiWThunk@ATL@@YGHPBG0@Z 0040f8a0 f i StdAfx.obj
 0001:0000e8d0       ?lstrcmpiWFake@ATL@@YGHPBG0@Z 0040f8d0 f i StdAfx.obj
 0001:0000e9b0       ?CharLowerWThunk@ATL@@YGPAGPAG@Z 0040f9b0 f i StdAfx.obj
 0001:0000e9e0       ?CharLowerWFake@ATL@@YGPAGPAG@Z 0040f9e0 f i StdAfx.obj
 0001:0000ead0       ?AtlA2WHelper@@YGPAGPAGPBDHI@Z 0040fad0 f i StdAfx.obj
 0001:0000eba0       ?CharUpperWThunk@ATL@@YGPAGPAG@Z 0040fba0 f i StdAfx.obj
 0001:0000ebd0       ?CharUpperWFake@ATL@@YGPAGPAG@Z 0040fbd0 f i StdAfx.obj
 0001:0000ecc0       ??_Estringdispid@CComTypeInfoHolder@ATL@@QAEPAXI@Z 0040fcc0 f i StdAfx.obj
 0001:0000ed30       ??1stringdispid@CComTypeInfoHolder@ATL@@QAE@XZ 0040fd30 f i StdAfx.obj
 0001:0000ed50       ??1CComBSTR@ATL@@QAE@XZ    0040fd50 f i StdAfx.obj
 0001:0000ed70       ??0?$CAtlSafeAllocBufferManager@VCCRTAllocator@ATL@@@_ATL_SAFE_ALLOCA_IMPL@ATL@@QAE@XZ 0040fd70 f i StdAfx.obj
 0001:0000ed90       ?Allocate@?$CAtlSafeAllocBufferManager@VCCRTAllocator@ATL@@@_ATL_SAFE_ALLOCA_IMPL@ATL@@QAEPAXK@Z 0040fd90 f i StdAfx.obj
 0001:0000ede0       ?Allocate@CCRTAllocator@ATL@@SAPAXI@Z 0040fde0 f i StdAfx.obj
 0001:0000ee00       ??1?$CAtlSafeAllocBufferManager@VCCRTAllocator@ATL@@@_ATL_SAFE_ALLOCA_IMPL@ATL@@QAE@XZ 0040fe00 f i StdAfx.obj
 0001:0000ee40       ?Free@CCRTAllocator@ATL@@SAXPAX@Z 0040fe40 f i StdAfx.obj
 0001:0000ee60       ??0?$CTempBuffer@D$0IA@VCCRTAllocator@ATL@@@ATL@@QAE@XZ 0040fe60 f i StdAfx.obj
 0001:0000ee80       ??1?$CTempBuffer@D$0IA@VCCRTAllocator@ATL@@@ATL@@QAE@XZ 0040fe80 f i StdAfx.obj
 0001:0000eea0       ??B?$CTempBuffer@D$0IA@VCCRTAllocator@ATL@@@ATL@@QBEPADXZ 0040fea0 f i StdAfx.obj
 0001:0000eeb0       ?Allocate@?$CTempBuffer@D$0IA@VCCRTAllocator@ATL@@@ATL@@QAEPADI@Z 0040feb0 f i StdAfx.obj
 0001:0000eed0       ??0?$CW2AEX@$0IA@@ATL@@QAE@PBG@Z 0040fed0 f i StdAfx.obj
 0001:0000ef00       ??1?$CW2AEX@$0IA@@ATL@@QAE@XZ 0040ff00 f i StdAfx.obj
 0001:0000ef30       ??B?$CW2AEX@$0IA@@ATL@@QBEPADXZ 0040ff30 f i StdAfx.obj
 0001:0000ef40       ?AllocateBytes@?$CTempBuffer@D$0IA@VCCRTAllocator@ATL@@@ATL@@QAEPADI@Z 0040ff40 f i StdAfx.obj
 0001:0000efa0       ?FreeHeap@?$CTempBuffer@D$0IA@VCCRTAllocator@ATL@@@ATL@@AAEXXZ 0040ffa0 f i StdAfx.obj
 0001:0000efc0       ?Init@?$CW2AEX@$0IA@@ATL@@AAEXPBGI@Z 0040ffc0 f i StdAfx.obj
 0001:0000f050       ?AtlThrowLastWin32@ATL@@YGXXZ 00410050 f i StdAfx.obj
 0001:0000f0a0       ?GetData@CAtlSafeAllocBufferNode@?$CAtlSafeAllocBufferManager@VCCRTAllocator@ATL@@@_ATL_SAFE_ALLOCA_IMPL@ATL@@QAEPAXXZ 004100a0 f i StdAfx.obj
 0001:0000f0c0       ?AllocateHeap@?$CTempBuffer@D$0IA@VCCRTAllocator@ATL@@@ATL@@AAEXI@Z 004100c0 f i StdAfx.obj
 0001:0000f100       ??0CAtlWinModule@ATL@@QAE@XZ 00410100 f i StdAfx.obj
 0001:0000f140       ??0_ATL_WIN_MODULE70@ATL@@QAE@XZ 00410140 f i StdAfx.obj
 0001:0000f170       ??0CComCriticalSection@ATL@@QAE@XZ 00410170 f i StdAfx.obj
 0001:0000f190       ??0?$CSimpleArray@GV?$CSimpleArrayEqualHelper@G@ATL@@@ATL@@QAE@XZ 00410190 f i StdAfx.obj
 0001:0000f1c0       ??1CAtlWinModule@ATL@@QAE@XZ 004101c0 f i StdAfx.obj
 0001:0000f210       ?Term@CAtlWinModule@ATL@@QAEXXZ 00410210 f i StdAfx.obj
 0001:0000f230       ?GetModuleInstance@CAtlBaseModule@ATL@@QAEPAUHINSTANCE__@@XZ 00410230 f i StdAfx.obj
 0001:0000f250       ??1_ATL_WIN_MODULE70@ATL@@QAE@XZ 00410250 f i StdAfx.obj
 0001:0000f270       ?AtlWinModuleTerm@ATL@@YGJPAU_ATL_WIN_MODULE70@1@PAUHINSTANCE__@@@Z 00410270 f i StdAfx.obj
 0001:0000f310       ?Term@CComCriticalSection@ATL@@QAEJXZ 00410310 f i StdAfx.obj
 0001:0000f330       ??1?$CSimpleArray@GV?$CSimpleArrayEqualHelper@G@ATL@@@ATL@@QAE@XZ 00410330 f i StdAfx.obj
 0001:0000f350       ?GetSize@?$CSimpleArray@GV?$CSimpleArrayEqualHelper@G@ATL@@@ATL@@QBEHXZ 00410350 f i StdAfx.obj
 0001:0000f370       ?RemoveAll@?$CSimpleArray@GV?$CSimpleArrayEqualHelper@G@ATL@@@ATL@@QAEXXZ 00410370 f i StdAfx.obj
 0001:0000f3d0       ??A?$CSimpleArray@GV?$CSimpleArrayEqualHelper@G@ATL@@@ATL@@QAEAAGH@Z 004103d0 f i StdAfx.obj
 0001:0000f440       ?_AtlRaiseException@ATL@@YAXKK@Z 00410440 f i StdAfx.obj
 0001:0000f460       ?_GetBaseClass@CWaveRec@@KGPAUCRuntimeClass@@XZ 00410460 f   WaveRec.obj
 0001:0000f470       ?GetThisClass@CWaveRec@@SGPAUCRuntimeClass@@XZ 00410470 f   WaveRec.obj
 0001:0000f480       ?GetRuntimeClass@CWaveRec@@UBEPAUCRuntimeClass@@XZ 00410480 f   WaveRec.obj
 0001:0000f490       ??0CWaveRec@@QAE@PAVCWnd@@@Z 00410490 f   WaveRec.obj
 0001:0000f560       ??1CWaveRec@@UAE@XZ        00410560 f   WaveRec.obj
 0001:0000f5c0       ?DoDataExchange@CWaveRec@@MAEXPAVCDataExchange@@@Z 004105c0 f   WaveRec.obj
 0001:0000f600       ?GetThisMessageMap@CWaveRec@@KGPBUAFX_MSGMAP@@XZ 00410600 f   WaveRec.obj
 0001:0000f610       ?GetMessageMap@CWaveRec@@MBEPBUAFX_MSGMAP@@XZ 00410610 f   WaveRec.obj
 0001:0000f620       ?OnBnClickedRecStop@CWaveRec@@QAEXXZ 00410620 f   WaveRec.obj
 0001:0000f740       ?OnBnClickedRecStart@CWaveRec@@QAEXXZ 00410740 f   WaveRec.obj
 0001:0000f840       ?UpdateControls@CWaveRec@@MAEXXZ 00410840 f   WaveRec.obj
 0001:0000f990       ?OnInitDialog@CWaveRec@@UAEHXZ 00410990 f   WaveRec.obj
 0001:0000fa40       ?PostMessageStop@CWaveRec@@MAEXXZ 00410a40 f   WaveRec.obj
 0001:0000fa70       ?PostMessageStart@CWaveRec@@MAEXXZ 00410a70 f   WaveRec.obj
 0001:0000faa0       ?PostMessageCancel@CWaveRec@@MAEXXZ 00410aa0 f   WaveRec.obj
 0001:0000fad0       ?PostMessagePlay@CWaveRec@@MAEXXZ 00410ad0 f   WaveRec.obj
 0001:0000fb00       ?OnBnClickedCancel@CWaveRec@@QAEXXZ 00410b00 f   WaveRec.obj
 0001:0000fb80       ?RenameWaveFile@CWaveRec@@IAEXXZ 00410b80 f   WaveRec.obj
 0001:0000fcd0       ?GetWaveFileName@CWaveRec@@IAE_NXZ 00410cd0 f   WaveRec.obj
 0001:0000fde0       ?OnTimer@CWaveRec@@QAEXI@Z 00410de0 f   WaveRec.obj
 0001:0000feb0       ?OnBnClickedRecPlay@CWaveRec@@QAEXXZ 00410eb0 f   WaveRec.obj
 0001:00010030       ?SppLoggerStop@CWaveRec@@MAEHXZ 00411030 f   WaveRec.obj
 0001:00010040       ?SppLoggerPlay@CWaveRec@@MAEHPAD@Z 00411040 f   WaveRec.obj
 0001:00010060       ?SppLoggerStart@CWaveRec@@MAEHPAD@Z 00411060 f   WaveRec.obj
 0001:00010080       ?SppLoggerStat@CWaveRec@@MAEHPAH@Z 00411080 f   WaveRec.obj
 0001:000100a0       ?OnNcDestroy@CWaveRec@@QAEXXZ 004110a0 f   WaveRec.obj
 0001:000100e0       ??_ECWaveRec@@UAEPAXI@Z    004110e0 f i WaveRec.obj
 0001:000100e0       ??_GCWaveRec@@UAEPAXI@Z    004110e0 f i WaveRec.obj
 0001:00010110       __tcsncpy                  00411110 f i WaveRec.obj
 0001:00010130       _SppMessageBoxWithErrorCode 00411130 f   smartpropoplus:SmartPropoPlus.obj
 0001:000101c0       _SetLocationDialogWindow   004111c0 f   smartpropoplus:SmartPropoPlus.obj
 0001:000101e0       _GetLocationDialogWindow   004111e0 f   smartpropoplus:SmartPropoPlus.obj
 0001:00010200       _SetSelectedFilter         00411200 f   smartpropoplus:SmartPropoPlus.obj
 0001:00010220       _SetActiveMode             00411220 f   smartpropoplus:SmartPropoPlus.obj
 0001:00010240       _SetShiftAutoDetect        00411240 f   smartpropoplus:SmartPropoPlus.obj
 0001:00010260       _SetPositiveShift          00411260 f   smartpropoplus:SmartPropoPlus.obj
 0001:00010280       _GetModulation             00411280 f   smartpropoplus:SmartPropoPlus.obj
 0001:000102a0       _GetDebugLevel             004112a0 f   smartpropoplus:SmartPropoPlus.obj
 0001:000102b0       _ModeDisplayFromInternalName 004112b0 f   smartpropoplus:SmartPropoPlus.obj
 0001:00010360       _isBaseRegistryExist       00411360 f   smartpropoplus:SmartPropoPlus.obj
 0001:000103b0       _GetDefaultVolumeValue     004113b0 f   smartpropoplus:SmartPropoPlus.obj
 0001:00010440       _SetDefaultVolumeValue     00411440 f   smartpropoplus:SmartPropoPlus.obj
 0001:00010460       _GetCurrentAudioState      00411460 f   smartpropoplus:SmartPropoPlus.obj
 0001:00010480       _SetCurrentAudioState      00411480 f   smartpropoplus:SmartPropoPlus.obj
 0001:000104a0       _GetCurrentPpjoyState      004114a0 f   smartpropoplus:SmartPropoPlus.obj
 0001:000104b0       _SetCurrentPpjoyState      004114b0 f   smartpropoplus:SmartPropoPlus.obj
 0001:000104d0       _GetCurrentMixerDevice     004114d0 f   smartpropoplus:SmartPropoPlus.obj
 0001:00010500       _GetCurrentInputLine       00411500 f   smartpropoplus:SmartPropoPlus.obj
 0001:00010520       _GetWaveInParams           00411520 f   smartpropoplus:SmartPropoPlus.obj
 0001:00010540       _SetCurrentMixerDevice     00411540 f   smartpropoplus:SmartPropoPlus.obj
 0001:00010560       _SetCurrentInputLine       00411560 f   smartpropoplus:SmartPropoPlus.obj
 0001:00010580       _GetAntiJitterState        00411580 f   smartpropoplus:SmartPropoPlus.obj
 0001:00010590       _SetAntiJitterState        00411590 f   smartpropoplus:SmartPropoPlus.obj
 0001:000105b0       _GetSppConsoleFullPath     004115b0 f   smartpropoplus:SmartPropoPlus.obj
 0001:000105d0       _GetFmsFullPath            004115d0 f   smartpropoplus:SmartPropoPlus.obj
 0001:000106e0       _GetDefaultVolumeValueFromRegistry 004116e0 f   smartpropoplus:SppRegistry.obj
 0001:000107b0       _SetDefaultVolumeValueToRegistry 004117b0 f   smartpropoplus:SppRegistry.obj
 0001:00010880       _GetCurrentAudioStateFromRegistry 00411880 f   smartpropoplus:SppRegistry.obj
 0001:00010910       _GetCurrentPpjoyStateFromRegistry 00411910 f   smartpropoplus:SppRegistry.obj
 0001:000109a0       _CreateEmptyBaseRegistry   004119a0 f   smartpropoplus:SppRegistry.obj
 0001:00010a00       _CreateEmptyAudioRegistry  00411a00 f   smartpropoplus:SppRegistry.obj
 0001:00010a50       _CreateDefaultSppRegistry  00411a50 f   smartpropoplus:SppRegistry.obj
 0001:00010af0       _CreateDefaultModRegistry  00411af0 f   smartpropoplus:SppRegistry.obj
 0001:00010c20       _SetCurrentAudioStateToRegistry 00411c20 f   smartpropoplus:SppRegistry.obj
 0001:00010ca0       _SetCurrentPpjoyStateToRegistry 00411ca0 f   smartpropoplus:SppRegistry.obj
 0001:00010d20       _GetCurrentMixerDeviceFromRegistry 00411d20 f   smartpropoplus:SppRegistry.obj
 0001:00010df0       _GetCurrentInputLineFromRegistry 00411df0 f   smartpropoplus:SppRegistry.obj
 0001:00010e80       _GetWaveInParamsFromRegistry 00411e80 f   smartpropoplus:SppRegistry.obj
 0001:00010fb0       _SetCurrentMixerDeviceToRegistry 00411fb0 f   smartpropoplus:SppRegistry.obj
 0001:00011030       _SetCurrentInputLineToRegistry 00412030 f   smartpropoplus:SppRegistry.obj
 0001:000110b0       _SetActiveModeToRegistry   004120b0 f   smartpropoplus:SppRegistry.obj
 0001:00011200       _SetShiftAutoDetectToRegistry 00412200 f   smartpropoplus:SppRegistry.obj
 0001:00011270       _SetPositiveShiftToRegistry 00412270 f   smartpropoplus:SppRegistry.obj
 0001:000112e0       _isDebugEntryExist         004122e0 f   smartpropoplus:SppRegistry.obj
 0001:00011370       _GetDebugLevelFromRegistry 00412370 f   smartpropoplus:SppRegistry.obj
 0001:00011470       _GetModulationFromRegistry 00412470 f   smartpropoplus:SppRegistry.obj
 0001:00011800       _isSppRegistryExist        00412800 f   smartpropoplus:SppRegistry.obj
 0001:00011850       _isModRegistryUpdate       00412850 f   smartpropoplus:SppRegistry.obj
 0001:00011a20       _UpdateModRegistry         00412a20 f   smartpropoplus:SppRegistry.obj
 0001:00011c30       _isAudioRegistryExist      00412c30 f   smartpropoplus:SppRegistry.obj
 0001:00011c80       _SetSelectedFilterNameToRegistry 00412c80 f   smartpropoplus:SppRegistry.obj
 0001:00011d00       _GetSelectedFilterNameFromRegistry 00412d00 f   smartpropoplus:SppRegistry.obj
 0001:00011dd0       _GetLocationDialogWindowFromRegistry 00412dd0 f   smartpropoplus:SppRegistry.obj
 0001:00011e70       _SetLocationDialogWindowToRegistry 00412e70 f   smartpropoplus:SppRegistry.obj
 0001:00011ef0       _GetAntiJitterStateFromRegistry 00412ef0 f   smartpropoplus:SppRegistry.obj
 0001:00011f80       _SetAntiJitterStateToRegistry 00412f80 f   smartpropoplus:SppRegistry.obj
 0001:00011ff0       _GetSppConsoleFullPathFromRegistry 00412ff0 f   smartpropoplus:SppRegistry.obj
 0001:00012190       _GetFmsFullPathFromRegistry 00413190 f   smartpropoplus:SppRegistry.obj
 0001:00012232       _mixerGetLineControlsA@12  00413232 f   winmm:WINMM.dll
 0001:00012238       _mixerSetControlDetails@12 00413238 f   winmm:WINMM.dll
 0001:0001223e       _mixerGetControlDetailsA@12 0041323e f   winmm:WINMM.dll
 0001:00012244       _mixerGetLineInfoA@12      00413244 f   winmm:WINMM.dll
 0001:0001224a       _waveInGetNumDevs@0        0041324a f   winmm:WINMM.dll
 0001:00012250       _mixerGetNumDevs@0         00413250 f   winmm:WINMM.dll
 0001:00012256       _waveInClose@4             00413256 f   winmm:WINMM.dll
 0001:0001225c       _mixerGetID@12             0041325c f   winmm:WINMM.dll
 0001:00012262       _waveInOpen@24             00413262 f   winmm:WINMM.dll
 0001:00012268       _mixerGetDevCapsA@12       00413268 f   winmm:WINMM.dll
 0001:0001226e       _mixerOpen@20              0041326e f   winmm:WINMM.dll
 0001:00012274       _SppAudioHdrLoggerStop@0   00413274 f   Wave2Joystick:Wave2Joystick.dll
 0001:0001227a       _SppAudioHdrLoggerStart@4  0041327a f   Wave2Joystick:Wave2Joystick.dll
 0001:00012280       _SppAudioHdrLoggerGetStat@4 00413280 f   Wave2Joystick:Wave2Joystick.dll
 0001:00012286       _SppPulseLoggerStop@0      00413286 f   Wave2Joystick:Wave2Joystick.dll
 0001:0001228c       _SppPulseLoggerStart@4     0041328c f   Wave2Joystick:Wave2Joystick.dll
 0001:00012292       _SppPulseLoggerGetStat@4   00413292 f   Wave2Joystick:Wave2Joystick.dll
 0001:00012298       _SppRawPulseLoggerStop@0   00413298 f   Wave2Joystick:Wave2Joystick.dll
 0001:0001229e       _SppRawPulseLoggerStart@4  0041329e f   Wave2Joystick:Wave2Joystick.dll
 0001:000122a4       _SppRawPulseLoggerGetStat@4 004132a4 f   Wave2Joystick:Wave2Joystick.dll
 0001:000122aa       _SppStart@0                004132aa f   Wave2Joystick:Wave2Joystick.dll
 0001:000122b0       _SetFilterInterface@4      004132b0 f   Wave2Joystick:Wave2Joystick.dll
 0001:000122b6       _SppSetActiveAudioDevice@4 004132b6 f   Wave2Joystick:Wave2Joystick.dll
 0001:000122bc       _GetWave2JoystickObject@0  004132bc f   Wave2Joystick:Wave2Joystick.dll
 0001:000122c2       _SppSetModulation@4        004132c2 f   Wave2Joystick:Wave2Joystick.dll
 0001:000122c8       _SppSetShift@4             004132c8 f   Wave2Joystick:Wave2Joystick.dll
 0001:000122ce       _SppStop@0                 004132ce f   Wave2Joystick:Wave2Joystick.dll
 0001:000122d4       _StopInterfaces@0          004132d4 f   Wave2Joystick:Wave2Joystick.dll
 0001:000122da       _StopPPJoyInterface@4      004132da f   Wave2Joystick:Wave2Joystick.dll
 0001:000122e0       _StartPPJoyInterface@4     004132e0 f   Wave2Joystick:Wave2Joystick.dll
 0001:000122e6       _SppGetFilteredPos@4       004132e6 f   Wave2Joystick:Wave2Joystick.dll
 0001:000122ec       _SppGetAudioLevel@4        004132ec f   Wave2Joystick:Wave2Joystick.dll
 0001:000122f2       _TestPPJoyInterface@4      004132f2 f   Wave2Joystick:Wave2Joystick.dll
 0001:000122f8       _SppSetAntiJitter@4        004132f8 f   Wave2Joystick:Wave2Joystick.dll
 0001:000122fe       _SppWaveLoggerGetStat@4    004132fe f   Wave2Joystick:Wave2Joystick.dll
 0001:00012304       _SppWaveLoggerStop@0       00413304 f   Wave2Joystick:Wave2Joystick.dll
 0001:0001230a       _SppWaveLoggerPlay@4       0041330a f   Wave2Joystick:Wave2Joystick.dll
 0001:00012310       _SppWaveLoggerStart@4      00413310 f   Wave2Joystick:Wave2Joystick.dll
 0001:00012320       ??0CFilterIf@@QAE@XZ       00413320 f   FilterIf:FilterIf.obj
 0001:00012360       ??1CFilterIf@@QAE@XZ       00413360 f   FilterIf:FilterIf.obj
 0001:00012380       ?Init@CFilterIf@@QAE_NXZ   00413380 f   FilterIf:FilterIf.obj
 0001:00012470       ?GetNumberOfFilters@CFilterIf@@QAEHXZ 00413470 f   FilterIf:FilterIf.obj
 0001:00012490       ?GetIndexOfSelected@CFilterIf@@QAEHXZ 00413490 f   FilterIf:FilterIf.obj
 0001:000125a0       ?GetFilterName@CFilterIf@@QAEPADH@Z 004135a0 f   FilterIf:FilterIf.obj
 0001:00012610       ?SetSelected@CFilterIf@@QAEHH@Z 00413610 f   FilterIf:FilterIf.obj
 0001:00012690       ?Run@CFilterIf@@IAEPAXPAXHH@Z 00413690 f   FilterIf:FilterIf.obj
 0001:00012700       ?Filter@CFilterIf@@QAEPAHPAH0HH@Z 00413700 f   FilterIf:FilterIf.obj
 0001:000127a0       __tcscmp                   004137a0 f i FilterIf:FilterIf.obj
 0001:000127c8       ?GetThisMessageMap@CDialog@@KGPBUAFX_MSGMAP@@XZ 004137c8 f   mfc71d:MFC71D.DLL
 0001:000127ce       ?PreInitDialog@CDialog@@MAEXXZ 004137ce f   mfc71d:MFC71D.DLL
 0001:000127d4       ?OnCancel@CDialog@@MAEXXZ  004137d4 f   mfc71d:MFC71D.DLL
 0001:000127da       ?OnOK@CDialog@@MAEXXZ      004137da f   mfc71d:MFC71D.DLL
 0001:000127e0       ?OnSetFont@CDialog@@UAEXPAVCFont@@@Z 004137e0 f   mfc71d:MFC71D.DLL
 0001:000127e6       ?DoModal@CDialog@@UAEHXZ   004137e6 f   mfc71d:MFC71D.DLL
 0001:000127ec       ?CreateIndirect@CDialog@@UAEHPBUDLGTEMPLATE@@PAVCWnd@@PAX@Z 004137ec f   mfc71d:MFC71D.DLL
 0001:000127f2       ?CreateIndirect@CDialog@@UAEHPAXPAVCWnd@@@Z 004137f2 f   mfc71d:MFC71D.DLL
 0001:000127f8       ?Create@CDialog@@UAEHPBDPAVCWnd@@@Z 004137f8 f   mfc71d:MFC71D.DLL
 0001:000127fe       ?Create@CDialog@@UAEHIPAVCWnd@@@Z 004137fe f   mfc71d:MFC71D.DLL
 0001:00012804       ?SetOccDialogInfo@CDialog@@MAEHPAU_AFX_OCC_DIALOG_INFO@@@Z 00413804 f   mfc71d:MFC71D.DLL
 0001:0001280a       ?CreateControlSite@CWnd@@MAEHPAVCOleControlContainer@@PAPAVCOleControlSite@@IABU_GUID@@@Z 0041380a f   mfc71d:MFC71D.DLL
 0001:00012810       ?CreateControlContainer@CWnd@@MAEHPAPAVCOleControlContainer@@@Z 00413810 f   mfc71d:MFC71D.DLL
 0001:00012816       ?IsFrameWnd@CWnd@@UBEHXZ   00413816 f   mfc71d:MFC71D.DLL
 0001:0001281c       ?CheckAutoCenter@CDialog@@UAEHXZ 0041381c f   mfc71d:MFC71D.DLL
 0001:00012822       ?OnChildNotify@CWnd@@MAEHIIJPAJ@Z 00413822 f   mfc71d:MFC71D.DLL
 0001:00012828       ?PostNcDestroy@CWnd@@MAEXXZ 00413828 f   mfc71d:MFC71D.DLL
 0001:0001282e       ?DefWindowProcA@CWnd@@MAEJIIJ@Z 0041382e f   mfc71d:MFC71D.DLL
 0001:00012834       ?OnWndMsg@CWnd@@MAEHIIJPAJ@Z 00413834 f   mfc71d:MFC71D.DLL
 0001:0001283a       ?WindowProc@CWnd@@MAEJIIJ@Z 0041383a f   mfc71d:MFC71D.DLL
 0001:00012840       ?OnAmbientProperty@CWnd@@UAEHPAVCOleControlSite@@JPAUtagVARIANT@@@Z 00413840 f   mfc71d:MFC71D.DLL
 0001:00012846       ?PreTranslateMessage@CDialog@@UAEHPAUtagMSG@@@Z 00413846 f   mfc71d:MFC71D.DLL
 0001:0001284c       ?EndModalState@CWnd@@UAEXXZ 0041384c f   mfc71d:MFC71D.DLL
 0001:00012852       ?BeginModalState@CWnd@@UAEXXZ 00413852 f   mfc71d:MFC71D.DLL
 0001:00012858       ?GetSuperWndProcAddr@CWnd@@MAEPAP6GJPAUHWND__@@IIJ@ZXZ 00413858 f   mfc71d:MFC71D.DLL
 0001:0001285e       ?OnNotify@CWnd@@MAEHIJPAJ@Z 0041385e f   mfc71d:MFC71D.DLL
 0001:00012864       ?OnCommand@CWnd@@MAEHIJ@Z  00413864 f   mfc71d:MFC71D.DLL
 0001:0001286a       ?CreateAccessibleProxy@CWnd@@UAEJIJPAJ@Z 0041386a f   mfc71d:MFC71D.DLL
 0001:00012870       ?SetProxy@CWnd@@UAEJPAUIAccessibleProxy@@@Z 00413870 f   mfc71d:MFC71D.DLL
 0001:00012880       ?accDoDefaultAction@CWnd@@UAEJUtagVARIANT@@@Z 00413880 f   mfc71d:MFC71D.DLL
 0001:00012886       ?accHitTest@CWnd@@UAEJJJPAUtagVARIANT@@@Z 00413886 f   mfc71d:MFC71D.DLL
 0001:0001288c       ?accNavigate@CWnd@@UAEJJUtagVARIANT@@PAU2@@Z 0041388c f   mfc71d:MFC71D.DLL
 0001:00012892       ?accLocation@CWnd@@UAEJPAJ000UtagVARIANT@@@Z 00413892 f   mfc71d:MFC71D.DLL
 0001:00012898       ?accSelect@CWnd@@UAEJJUtagVARIANT@@@Z 00413898 f   mfc71d:MFC71D.DLL
 0001:000128a0       ?get_accSelection@CWnd@@UAEJPAUtagVARIANT@@@Z 004138a0 f   mfc71d:MFC71D.DLL
 0001:000128a6       ?get_accFocus@CWnd@@UAEJPAUtagVARIANT@@@Z 004138a6 f   mfc71d:MFC71D.DLL
 0001:000128b0       ?get_accState@CWnd@@UAEJUtagVARIANT@@PAU2@@Z 004138b0 f   mfc71d:MFC71D.DLL
 0001:000128b6       ?get_accRole@CWnd@@UAEJUtagVARIANT@@PAU2@@Z 004138b6 f   mfc71d:MFC71D.DLL
 0001:000128c0       ?get_accChild@CWnd@@UAEJUtagVARIANT@@PAPAUIDispatch@@@Z 004138c0 f   mfc71d:MFC71D.DLL
 0001:000128c6       ?get_accChildCount@CWnd@@UAEJPAJ@Z 004138c6 f   mfc71d:MFC71D.DLL
 0001:000128cc       ?get_accParent@CWnd@@UAEJPAPAUIDispatch@@@Z 004138cc f   mfc71d:MFC71D.DLL
 0001:000128d2       ?EnsureStdObj@CWnd@@UAEJXZ 004138d2 f   mfc71d:MFC71D.DLL
 0001:000128d8       ?EndModalLoop@CWnd@@UAEXH@Z 004138d8 f   mfc71d:MFC71D.DLL
 0001:000128de       ?ContinueModal@CWnd@@UAEHXZ 004138de f   mfc71d:MFC71D.DLL
 0001:000128e4       ?WinHelpInternal@CWnd@@UAEXKI@Z 004138e4 f   mfc71d:MFC71D.DLL
 0001:000128ea       ?HtmlHelpA@CWnd@@UAEXKI@Z  004138ea f   mfc71d:MFC71D.DLL
 0001:000128f0       ?WinHelpA@CWnd@@UAEXKI@Z   004138f0 f   mfc71d:MFC71D.DLL
 0001:000128f6       ?GetScrollBarCtrl@CWnd@@UBEPAVCScrollBar@@H@Z 004138f6 f   mfc71d:MFC71D.DLL
 0001:000128fc       ?OnToolHitTest@CWnd@@UBEHVCPoint@@PAUtagTOOLINFOA@@@Z 004138fc f   mfc71d:MFC71D.DLL
 0001:00012902       ?CalcWindowRect@CWnd@@UAEXPAUtagRECT@@I@Z 00413902 f   mfc71d:MFC71D.DLL
 0001:00012908       ?PreCreateWindow@CWnd@@UAEHAAUtagCREATESTRUCTA@@@Z 00413908 f   mfc71d:MFC71D.DLL
 0001:0001290e       ?DestroyWindow@CWnd@@UAEHXZ 0041390e f   mfc71d:MFC71D.DLL
 0001:00012914       ?CreateEx@CWnd@@UAEHKPBD0KHHHHPAUHWND__@@PAUHMENU__@@PAX@Z 00413914 f   mfc71d:MFC71D.DLL
 0001:0001291a       ?CreateEx@CWnd@@UAEHKPBD0KABUtagRECT@@PAV1@IPAX@Z 0041391a f   mfc71d:MFC71D.DLL
 0001:00012920       ?Create@CWnd@@UAEHPBD0KABUtagRECT@@PAV1@IPAUCCreateContext@@@Z 00413920 f   mfc71d:MFC71D.DLL
 0001:00012926       ?PreSubclassWindow@CWnd@@UAEXXZ 00413926 f   mfc71d:MFC71D.DLL
 0001:0001292c       ?GetConnectionHook@CCmdTarget@@MAEPAUIConnectionPoint@@ABU_GUID@@@Z 0041392c f   mfc71d:MFC71D.DLL
 0001:00012932       ?GetExtraConnectionPoints@CCmdTarget@@MAEHPAVCPtrArray@@@Z 00413932 f   mfc71d:MFC71D.DLL
 0001:00012938       ?GetInterfaceHook@CCmdTarget@@UAEPAUIUnknown@@PBX@Z 00413938 f   mfc71d:MFC71D.DLL
 0001:0001293e       ?OnCreateAggregates@CCmdTarget@@UAEHXZ 0041393e f   mfc71d:MFC71D.DLL
 0001:00012944       ?GetEventSinkMap@CCmdTarget@@MBEPBUAFX_EVENTSINKMAP@@XZ 00413944 f   mfc71d:MFC71D.DLL
 0001:0001294a       ?GetInterfaceMap@CWnd@@MBEPBUAFX_INTERFACEMAP@@XZ 0041394a f   mfc71d:MFC71D.DLL
 0001:00012950       ?GetConnectionMap@CCmdTarget@@MBEPBUAFX_CONNECTIONMAP@@XZ 00413950 f   mfc71d:MFC71D.DLL
 0001:00012956       ?GetDispatchMap@CCmdTarget@@MBEPBUAFX_DISPMAP@@XZ 00413956 f   mfc71d:MFC71D.DLL
 0001:0001295c       ?GetCommandMap@CCmdTarget@@MBEPBUAFX_OLECMDMAP@@XZ 0041395c f   mfc71d:MFC71D.DLL
 0001:00012962       ?GetTypeLib@CCmdTarget@@UAEJKPAPAUITypeLib@@@Z 00413962 f   mfc71d:MFC71D.DLL
 0001:00012968       ?GetTypeLibCache@CCmdTarget@@UAEPAVCTypeLibCache@@XZ 00413968 f   mfc71d:MFC71D.DLL
 0001:0001296e       ?GetTypeInfoCount@CCmdTarget@@UAEIXZ 0041396e f   mfc71d:MFC71D.DLL
 0001:00012974       ?GetDispatchIID@CCmdTarget@@UAEHPAU_GUID@@@Z 00413974 f   mfc71d:MFC71D.DLL
 0001:0001297a       ?IsInvokeAllowed@CCmdTarget@@UAEHJ@Z 0041397a f   mfc71d:MFC71D.DLL
 0001:00012980       ?OnFinalRelease@CWnd@@UAEXXZ 00413980 f   mfc71d:MFC71D.DLL
 0001:00012986       ?OnCmdMsg@CDialog@@UAEHIHPAXPAUAFX_CMDHANDLERINFO@@@Z 00413986 f   mfc71d:MFC71D.DLL
 0001:0001298c       ?Dump@CDialog@@UBEXAAVCDumpContext@@@Z 0041398c f   mfc71d:MFC71D.DLL
 0001:00012992       ?AssertValid@CDialog@@UBEXXZ 00413992 f   mfc71d:MFC71D.DLL
 0001:00012998       ?Serialize@CObject@@UAEXAAVCArchive@@@Z 00413998 f   mfc71d:MFC71D.DLL
 0001:0001299e       ?GetRuntimeClass@CDialog@@UBEPAUCRuntimeClass@@XZ 0041399e f   mfc71d:MFC71D.DLL
 0001:000129a4       ??1CDialog@@UAE@XZ         004139a4 f   mfc71d:MFC71D.DLL
 0001:000129aa       ??0CDialog@@QAE@IPAVCWnd@@@Z 004139aa f   mfc71d:MFC71D.DLL
 0001:000129b0       ??3CObject@@SGXPAX@Z       004139b0 f   mfc71d:MFC71D.DLL
 0001:000129b6       ??1CStatic@@UAE@XZ         004139b6 f   mfc71d:MFC71D.DLL
 0001:000129bc       ??1?$CStringT@DV?$StrTraitMFC_DLL@DV?$ChTraitsCRT@D@ATL@@@@@ATL@@QAE@XZ 004139bc f   mfc71d:MFC71D.DLL
 0001:000129c2       ??1CFont@@UAE@XZ           004139c2 f   mfc71d:MFC71D.DLL
 0001:000129c8       ?DoDataExchange@CWnd@@MAEXPAVCDataExchange@@@Z 004139c8 f   mfc71d:MFC71D.DLL
 0001:000129ce       ?OnInitDialog@CDialog@@UAEHXZ 004139ce f   mfc71d:MFC71D.DLL
 0001:000129d4       ??B?$CSimpleStringT@D$00@ATL@@QBEPBDXZ 004139d4 f   mfc71d:MFC71D.DLL
 0001:000129da       ?Format@?$CStringT@DV?$StrTraitMFC_DLL@DV?$ChTraitsCRT@D@ATL@@@@@ATL@@QAAXPBDZZ 004139da f   mfc71d:MFC71D.DLL
 0001:000129e0       ?GetDlgItem@CWnd@@QBEPAV1@H@Z 004139e0 f   mfc71d:MFC71D.DLL
 0001:000129e6       ??0?$CStringT@DV?$StrTraitMFC_DLL@DV?$ChTraitsCRT@D@ATL@@@@@ATL@@QAE@XZ 004139e6 f   mfc71d:MFC71D.DLL
 0001:000129ec       ??0?$CStringT@DV?$StrTraitMFC_DLL@DV?$ChTraitsCRT@D@ATL@@@@@ATL@@QAE@PBD@Z 004139ec f   mfc71d:MFC71D.DLL
 0001:000129f2       ?SetWindowTextA@CWnd@@QAEXPBD@Z 004139f2 f   mfc71d:MFC71D.DLL
 0001:000129f8       ?SubclassDlgItem@CWnd@@QAEHIPAV1@@Z 004139f8 f   mfc71d:MFC71D.DLL
 0001:000129fe       ??3@YAXPAXPBDH@Z           004139fe f   mfc71d:MFC71D.DLL
 0001:00012a04       ??2@YAPAXIPBDH@Z           00413a04 f   mfc71d:MFC71D.DLL
 0001:00012a0a       ??3@YAXPAX@Z               00413a0a f   mfc71d:MFC71D.DLL
 0001:00012a10       ??3CObject@@SGXPAXPBDH@Z   00413a10 f   mfc71d:MFC71D.DLL
 0001:00012a16       ??2CObject@@SGPAXIPBDH@Z   00413a16 f   mfc71d:MFC71D.DLL
 0001:00012a1c       ?GetRuntimeClass@CObject@@UBEPAUCRuntimeClass@@XZ 00413a1c f   mfc71d:MFC71D.DLL
 0001:00012a22       ??0CObject@@IAE@XZ         00413a22 f   mfc71d:MFC71D.DLL
 0001:00012a28       ?AfxThrowInvalidArgException@@YGXXZ 00413a28 f   mfc71d:MFC71D.DLL
 0001:00012a2e       ?AfxAssertFailedLine@@YGHPBDH@Z 00413a2e f   mfc71d:MFC71D.DLL
 0001:00012a34       ?AfxAssertValidObject@@YGXPBVCObject@@PBDH@Z 00413a34 f   mfc71d:MFC71D.DLL
 0001:00012a3a       ??1CObject@@UAE@XZ         00413a3a f   mfc71d:MFC71D.DLL
 0001:00012a40       ??_V@YAXPAX@Z              00413a40 f   mfc71d:MFC71D.DLL
 0001:00012a46       ?ReadCount@CArchive@@QAEKXZ 00413a46 f   mfc71d:MFC71D.DLL
 0001:00012a4c       ?WriteCount@CArchive@@QAEXK@Z 00413a4c f   mfc71d:MFC71D.DLL
 0001:00012a52       ?IsStoring@CArchive@@QBEHXZ 00413a52 f   mfc71d:MFC71D.DLL
 0001:00012a58       ?GetDepth@CDumpContext@@QBEHXZ 00413a58 f   mfc71d:MFC71D.DLL
 0001:00012a5e       ??6CDumpContext@@QAEAAV0@H@Z 00413a5e f   mfc71d:MFC71D.DLL
 0001:00012a64       ??6CDumpContext@@QAEAAV0@PBD@Z 00413a64 f   mfc71d:MFC71D.DLL
 0001:00012a6a       ?Dump@CObject@@UBEXAAVCDumpContext@@@Z 00413a6a f   mfc71d:MFC71D.DLL
 0001:00012a70       ?AfxIsValidAddress@@YGHPBXIH@Z 00413a70 f   mfc71d:MFC71D.DLL
 0001:00012a76       ?AssertValid@CObject@@UBEXXZ 00413a76 f   mfc71d:MFC71D.DLL
 0001:00012a7c       ??_U@YAPAXI@Z              00413a7c f   mfc71d:MFC71D.DLL
 0001:00012a82       ??_U@YAPAXIPBDH@Z          00413a82 f   mfc71d:MFC71D.DLL
 0001:00012a88       ?Read@CArchive@@QAEIPAXI@Z 00413a88 f   mfc71d:MFC71D.DLL
 0001:00012a8e       ?Write@CArchive@@QAEXPBXI@Z 00413a8e f   mfc71d:MFC71D.DLL
 0001:00012a94       ??1CEdit@@UAE@XZ           00413a94 f   mfc71d:MFC71D.DLL
 0001:00012a9a       ??1CSliderCtrl@@UAE@XZ     00413a9a f   mfc71d:MFC71D.DLL
 0001:00012aa0       ??0CEdit@@QAE@XZ           00413aa0 f   mfc71d:MFC71D.DLL
 0001:00012aa6       ??0CSliderCtrl@@QAE@XZ     00413aa6 f   mfc71d:MFC71D.DLL
 0001:00012aac       ?DDX_Control@@YGXPAVCDataExchange@@HAAVCWnd@@@Z 00413aac f   mfc71d:MFC71D.DLL
 0001:00012ab2       ?OnHScroll@CWnd@@IAEXIIPAVCScrollBar@@@Z 00413ab2 f   mfc71d:MFC71D.DLL
 0001:00012ab8       ?GetDlgCtrlID@CWnd@@QBEHXZ 00413ab8 f   mfc71d:MFC71D.DLL
 0001:00012abe       ?SetTicFreq@CSliderCtrl@@QAEXH@Z 00413abe f   mfc71d:MFC71D.DLL
 0001:00012ac4       ?SetPos@CSliderCtrl@@QAEXH@Z 00413ac4 f   mfc71d:MFC71D.DLL
 0001:00012aca       ?SetLimitText@CEdit@@QAEXI@Z 00413aca f   mfc71d:MFC71D.DLL
 0001:00012ad0       ?SetSel@CEdit@@QAEXHHH@Z   00413ad0 f   mfc71d:MFC71D.DLL
 0001:00012ad6       ?GetLength@?$CSimpleStringT@D$00@ATL@@QBEHXZ 00413ad6 f   mfc71d:MFC71D.DLL
 0001:00012adc       ?GetWindowTextA@CWnd@@QBEXAAV?$CStringT@DV?$StrTraitMFC_DLL@DV?$ChTraitsCRT@D@ATL@@@@@ATL@@@Z 00413adc f   mfc71d:MFC71D.DLL
 0001:00012ae2       ?GetThisMessageMap@CWnd@@KGPBUAFX_MSGMAP@@XZ 00413ae2 f   mfc71d:MFC71D.DLL
 0001:00012ae8       ?DrawItem@CStatic@@UAEXPAUtagDRAWITEMSTRUCT@@@Z 00413ae8 f   mfc71d:MFC71D.DLL
 0001:00012aee       ?Create@CStatic@@UAEHPBDKABUtagRECT@@PAVCWnd@@I@Z 00413aee f   mfc71d:MFC71D.DLL
 0001:00012af4       ?SetOccDialogInfo@CWnd@@MAEHPAU_AFX_OCC_DIALOG_INFO@@@Z 00413af4 f   mfc71d:MFC71D.DLL
 0001:00012afa       ?CheckAutoCenter@CWnd@@UAEHXZ 00413afa f   mfc71d:MFC71D.DLL
 0001:00012b00       ?OnChildNotify@CStatic@@MAEHIIJPAJ@Z 00413b00 f   mfc71d:MFC71D.DLL
 0001:00012b06       ?PreTranslateMessage@CWnd@@UAEHPAUtagMSG@@@Z 00413b06 f   mfc71d:MFC71D.DLL
 0001:00012b0c       ?OnCmdMsg@CCmdTarget@@UAEHIHPAXPAUAFX_CMDHANDLERINFO@@@Z 00413b0c f   mfc71d:MFC71D.DLL
 0001:00012b12       ?Dump@CWnd@@UBEXAAVCDumpContext@@@Z 00413b12 f   mfc71d:MFC71D.DLL
 0001:00012b18       ?AssertValid@CWnd@@UBEXXZ  00413b18 f   mfc71d:MFC71D.DLL
 0001:00012b1e       ?GetRuntimeClass@CStatic@@UBEPAUCRuntimeClass@@XZ 00413b1e f   mfc71d:MFC71D.DLL
 0001:00012b24       ??1CBrush@@UAE@XZ          00413b24 f   mfc71d:MFC71D.DLL
 0001:00012b2a       ??1CPen@@UAE@XZ            00413b2a f   mfc71d:MFC71D.DLL
 0001:00012b30       ??0CBrush@@QAE@XZ          00413b30 f   mfc71d:MFC71D.DLL
 0001:00012b36       ??0CPen@@QAE@XZ            00413b36 f   mfc71d:MFC71D.DLL
 0001:00012b3c       ??0CStatic@@QAE@XZ         00413b3c f   mfc71d:MFC71D.DLL
 0001:00012b42       ??0CClientDC@@QAE@PAVCWnd@@@Z 00413b42 f   mfc71d:MFC71D.DLL
 0001:00012b48       ??1CPaintDC@@UAE@XZ        00413b48 f   mfc71d:MFC71D.DLL
 0001:00012b4e       ??0CPaintDC@@QAE@PAVCWnd@@@Z 00413b4e f   mfc71d:MFC71D.DLL
 0001:00012b54       ?OnTimer@CWnd@@IAEXI@Z     00413b54 f   mfc71d:MFC71D.DLL
 0001:00012b5a       ?GetClientRect@CWnd@@QBEXPAUtagRECT@@@Z 00413b5a f   mfc71d:MFC71D.DLL
 0001:00012b60       ?KillTimer@CWnd@@QAEHI@Z   00413b60 f   mfc71d:MFC71D.DLL
 0001:00012b66       ?SetTimer@CWnd@@QAEIIIP6GXPAUHWND__@@IIK@Z@Z 00413b66 f   mfc71d:MFC71D.DLL
 0001:00012b6c       ?SelectObject@CDC@@QAEPAVCBrush@@PAV2@@Z 00413b6c f   mfc71d:MFC71D.DLL
 0001:00012b72       ?SelectObject@CDC@@QAEPAVCPen@@PAV2@@Z 00413b72 f   mfc71d:MFC71D.DLL
 0001:00012b78       ?CreateSolidBrush@CBrush@@QAEHK@Z 00413b78 f   mfc71d:MFC71D.DLL
 0001:00012b7e       ?CreatePen@CPen@@QAEHHHK@Z 00413b7e f   mfc71d:MFC71D.DLL
 0001:00012b84       ?DeleteObject@CGdiObject@@QAEHXZ 00413b84 f   mfc71d:MFC71D.DLL
 0001:00012b8a       ?Ellipse@CDC@@QAEHHHHH@Z   00413b8a f   mfc71d:MFC71D.DLL
 0001:00012b90       ?Arc@CDC@@QAEHPBUtagRECT@@UtagPOINT@@1@Z 00413b90 f   mfc71d:MFC71D.DLL
 0001:00012b96       ?MoveTo@CDC@@QAE?AVCPoint@@UtagPOINT@@@Z 00413b96 f   mfc71d:MFC71D.DLL
 0001:00012b9c       ?Ellipse@CDC@@QAEHPBUtagRECT@@@Z 00413b9c f   mfc71d:MFC71D.DLL
 0001:00012ba2       ?LineTo@CDC@@QAEHHH@Z      00413ba2 f   mfc71d:MFC71D.DLL
 0001:00012ba8       ?MoveTo@CDC@@QAE?AVCPoint@@HH@Z 00413ba8 f   mfc71d:MFC71D.DLL
 0001:00012bae       ?FillRect@CDC@@QAEXPBUtagRECT@@PAVCBrush@@@Z 00413bae f   mfc71d:MFC71D.DLL
 0001:00012bb4       ?EnableWindow@CWnd@@QAEHH@Z 00413bb4 f   mfc71d:MFC71D.DLL
 0001:00012bba       ?PostMessageA@CWnd@@QAEHIIJ@Z 00413bba f   mfc71d:MFC71D.DLL
 0001:00012bc0       ?GetParent@CWnd@@QBEPAV1@XZ 00413bc0 f   mfc71d:MFC71D.DLL
 0001:00012bc6       ?GetThisClass@CDialog@@SGPAUCRuntimeClass@@XZ 00413bc6 f   mfc71d:MFC71D.DLL
 0001:00012bcc       ?GetCheck@CButton@@QBEHXZ  00413bcc f   mfc71d:MFC71D.DLL
 0001:00012bd2       ?GetCurSel@CListBox@@QBEHXZ 00413bd2 f   mfc71d:MFC71D.DLL
 0001:00012bd8       ?GetCurSel@CComboBox@@QBEHXZ 00413bd8 f   mfc71d:MFC71D.DLL
 0001:00012bde       ?SetCheck@CButton@@QAEXH@Z 00413bde f   mfc71d:MFC71D.DLL
 0001:00012be4       ?SetCurSel@CListBox@@QAEHH@Z 00413be4 f   mfc71d:MFC71D.DLL
 0001:00012bea       ?SetCurSel@CComboBox@@QAEHH@Z 00413bea f   mfc71d:MFC71D.DLL
 0001:00012bf0       ?GetCount@CListBox@@QBEHXZ 00413bf0 f   mfc71d:MFC71D.DLL
 0001:00012bf6       ?GetCount@CComboBox@@QBEHXZ 00413bf6 f   mfc71d:MFC71D.DLL
 0001:00012bfc       ?AfxGetApp@@YGPAVCWinApp@@XZ 00413bfc f   mfc71d:MFC71D.DLL
 0001:00012c02       ?GetBuffer@?$CSimpleStringT@D$00@ATL@@QAEPADXZ 00413c02 f   mfc71d:MFC71D.DLL
 0001:00012c08       ?IsEmpty@?$CSimpleStringT@D$00@ATL@@QBE_NXZ 00413c08 f   mfc71d:MFC71D.DLL
 0001:00012c0e       ?RedrawWindow@CWnd@@QAEHPBUtagRECT@@PAVCRgn@@I@Z 00413c0e f   mfc71d:MFC71D.DLL
 0001:00012c14       ?LineScroll@CEdit@@QAEXHH@Z 00413c14 f   mfc71d:MFC71D.DLL
 0001:00012c1a       ?GetLineCount@CEdit@@QBEHXZ 00413c1a f   mfc71d:MFC71D.DLL
 0001:00012c20       ?GetText@CListBox@@QBEXHAAV?$CStringT@DV?$StrTraitMFC_DLL@DV?$ChTraitsCRT@D@ATL@@@@@ATL@@@Z 00413c20 f   mfc71d:MFC71D.DLL
 0001:00012c26       ??4?$CStringT@DV?$StrTraitMFC_DLL@DV?$ChTraitsCRT@D@ATL@@@@@ATL@@QAEAAV01@PBD@Z 00413c26 f   mfc71d:MFC71D.DLL
 0001:00012c2c       ?MoveWindow@CWnd@@QAEXPBUtagRECT@@H@Z 00413c2c f   mfc71d:MFC71D.DLL
 0001:00012c32       ?GetWindowRect@CWnd@@QBEXPAUtagRECT@@@Z 00413c32 f   mfc71d:MFC71D.DLL
 0001:00012c38       ?OnShowWindow@CWnd@@IAEXHI@Z 00413c38 f   mfc71d:MFC71D.DLL
 0001:00012c3e       ??0?$CStringT@DV?$StrTraitMFC_DLL@DV?$ChTraitsCRT@D@ATL@@@@@ATL@@QAE@ABV01@@Z 00413c3e f   mfc71d:MFC71D.DLL
 0001:00012c44       ?Concatenate@?$CSimpleStringT@D$00@ATL@@KAXAAV12@PBDH1H@Z 00413c44 f   mfc71d:MFC71D.DLL
 0001:00012c4a       ??0?$CStringT@DV?$StrTraitMFC_DLL@DV?$ChTraitsCRT@D@ATL@@@@@ATL@@QAE@PAUIAtlStringMgr@1@@Z 00413c4a f   mfc71d:MFC71D.DLL
 0001:00012c50       ?GetManager@?$CSimpleStringT@D$00@ATL@@QBEPAUIAtlStringMgr@2@XZ 00413c50 f   mfc71d:MFC71D.DLL
 0001:00012c56       ?OnHelp@CWinApp@@IAEXXZ    00413c56 f   mfc71d:MFC71D.DLL
 0001:00012c5c       ?GetThisMessageMap@CWinApp@@KGPBUAFX_MSGMAP@@XZ 00413c5c f   mfc71d:MFC71D.DLL
 0001:00012c62       ?LoadSysPolicies@CWinApp@@UAEHXZ 00413c62 f   mfc71d:MFC71D.DLL
 0001:00012c68       ?LoadAppLangResourceDLL@CWinApp@@UAEPAUHINSTANCE__@@XZ 00413c68 f   mfc71d:MFC71D.DLL
 0001:00012c6e       ?WinHelpInternal@CWinApp@@UAEXKI@Z 00413c6e f   mfc71d:MFC71D.DLL
 0001:00012c74       ?HtmlHelpA@CWinApp@@UAEXKI@Z 00413c74 f   mfc71d:MFC71D.DLL
 0001:00012c7a       ?WinHelpA@CWinApp@@UAEXKI@Z 00413c7a f   mfc71d:MFC71D.DLL
 0001:00012c80       ?OnDDECommand@CWinApp@@UAEHPAD@Z 00413c80 f   mfc71d:MFC71D.DLL
 0001:00012c86       ?DoWaitCursor@CWinApp@@UAEXH@Z 00413c86 f   mfc71d:MFC71D.DLL
 0001:00012c8c       ?DoMessageBox@CWinApp@@UAEHPBDII@Z 00413c8c f   mfc71d:MFC71D.DLL
 0001:00012c92       ?SaveAllModified@CWinApp@@UAEHXZ 00413c92 f   mfc71d:MFC71D.DLL
 0001:00012c98       ?InitApplication@CWinApp@@UAEHXZ 00413c98 f   mfc71d:MFC71D.DLL
 0001:00012c9e       ?AddToRecentFileList@CWinApp@@UAEXPBD@Z 00413c9e f   mfc71d:MFC71D.DLL
 0001:00012ca4       ?OpenDocumentFile@CWinApp@@UAEPAVCDocument@@PBD@Z 00413ca4 f   mfc71d:MFC71D.DLL
 0001:00012caa       ?Unregister@CWinApp@@UAEHXZ 00413caa f   mfc71d:MFC71D.DLL
 0001:00012cb0       ?Register@CWinApp@@UAEHXZ  00413cb0 f   mfc71d:MFC71D.DLL
 0001:00012cb6       ?InitLibId@CWinApp@@UAEXXZ 00413cb6 f   mfc71d:MFC71D.DLL
 0001:00012cbc       ?Delete@CWinThread@@UAEXXZ 00413cbc f   mfc71d:MFC71D.DLL
 0001:00012cc2       ?GetMainWnd@CWinThread@@UAEPAVCWnd@@XZ 00413cc2 f   mfc71d:MFC71D.DLL
 0001:00012cc8       ?ProcessMessageFilter@CWinThread@@UAEHHPAUtagMSG@@@Z 00413cc8 f   mfc71d:MFC71D.DLL
 0001:00012cce       ?ProcessWndProcException@CWinApp@@UAEJPAVCException@@PBUtagMSG@@@Z 00413cce f   mfc71d:MFC71D.DLL
 0001:00012cd4       ?ExitInstance@CWinApp@@UAEHXZ 00413cd4 f   mfc71d:MFC71D.DLL
 0001:00012cda       ?IsIdleMessage@CWinThread@@UAEHPAUtagMSG@@@Z 00413cda f   mfc71d:MFC71D.DLL
 0001:00012ce0       ?OnIdle@CWinApp@@UAEHJ@Z   00413ce0 f   mfc71d:MFC71D.DLL
 0001:00012ce6       ?PumpMessage@CWinThread@@UAEHXZ 00413ce6 f   mfc71d:MFC71D.DLL
 0001:00012cec       ?PreTranslateMessage@CWinThread@@UAEHPAUtagMSG@@@Z 00413cec f   mfc71d:MFC71D.DLL
 0001:00012cf2       ?Run@CWinApp@@UAEHXZ       00413cf2 f   mfc71d:MFC71D.DLL
 0001:00012cf8       ?GetInterfaceMap@CCmdTarget@@MBEPBUAFX_INTERFACEMAP@@XZ 00413cf8 f   mfc71d:MFC71D.DLL
 0001:00012cfe       ?OnFinalRelease@CCmdTarget@@UAEXXZ 00413cfe f   mfc71d:MFC71D.DLL
 0001:00012d04       ?Dump@CWinApp@@UBEXAAVCDumpContext@@@Z 00413d04 f   mfc71d:MFC71D.DLL
 0001:00012d0a       ?AssertValid@CWinApp@@UBEXXZ 00413d0a f   mfc71d:MFC71D.DLL
 0001:00012d10       ?GetRuntimeClass@CWinApp@@UBEPAUCRuntimeClass@@XZ 00413d10 f   mfc71d:MFC71D.DLL
 0001:00012d16       ??0CWinApp@@QAE@PBD@Z      00413d16 f   mfc71d:MFC71D.DLL
 0001:00012d1c       ??1CWinApp@@UAE@XZ         00413d1c f   mfc71d:MFC71D.DLL
 0001:00012d22       ??1CProgressCtrl@@UAE@XZ   00413d22 f   mfc71d:MFC71D.DLL
 0001:00012d28       ?LoadIconA@CWinApp@@QBEPAUHICON__@@I@Z 00413d28 f   mfc71d:MFC71D.DLL
 0001:00012d2e       ??0CProgressCtrl@@QAE@XZ   00413d2e f   mfc71d:MFC71D.DLL
 0001:00012d34       ?DDX_Check@@YGXPAVCDataExchange@@HAAH@Z 00413d34 f   mfc71d:MFC71D.DLL
 0001:00012d3a       ?SendMessageA@CWnd@@QAEJIIJ@Z 00413d3a f   mfc71d:MFC71D.DLL
 0001:00012d40       ?SetBkColor@CProgressCtrl@@QAEKK@Z 00413d40 f   mfc71d:MFC71D.DLL
 0001:00012d46       ?SetRange@CProgressCtrl@@QAEXFF@Z 00413d46 f   mfc71d:MFC71D.DLL
 0001:00012d4c       ?LoadMenuA@CMenu@@QAEHI@Z  00413d4c f   mfc71d:MFC71D.DLL
 0001:00012d52       ??0CMenu@@QAE@XZ           00413d52 f   mfc71d:MFC71D.DLL
 0001:00012d58       ?ModifyStyleEx@CWnd@@QAEHKKI@Z 00413d58 f   mfc71d:MFC71D.DLL
 0001:00012d5e       ?EnableToolTips@CWnd@@QAEHH@Z 00413d5e f   mfc71d:MFC71D.DLL
 0001:00012d64       ?SetIcon@CWnd@@QAEPAUHICON__@@PAU2@H@Z 00413d64 f   mfc71d:MFC71D.DLL
 0001:00012d6a       ?OnDestroy@CWnd@@IAEXXZ    00413d6a f   mfc71d:MFC71D.DLL
 0001:00012d70       ?OnPaint@CDialog@@IAEXXZ   00413d70 f   mfc71d:MFC71D.DLL
 0001:00012d76       ?DrawIcon@CDC@@QAEHHHPAUHICON__@@@Z 00413d76 f   mfc71d:MFC71D.DLL
 0001:00012d7c       ?GetSafeHdc@CDC@@QBEPAUHDC__@@XZ 00413d7c f   mfc71d:MFC71D.DLL
 0001:00012d82       ?IsIconic@CWnd@@QBEHXZ     00413d82 f   mfc71d:MFC71D.DLL
 0001:00012d88       ?Compare@?$CStringT@DV?$StrTraitMFC_DLL@DV?$ChTraitsCRT@D@ATL@@@@@ATL@@QBEHPBD@Z 00413d88 f   mfc71d:MFC71D.DLL
 0001:00012d8e       ?ShowWindow@CWnd@@QAEHH@Z  00413d8e f   mfc71d:MFC71D.DLL
 0001:00012d94       ?InsertString@CListBox@@QAEHHPBD@Z 00413d94 f   mfc71d:MFC71D.DLL
 0001:00012d9a       ?SetDlgItemTextA@CWnd@@QAEXHPBD@Z 00413d9a f   mfc71d:MFC71D.DLL
 0001:00012da0       ?GetWindowPlacement@CWnd@@QBEHPAUtagWINDOWPLACEMENT@@@Z 00413da0 f   mfc71d:MFC71D.DLL
 0001:00012da6       ?GetSubMenu@CMenu@@QBEPAV1@H@Z 00413da6 f   mfc71d:MFC71D.DLL
 0001:00012dac       ??1CMenu@@UAE@XZ           00413dac f   mfc71d:MFC71D.DLL
 0001:00012db2       ?OnWindowPosChanging@CWnd@@IAEXPAUtagWINDOWPOS@@@Z 00413db2 f   mfc71d:MFC71D.DLL
 0001:00012db8       ??4?$CStringT@DV?$StrTraitMFC_DLL@DV?$ChTraitsCRT@D@ATL@@@@@ATL@@QAEAAV01@ABV01@@Z 00413db8 f   mfc71d:MFC71D.DLL
 0001:00012dbe       ?IsWindowEnabled@CWnd@@QBEHXZ 00413dbe f   mfc71d:MFC71D.DLL
 0001:00012dc4       ?AfxGetResourceHandle@@YGPAUHINSTANCE__@@XZ 00413dc4 f   mfc71d:MFC71D.DLL
 0001:00012dca       ?InsertString@CComboBox@@QAEHHPBD@Z 00413dca f   mfc71d:MFC71D.DLL
 0001:00012dd0       ?ResetContent@CListBox@@QAEXXZ 00413dd0 f   mfc71d:MFC71D.DLL
 0001:00012dd6       ?OnSetCursor@CWnd@@IAEHPAV1@II@Z 00413dd6 f   mfc71d:MFC71D.DLL
 0001:00012ddc       ?MessageBoxA@CWnd@@QAEHPBD0I@Z 00413ddc f   mfc71d:MFC71D.DLL
 0001:00012de2       ?GetStyle@CWnd@@QBEKXZ     00413de2 f   mfc71d:MFC71D.DLL
 0001:00012de8       ?Detach@CMenu@@QAEPAUHMENU__@@XZ 00413de8 f   mfc71d:MFC71D.DLL
 0001:00012dee       ?SetMenu@CWnd@@QAEHPAVCMenu@@@Z 00413dee f   mfc71d:MFC71D.DLL
 0001:00012df4       ?InsertMenuA@CMenu@@QAEHIIIPBD@Z 00413df4 f   mfc71d:MFC71D.DLL
 0001:00012dfa       ?GetSafeHmenu@CMenu@@QBEPAUHMENU__@@XZ 00413dfa f   mfc71d:MFC71D.DLL
 0001:00012e00       ?AppendMenuA@CMenu@@QAEHIIPBD@Z 00413e00 f   mfc71d:MFC71D.DLL
 0001:00012e06       ?CreatePopupMenu@CMenu@@QAEHXZ 00413e06 f   mfc71d:MFC71D.DLL
 0001:00012e0c       ?Find@?$CStringT@DV?$StrTraitMFC_DLL@DV?$ChTraitsCRT@D@ATL@@@@@ATL@@QBEHPBDH@Z 00413e0c f   mfc71d:MFC71D.DLL
 0001:00012e12       ?GetMenuStringA@CMenu@@QBEHIAAV?$CStringT@DV?$StrTraitMFC_DLL@DV?$ChTraitsCRT@D@ATL@@@@@ATL@@I@Z 00413e12 f   mfc71d:MFC71D.DLL
 0001:00012e18       ?CheckMenuItem@CMenu@@QAEIII@Z 00413e18 f   mfc71d:MFC71D.DLL
 0001:00012e1e       ?GetMenuState@CMenu@@QBEIII@Z 00413e1e f   mfc71d:MFC71D.DLL
 0001:00012e24       ?Attach@CMenu@@QAEHPAUHMENU__@@@Z 00413e24 f   mfc71d:MFC71D.DLL
 0001:00012e2a       ?SetWindowPos@CWnd@@QAEHPBV1@HHHHI@Z 00413e2a f   mfc71d:MFC71D.DLL
 0001:00012e30       ?SetPos@CProgressCtrl@@QAEHH@Z 00413e30 f   mfc71d:MFC71D.DLL
 0001:00012e36       ?EnableMenuItem@CMenu@@QAEIII@Z 00413e36 f   mfc71d:MFC71D.DLL
 0001:00012e3c       ??BCMenu@@QBEPAUHMENU__@@XZ 00413e3c f   mfc71d:MFC71D.DLL
 0001:00012e42       ?OnSysCommand@CWnd@@IAEXIJ@Z 00413e42 f   mfc71d:MFC71D.DLL
 0001:00012e48       ?MoveWindow@CWnd@@QAEXHHHHH@Z 00413e48 f   mfc71d:MFC71D.DLL
 0001:00012e4e       ?OnEnterIdle@CWnd@@IAEXIPAV1@@Z 00413e4e f   mfc71d:MFC71D.DLL
 0001:00012e54       ?GetThisClass@CStatic@@SGPAUCRuntimeClass@@XZ 00413e54 f   mfc71d:MFC71D.DLL
 0001:00012e5a       ??0CFont@@QAE@XZ           00413e5a f   mfc71d:MFC71D.DLL
 0001:00012e60       ?SetBkMode@CDC@@QAEHH@Z    00413e60 f   mfc71d:MFC71D.DLL
 0001:00012e66       ?CreateFontIndirectA@CFont@@QAEHPBUtagLOGFONTA@@@Z 00413e66 f   mfc71d:MFC71D.DLL
 0001:00012e6c       ?GetObjectA@CGdiObject@@QBEHHPAX@Z 00413e6c f   mfc71d:MFC71D.DLL
 0001:00012e72       ?GetFont@CWnd@@QBEPAVCFont@@XZ 00413e72 f   mfc71d:MFC71D.DLL
 0001:00012e78       ??BCFont@@QBEPAUHFONT__@@XZ 00413e78 f   mfc71d:MFC71D.DLL
 0001:00012e7e       ?Invalidate@CWnd@@QAEXH@Z  00413e7e f   mfc71d:MFC71D.DLL
 0001:00012e84       ??Y?$CStringT@DV?$StrTraitMFC_DLL@DV?$ChTraitsCRT@D@ATL@@@@@ATL@@QAEAAV01@PBD@Z 00413e84 f   mfc71d:MFC71D.DLL
 0001:00012e8a       ?ReleaseBuffer@?$CSimpleStringT@D$00@ATL@@QAEXH@Z 00413e8a f   mfc71d:MFC71D.DLL
 0001:00012e90       ?GetBuffer@?$CSimpleStringT@D$00@ATL@@QAEPADH@Z 00413e90 f   mfc71d:MFC71D.DLL
 0001:00012e96       ?AfxThrowOleException@@YGXJ@Z 00413e96 f   mfc71d:MFC71D.DLL
 0001:00012e9c       ?AfxThrowMemoryException@@YGXXZ 00413e9c f   mfc71d:MFC71D.DLL
 0001:00012ea2       ?SetFocus@CWnd@@QAEPAV1@XZ 00413ea2 f   mfc71d:MFC71D.DLL
 0001:00012ea8       ?GetWindowTextA@CWnd@@QBEHPADH@Z 00413ea8 f   mfc71d:MFC71D.DLL
 0001:00012eae       ?put_accValue@CWnd@@UAEJUtagVARIANT@@PA_W@Z 00413eae f   mfc71d:MFC71D.DLL
 0001:00012eae       ?put_accValue@CWnd@@UAEJUtagVARIANT@@PAG@Z 00413eae f   mfc71d:MFC71D.DLL
 0001:00012eb4       ?put_accName@CWnd@@UAEJUtagVARIANT@@PA_W@Z 00413eb4 f   mfc71d:MFC71D.DLL
 0001:00012eb4       ?put_accName@CWnd@@UAEJUtagVARIANT@@PAG@Z 00413eb4 f   mfc71d:MFC71D.DLL
 0001:00012eba       ?get_accDefaultAction@CWnd@@UAEJUtagVARIANT@@PAPAG@Z 00413eba f   mfc71d:MFC71D.DLL
 0001:00012eba       ?get_accDefaultAction@CWnd@@UAEJUtagVARIANT@@PAPA_W@Z 00413eba f   mfc71d:MFC71D.DLL
 0001:00012ec0       ?get_accKeyboardShortcut@CWnd@@UAEJUtagVARIANT@@PAPA_W@Z 00413ec0 f   mfc71d:MFC71D.DLL
 0001:00012ec0       ?get_accKeyboardShortcut@CWnd@@UAEJUtagVARIANT@@PAPAG@Z 00413ec0 f   mfc71d:MFC71D.DLL
 0001:00012ec6       ?get_accHelpTopic@CWnd@@UAEJPAPA_WUtagVARIANT@@PAJ@Z 00413ec6 f   mfc71d:MFC71D.DLL
 0001:00012ec6       ?get_accHelpTopic@CWnd@@UAEJPAPAGUtagVARIANT@@PAJ@Z 00413ec6 f   mfc71d:MFC71D.DLL
 0001:00012ecc       ?get_accHelp@CWnd@@UAEJUtagVARIANT@@PAPA_W@Z 00413ecc f   mfc71d:MFC71D.DLL
 0001:00012ecc       ?get_accHelp@CWnd@@UAEJUtagVARIANT@@PAPAG@Z 00413ecc f   mfc71d:MFC71D.DLL
 0001:00012ed2       ?get_accDescription@CWnd@@UAEJUtagVARIANT@@PAPA_W@Z 00413ed2 f   mfc71d:MFC71D.DLL
 0001:00012ed2       ?get_accDescription@CWnd@@UAEJUtagVARIANT@@PAPAG@Z 00413ed2 f   mfc71d:MFC71D.DLL
 0001:00012ed8       ?get_accValue@CWnd@@UAEJUtagVARIANT@@PAPA_W@Z 00413ed8 f   mfc71d:MFC71D.DLL
 0001:00012ed8       ?get_accValue@CWnd@@UAEJUtagVARIANT@@PAPAG@Z 00413ed8 f   mfc71d:MFC71D.DLL
 0001:00012ede       ?get_accName@CWnd@@UAEJUtagVARIANT@@PAPA_W@Z 00413ede f   mfc71d:MFC71D.DLL
 0001:00012ede       ?get_accName@CWnd@@UAEJUtagVARIANT@@PAPAG@Z 00413ede f   mfc71d:MFC71D.DLL
 0001:00012ef0       ?GetEnvironmentVariableWThunk@ATL@@YGKPB_WPA_WK@Z 00413ef0 f i mfcs71d:stdafx.obj
 0001:00012f30       ?GetEnvironmentVariableWFake@ATL@@YGKPB_WPA_WK@Z 00413f30 f i mfcs71d:stdafx.obj
 0001:00013110       ?CompareStringWThunk@ATL@@YGHKKPB_WH0H@Z 00414110 f i mfcs71d:stdafx.obj
 0001:00013150       ?CompareStringWFake@ATL@@YGHKKPB_WH0H@Z 00414150 f i mfcs71d:stdafx.obj
 0001:00013330       ?AtlW2AHelper@@YGPADPADPB_WHI@Z 00414330 f i mfcs71d:stdafx.obj
 0001:00013400       ?GetStringTypeExWThunk@ATL@@YGHKKPB_WHPAG@Z 00414400 f i mfcs71d:stdafx.obj
 0001:00013440       ?GetStringTypeExWFake@ATL@@YGHKKPB_WHPAG@Z 00414440 f i mfcs71d:stdafx.obj
 0001:00013550       ?lstrcmpiWThunk@ATL@@YGHPB_W0@Z 00414550 f i mfcs71d:stdafx.obj
 0001:00013580       ?lstrcmpiWFake@ATL@@YGHPB_W0@Z 00414580 f i mfcs71d:stdafx.obj
 0001:00013660       ?CharLowerWThunk@ATL@@YGPA_WPA_W@Z 00414660 f i mfcs71d:stdafx.obj
 0001:00013690       ?CharLowerWFake@ATL@@YGPA_WPA_W@Z 00414690 f i mfcs71d:stdafx.obj
 0001:00013780       ?AtlA2WHelper@@YGPA_WPA_WPBDHI@Z 00414780 f i mfcs71d:stdafx.obj
 0001:00013850       ?CharUpperWThunk@ATL@@YGPA_WPA_W@Z 00414850 f i mfcs71d:stdafx.obj
 0001:00013880       ?CharUpperWFake@ATL@@YGPA_WPA_W@Z 00414880 f i mfcs71d:stdafx.obj
 0001:00013970       ??0?$CW2AEX@$0IA@@ATL@@QAE@PB_W@Z 00414970 f i mfcs71d:stdafx.obj
 0001:000139a0       ?Init@?$CW2AEX@$0IA@@ATL@@AAEXPB_WI@Z 004149a0 f i mfcs71d:stdafx.obj
 0001:00013a30       ___CxxFrameHandler         00414a30 f   msvcrtd:MSVCR71D.dll
 0001:00013a40       @__security_check_cookie@4 00414a40 f   msvcrtd:secchk.obj
 0001:00013ac0       __chkstk                   00414ac0 f   msvcrtd:chkstk.obj
 0001:00013ac0       __alloca_probe             00414ac0     msvcrtd:chkstk.obj
 0001:00013afe       _ceil                      00414afe f   msvcrtd:MSVCR71D.dll
 0001:00013b04       __ftol2                    00414b04 f   msvcrtd:ftol2.obj
 0001:00013b7a       _strcmp                    00414b7a f   msvcrtd:MSVCR71D.dll
 0001:00013b80       _free                      00414b80 f   msvcrtd:MSVCR71D.dll
 0001:00013b86       _strstr                    00414b86 f   msvcrtd:MSVCR71D.dll
 0001:00013b8c       _memmove                   00414b8c f   msvcrtd:MSVCR71D.dll
 0001:00013b92       _memcpy                    00414b92 f   msvcrtd:MSVCR71D.dll
 0001:00013b98       _memset                    00414b98 f   msvcrtd:MSVCR71D.dll
 0001:00013b9e       _sscanf                    00414b9e f   msvcrtd:MSVCR71D.dll
 0001:00013ba4       _strcpy                    00414ba4 f   msvcrtd:MSVCR71D.dll
 0001:00013baa       _strlen                    00414baa f   msvcrtd:MSVCR71D.dll
 0001:00013bb0       __CrtSetDbgFlag            00414bb0 f   msvcrtd:MSVCR71D.dll
 0001:00013bb6       __CrtSetReportMode         00414bb6 f   msvcrtd:MSVCR71D.dll
 0001:00013bc0       ??_M@YGXPAXIHP6EX0@Z@Z     00414bc0 f   msvcrtd:ehvecdtr.obj
 0001:00013c60       ?__ArrayUnwind@@YGXPAXIHP6EX0@Z@Z 00414c60 f   msvcrtd:ehvecdtr.obj
 0001:00013d10       __onexit                   00414d10 f   msvcrtd:atonexit.obj
 0001:00013d50       _atexit                    00414d50 f   msvcrtd:atonexit.obj
 0001:00013d70       ??_L@YGXPAXIHP6EX0@Z1@Z    00414d70 f   msvcrtd:ehvecctr.obj
 0001:00013e10       _sprintf                   00414e10 f   msvcrtd:MSVCR71D.dll
 0001:00013e16       _fprintf                   00414e16 f   msvcrtd:MSVCR71D.dll
 0001:00013e1c       _localtime                 00414e1c f   msvcrtd:MSVCR71D.dll
 0001:00013e22       __ftime                    00414e22 f   msvcrtd:MSVCR71D.dll
 0001:00013e28       _fflush                    00414e28 f   msvcrtd:MSVCR71D.dll
 0001:00013e2e       _asctime                   00414e2e f   msvcrtd:MSVCR71D.dll
 0001:00013e34       _time                      00414e34 f   msvcrtd:MSVCR71D.dll
 0001:00013e3a       _fopen                     00414e3a f   msvcrtd:MSVCR71D.dll
 0001:00013e40       _fclose                    00414e40 f   msvcrtd:MSVCR71D.dll
 0001:00013e46       __CrtDbgReport             00414e46 f   msvcrtd:MSVCR71D.dll
 0001:00013e4c       __resetstkoflw             00414e4c f   msvcrtd:MSVCR71D.dll
 0001:00013e52       __except_handler3          00414e52 f   msvcrtd:MSVCR71D.dll
 0001:00013e58       _wcscpy                    00414e58 f   msvcrtd:MSVCR71D.dll
 0001:00013e5e       _malloc                    00414e5e f   msvcrtd:MSVCR71D.dll
 0001:00013e64       __mbsnbcpy                 00414e64 f   msvcrtd:MSVCR71D.dll
 0001:00013e70       _WinMainCRTStartup         00414e70 f   msvcrtd:crtexew.obj
 0001:000141b2       _strcat                    004151b2 f   msvcrtd:MSVCR71D.dll
 0001:000141c0       __RTC_InitBase             004151c0 f   msvcrtd:init.obj
 0001:000141f0       __RTC_Shutdown             004151f0 f   msvcrtd:init.obj
 0001:00014210       __RTC_CheckEsp             00415210 f   msvcrtd:stack.obj
 0001:00014240       @_RTC_CheckStackVars@8     00415240 f   msvcrtd:stack.obj
 0001:000142a4       __mbscmp                   004152a4 f   msvcrtd:MSVCR71D.dll
 0001:000142b0       ___security_init_cookie    004152b0 f   msvcrtd:seccinit.obj
 0001:00014344       ___security_error_handler  00415344 f   msvcrtd:MSVCR71D.dll
 0001:0001434a       ?terminate@@YAXXZ          0041534a f   msvcrtd:MSVCR71D.dll
 0001:00014350       ___dllonexit               00415350 f   msvcrtd:MSVCR71D.dll
 0001:00014356       __c_exit                   00415356 f   msvcrtd:MSVCR71D.dll
 0001:0001435c       __exit                     0041535c f   msvcrtd:MSVCR71D.dll
 0001:00014362       __XcptFilter               00415362 f   msvcrtd:MSVCR71D.dll
 0001:00014368       __cexit                    00415368 f   msvcrtd:MSVCR71D.dll
 0001:0001436e       _exit                      0041536e f   msvcrtd:MSVCR71D.dll
 0001:00014374       __ismbblead                00415374 f   msvcrtd:MSVCR71D.dll
 0001:0001437a       __amsg_exit                0041537a f   msvcrtd:MSVCR71D.dll
 0001:00014380       ___getmainargs             00415380 f   msvcrtd:MSVCR71D.dll
 0001:00014390       __RTC_Initialize           00415390 f   msvcrtd:initsect.obj
 0001:00014410       __RTC_Terminate            00415410 f   msvcrtd:initsect.obj
 0001:00014488       __initterm                 00415488 f   msvcrtd:MSVCR71D.dll
 0001:00014490       __setdefaultprecision      00415490 f   msvcrtd:fp8.obj
 0001:000144a8       ___setusermatherr          004154a8 f   msvcrtd:MSVCR71D.dll
 0001:000144b0       __matherr                  004154b0 f   msvcrtd:merr.obj
 0001:000144c0       __setargv                  004154c0 f   msvcrtd:dllargv.obj
 0001:000144c8       ___p__commode              004154c8 f   msvcrtd:MSVCR71D.dll
 0001:000144ce       ___p__fmode                004154ce f   msvcrtd:MSVCR71D.dll
 0001:000144d4       ___set_app_type            004154d4 f   msvcrtd:MSVCR71D.dll
 0001:000144e0       __RTC_NumErrors            004154e0 f   msvcrtd:userapi.obj
 0001:000144f0       __RTC_GetErrDesc           004154f0 f   msvcrtd:userapi.obj
 0001:00014510       __RTC_SetErrorType         00415510 f   msvcrtd:userapi.obj
 0001:00014540       __RTC_SetErrorFunc         00415540 f   msvcrtd:userapi.obj
 0001:00014560       ?_RTC_GetErrorFunc@@YAP6AHHPBDH00ZZPBX@Z 00415560 f   msvcrtd:userapi.obj
 0001:00014566       __CRT_RTC_INIT             00415566 f   msvcrtd:MSVCR71D.dll
 0001:00014570       ?_RTC_Failure@@YAXPAXH@Z   00415570 f   msvcrtd:error.obj
 0001:000147d0       ?_RTC_MemFailure@@YAXPAXHPBX@Z 004157d0 f   msvcrtd:error.obj
 0001:00014a20       ?_RTC_StackFailure@@YAXPAXPBD@Z 00415a20 f   msvcrtd:error.obj
 0001:00014ae0       __RTC_UninitUse            00415ae0 f   msvcrtd:error.obj
 0001:00014c98       __controlfp                00415c98 f   msvcrtd:MSVCR71D.dll
 0001:00014ca0       ?_RTC_GetSrcLine@@YAHKPADHPAHPAPAD@Z 00415ca0 f   msvcrtd:pdblkup.obj
 0001:0001553e       _GetVersionExA@4           0041653e f   kernel32:KERNEL32.dll
 0001:00015544       _InterlockedExchange@8     00416544 f   kernel32:KERNEL32.dll
 0001:0001554a       _GetACP@0                  0041654a f   kernel32:KERNEL32.dll
 0001:00015550       _GetLocaleInfoA@16         00416550 f   kernel32:KERNEL32.dll
 0001:00015556       _GetThreadLocale@0         00416556 f   kernel32:KERNEL32.dll
 0001:0001555c       _Sleep@4                   0041655c f   kernel32:KERNEL32.dll
 0001:00015562       _WriteFile@20              00416562 f   kernel32:KERNEL32.dll
 0001:00015568       _CreateFileA@28            00416568 f   kernel32:KERNEL32.dll
 0001:0001556e       _FreeLibrary@4             0041656e f   kernel32:KERNEL32.dll
 0001:00015574       _GetProcAddress@8          00416574 f   kernel32:KERNEL32.dll
 0001:0001557a       _LoadLibraryA@4            0041657a f   kernel32:KERNEL32.dll
 0001:00015580       _Beep@8                    00416580 f   kernel32:KERNEL32.dll
 0001:00015586       _CreateMutexA@12           00416586 f   kernel32:KERNEL32.dll
 0001:0001558c       _OpenMutexA@12             0041658c f   kernel32:KERNEL32.dll
 0001:00015592       _CloseHandle@4             00416592 f   kernel32:KERNEL32.dll
 0001:00015598       _ReleaseMutex@4            00416598 f   kernel32:KERNEL32.dll
 0001:0001559e       _WaitForSingleObject@8     0041659e f   kernel32:KERNEL32.dll
 0001:000155a4       _GetLastError@0            004165a4 f   kernel32:KERNEL32.dll
 0001:000155aa       _CreateProcessA@40         004165aa f   kernel32:KERNEL32.dll
 0001:000155b0       _GetExitCodeProcess@8      004165b0 f   kernel32:KERNEL32.dll
 0001:000155b6       _GetCurrentDirectoryA@8    004165b6 f   kernel32:KERNEL32.dll
 0001:000155bc       _GetWindowsDirectoryA@8    004165bc f   kernel32:KERNEL32.dll
 0001:000155c2       _GetEnvironmentVariableW@12 004165c2 f   kernel32:KERNEL32.dll
 0001:000155c8       _GetVersion@0              004165c8 f   kernel32:KERNEL32.dll
 0001:000155ce       _MultiByteToWideChar@24    004165ce f   kernel32:KERNEL32.dll
 0001:000155d4       _GetEnvironmentVariableA@12 004165d4 f   kernel32:KERNEL32.dll
 0001:000155da       _CompareStringW@24         004165da f   kernel32:KERNEL32.dll
 0001:000155e0       _CompareStringA@24         004165e0 f   kernel32:KERNEL32.dll
 0001:000155e6       _lstrlenW@4                004165e6 f   kernel32:KERNEL32.dll
 0001:000155ec       _WideCharToMultiByte@32    004165ec f   kernel32:KERNEL32.dll
 0001:000155f2       _GetStringTypeExW@20       004165f2 f   kernel32:KERNEL32.dll
 0001:000155f8       _GetStringTypeExA@20       004165f8 f   kernel32:KERNEL32.dll
 0001:000155fe       _lstrcmpiW@8               004165fe f   kernel32:KERNEL32.dll
 0001:00015604       _lstrcmpiA@8               00416604 f   kernel32:KERNEL32.dll
 0001:0001560a       _lstrlenA@4                0041660a f   kernel32:KERNEL32.dll
 0001:00015610       _DeleteCriticalSection@4   00416610 f   kernel32:KERNEL32.dll
 0001:00015616       _RaiseException@16         00416616 f   kernel32:KERNEL32.dll
 0001:0001561c       _MoveFileExA@12            0041661c f   kernel32:KERNEL32.dll
 0001:00015622       _FormatMessageA@28         00416622 f   kernel32:KERNEL32.dll
 0001:00015628       _SetLastError@4            00416628 f   kernel32:KERNEL32.dll
 0001:0001562e       _FindClose@4               0041662e f   kernel32:KERNEL32.dll
 0001:00015634       _FindFirstFileA@8          00416634 f   kernel32:KERNEL32.dll
 0001:0001563a       _GetFullPathNameA@16       0041663a f   kernel32:KERNEL32.dll
 0001:00015640       _LoadLibraryExA@12         00416640 f   kernel32:KERNEL32.dll
 0001:00015646       _ExitProcess@4             00416646 f   kernel32:KERNEL32.dll
 0001:0001564c       _GetModuleHandleA@4        0041664c f   kernel32:KERNEL32.dll
 0001:00015652       _GetStartupInfoA@4         00416652 f   kernel32:KERNEL32.dll
 0001:00015658       _QueryPerformanceCounter@4 00416658 f   kernel32:KERNEL32.dll
 0001:0001565e       _GetTickCount@0            0041665e f   kernel32:KERNEL32.dll
 0001:00015664       _GetCurrentThreadId@0      00416664 f   kernel32:KERNEL32.dll
 0001:0001566a       _GetCurrentProcessId@0     0041666a f   kernel32:KERNEL32.dll
 0001:00015670       _GetSystemTimeAsFileTime@4 00416670 f   kernel32:KERNEL32.dll
 0001:00015676       _DebugBreak@0              00416676 f   kernel32:KERNEL32.dll
 0001:0001567c       _HeapFree@12               0041667c f   kernel32:KERNEL32.dll
 0001:00015682       _HeapAlloc@12              00416682 f   kernel32:KERNEL32.dll
 0001:00015688       _GetProcessHeap@0          00416688 f   kernel32:KERNEL32.dll
 0001:0001568e       _GetModuleFileNameA@12     0041668e f   kernel32:KERNEL32.dll
 0001:00015694       _GetCurrentProcess@0       00416694 f   kernel32:KERNEL32.dll
 0001:0001569a       _PostMessageA@16           0041669a f   user32:USER32.dll
 0001:000156a0       _MessageBoxA@16            004166a0 f   user32:USER32.dll
 0001:000156a6       _RegisterWindowMessageA@4  004166a6 f   user32:USER32.dll
 0001:000156ac       _GetSystemMetrics@4        004166ac f   user32:USER32.dll
 0001:000156b2       _DestroyIcon@4             004166b2 f   user32:USER32.dll
 0001:000156b8       _TrackPopupMenu@28         004166b8 f   user32:USER32.dll
 0001:000156be       _SetForegroundWindow@4     004166be f   user32:USER32.dll
 0001:000156c4       _GetCursorPos@4            004166c4 f   user32:USER32.dll
 0001:000156ca       _EnableMenuItem@12         004166ca f   user32:USER32.dll
 0001:000156d0       _SetMenuDefaultItem@12     004166d0 f   user32:USER32.dll
 0001:000156d6       _GetDlgCtrlID@4            004166d6 f   user32:USER32.dll
 0001:000156dc       _SystemParametersInfoA@16  004166dc f   user32:USER32.dll
 0001:000156e2       _GetWindowInfo@8           004166e2 f   user32:USER32.dll
 0001:000156e8       _IsWindow@4                004166e8 f   user32:USER32.dll
 0001:000156ee       _SetWindowLongA@12         004166ee f   user32:USER32.dll
 0001:000156f4       _MessageBeep@4             004166f4 f   user32:USER32.dll
 0001:000156fa       _CopyIcon@4                004166fa f   user32:USER32.dll
 0001:00015700       _LoadCursorA@8             00416700 f   user32:USER32.dll
 0001:00015706       _SetCursor@4               00416706 f   user32:USER32.dll
 0001:0001570c       _CharLowerW@4              0041670c f   user32:USER32.dll
 0001:00015712       _CharLowerA@4              00416712 f   user32:USER32.dll
 0001:00015718       _CharUpperW@4              00416718 f   user32:USER32.dll
 0001:0001571e       _CharUpperA@4              0041671e f   user32:USER32.dll
 0001:00015724       _UnregisterClassA@8        00416724 f   user32:USER32.dll
 0001:0001572a       _GetStockObject@4          0041672a f   gdi32:GDI32.dll
 0001:00015730       _GetSaveFileNameA@4        00416730 f   comdlg32:comdlg32.dll
 0001:00015736       _GetOpenFileNameA@4        00416736 f   comdlg32:comdlg32.dll
 0001:0001573c       _RegCloseKey@4             0041673c f   advapi32:ADVAPI32.dll
 0001:00015742       _RegOpenKeyExA@20          00416742 f   advapi32:ADVAPI32.dll
 0001:00015748       _RegQueryValueExA@24       00416748 f   advapi32:ADVAPI32.dll
 0001:0001574e       _RegSetValueExA@24         0041674e f   advapi32:ADVAPI32.dll
 0001:00015754       _RegCreateKeyExA@36        00416754 f   advapi32:ADVAPI32.dll
 0001:0001575a       _RegEnumValueA@32          0041675a f   advapi32:ADVAPI32.dll
 0001:00015760       _RegQueryInfoKeyA@48       00416760 f   advapi32:ADVAPI32.dll
 0001:00015766       _Shell_NotifyIconA@8       00416766 f   shell32:SHELL32.dll
 0001:0001576c       _ShellExecuteA@24          0041676c f   shell32:SHELL32.dll
 0001:00015772       _SysFreeString@4           00416772 f   oleaut32:OLEAUT32.dll
 0001:00015780       ??0CSize@@QAE@XZ           00416780 f   atlsd:atltypes.obj
 0001:00015790       ??0CSize@@QAE@HH@Z         00416790 f   atlsd:atltypes.obj
 0001:000157c0       ??0CSize@@QAE@UtagSIZE@@@Z 004167c0 f   atlsd:atltypes.obj
 0001:000157e0       ??0CSize@@QAE@UtagPOINT@@@Z 004167e0 f   atlsd:atltypes.obj
 0001:00015800       ??0CSize@@QAE@K@Z          00416800 f   atlsd:atltypes.obj
 0001:00015830       ??8CSize@@QBEHUtagSIZE@@@Z 00416830 f   atlsd:atltypes.obj
 0001:00015870       ??9CSize@@QBEHUtagSIZE@@@Z 00416870 f   atlsd:atltypes.obj
 0001:000158b0       ??YCSize@@QAEXUtagSIZE@@@Z 004168b0 f   atlsd:atltypes.obj
 0001:000158e0       ??ZCSize@@QAEXUtagSIZE@@@Z 004168e0 f   atlsd:atltypes.obj
 0001:00015910       ?SetSize@CSize@@QAEXHH@Z   00416910 f   atlsd:atltypes.obj
 0001:00015930       ??HCSize@@QBE?AV0@UtagSIZE@@@Z 00416930 f   atlsd:atltypes.obj
 0001:00015960       ??GCSize@@QBE?AV0@UtagSIZE@@@Z 00416960 f   atlsd:atltypes.obj
 0001:00015990       ??GCSize@@QBE?AV0@XZ       00416990 f   atlsd:atltypes.obj
 0001:000159c0       ??HCSize@@QBE?AVCPoint@@UtagPOINT@@@Z 004169c0 f   atlsd:atltypes.obj
 0001:000159f0       ??GCSize@@QBE?AVCPoint@@UtagPOINT@@@Z 004169f0 f   atlsd:atltypes.obj
 0001:00015a20       ??HCSize@@QBE?AVCRect@@PBUtagRECT@@@Z 00416a20 f   atlsd:atltypes.obj
 0001:00015a60       ??GCSize@@QBE?AVCRect@@PBUtagRECT@@@Z 00416a60 f   atlsd:atltypes.obj
 0001:00015aa0       ??0CPoint@@QAE@XZ          00416aa0 f   atlsd:atltypes.obj
 0001:00015ab0       ??0CPoint@@QAE@HH@Z        00416ab0 f   atlsd:atltypes.obj
 0001:00015ae0       ??0CPoint@@QAE@UtagPOINT@@@Z 00416ae0 f   atlsd:atltypes.obj
 0001:00015b00       ??0CPoint@@QAE@UtagSIZE@@@Z 00416b00 f   atlsd:atltypes.obj
 0001:00015b20       ??0CPoint@@QAE@J@Z         00416b20 f   atlsd:atltypes.obj
 0001:00015b50       ?Offset@CPoint@@QAEXHH@Z   00416b50 f   atlsd:atltypes.obj
 0001:00015b80       ?Offset@CPoint@@QAEXUtagPOINT@@@Z 00416b80 f   atlsd:atltypes.obj
 0001:00015bb0       ?Offset@CPoint@@QAEXUtagSIZE@@@Z 00416bb0 f   atlsd:atltypes.obj
 0001:00015be0       ?SetPoint@CPoint@@QAEXHH@Z 00416be0 f   atlsd:atltypes.obj
 0001:00015c00       ??8CPoint@@QBEHUtagPOINT@@@Z 00416c00 f   atlsd:atltypes.obj
 0001:00015c40       ??9CPoint@@QBEHUtagPOINT@@@Z 00416c40 f   atlsd:atltypes.obj
 0001:00015c80       ??YCPoint@@QAEXUtagSIZE@@@Z 00416c80 f   atlsd:atltypes.obj
 0001:00015cb0       ??ZCPoint@@QAEXUtagSIZE@@@Z 00416cb0 f   atlsd:atltypes.obj
 0001:00015ce0       ??YCPoint@@QAEXUtagPOINT@@@Z 00416ce0 f   atlsd:atltypes.obj
 0001:00015d10       ??ZCPoint@@QAEXUtagPOINT@@@Z 00416d10 f   atlsd:atltypes.obj
 0001:00015d40       ??HCPoint@@QBE?AV0@UtagSIZE@@@Z 00416d40 f   atlsd:atltypes.obj
 0001:00015d70       ??GCPoint@@QBE?AV0@UtagSIZE@@@Z 00416d70 f   atlsd:atltypes.obj
 0001:00015da0       ??GCPoint@@QBE?AV0@XZ      00416da0 f   atlsd:atltypes.obj
 0001:00015dd0       ??HCPoint@@QBE?AV0@UtagPOINT@@@Z 00416dd0 f   atlsd:atltypes.obj
 0001:00015e00       ??GCPoint@@QBE?AVCSize@@UtagPOINT@@@Z 00416e00 f   atlsd:atltypes.obj
 0001:00015e30       ??HCPoint@@QBE?AVCRect@@PBUtagRECT@@@Z 00416e30 f   atlsd:atltypes.obj
 0001:00015e70       ??GCPoint@@QBE?AVCRect@@PBUtagRECT@@@Z 00416e70 f   atlsd:atltypes.obj
 0001:00015eb0       ??0CRect@@QAE@XZ           00416eb0 f   atlsd:atltypes.obj
 0001:00015ec0       ??0CRect@@QAE@HHHH@Z       00416ec0 f   atlsd:atltypes.obj
 0001:00015f00       ??0CRect@@QAE@ABUtagRECT@@@Z 00416f00 f   atlsd:atltypes.obj
 0001:00015f20       ??0CRect@@QAE@PBUtagRECT@@@Z 00416f20 f   atlsd:atltypes.obj
 0001:00015f40       ??0CRect@@QAE@UtagPOINT@@UtagSIZE@@@Z 00416f40 f   atlsd:atltypes.obj
 0001:00015f80       ??0CRect@@QAE@UtagPOINT@@0@Z 00416f80 f   atlsd:atltypes.obj
 0001:00015fc0       ?Width@CRect@@QBEHXZ       00416fc0 f   atlsd:atltypes.obj
 0001:00015fe0       ?Height@CRect@@QBEHXZ      00416fe0 f   atlsd:atltypes.obj
 0001:00016000       ?Size@CRect@@QBE?AVCSize@@XZ 00417000 f   atlsd:atltypes.obj
 0001:00016040       ?TopLeft@CRect@@QAEAAVCPoint@@XZ 00417040 f   atlsd:atltypes.obj
 0001:00016050       ?BottomRight@CRect@@QAEAAVCPoint@@XZ 00417050 f   atlsd:atltypes.obj
 0001:00016070       ?TopLeft@CRect@@QBEABVCPoint@@XZ 00417070 f   atlsd:atltypes.obj
 0001:00016080       ?BottomRight@CRect@@QBEABVCPoint@@XZ 00417080 f   atlsd:atltypes.obj
 0001:000160a0       ?CenterPoint@CRect@@QBE?AVCPoint@@XZ 004170a0 f   atlsd:atltypes.obj
 0001:000160e0       ?SwapLeftRight@CRect@@QAEXXZ 004170e0 f   atlsd:atltypes.obj
 0001:00016100       ?SwapLeftRight@CRect@@SGXPAUtagRECT@@@Z 00417100 f   atlsd:atltypes.obj
 0001:00016130       ??BCRect@@QAEPAUtagRECT@@XZ 00417130 f   atlsd:atltypes.obj
 0001:00016140       ??BCRect@@QBEPBUtagRECT@@XZ 00417140 f   atlsd:atltypes.obj
 0001:00016150       ?IsRectEmpty@CRect@@QBEHXZ 00417150 f   atlsd:atltypes.obj
 0001:00016170       ?IsRectNull@CRect@@QBEHXZ  00417170 f   atlsd:atltypes.obj
 0001:000161c0       ?PtInRect@CRect@@QBEHUtagPOINT@@@Z 004171c0 f   atlsd:atltypes.obj
 0001:000161e0       ?SetRect@CRect@@QAEXHHHH@Z 004171e0 f   atlsd:atltypes.obj
 0001:00016210       ?SetRect@CRect@@QAEXUtagPOINT@@0@Z 00417210 f   atlsd:atltypes.obj
 0001:00016240       ?SetRectEmpty@CRect@@QAEXXZ 00417240 f   atlsd:atltypes.obj
 0001:00016260       ?CopyRect@CRect@@QAEXPBUtagRECT@@@Z 00417260 f   atlsd:atltypes.obj
 0001:00016280       ?EqualRect@CRect@@QBEHPBUtagRECT@@@Z 00417280 f   atlsd:atltypes.obj
 0001:000162a0       ?InflateRect@CRect@@QAEXHH@Z 004172a0 f   atlsd:atltypes.obj
 0001:000162c0       ?InflateRect@CRect@@QAEXUtagSIZE@@@Z 004172c0 f   atlsd:atltypes.obj
 0001:000162e0       ?DeflateRect@CRect@@QAEXHH@Z 004172e0 f   atlsd:atltypes.obj
 0001:00016310       ?DeflateRect@CRect@@QAEXUtagSIZE@@@Z 00417310 f   atlsd:atltypes.obj
 0001:00016340       ?OffsetRect@CRect@@QAEXHH@Z 00417340 f   atlsd:atltypes.obj
 0001:00016360       ?OffsetRect@CRect@@QAEXUtagPOINT@@@Z 00417360 f   atlsd:atltypes.obj
 0001:00016380       ?OffsetRect@CRect@@QAEXUtagSIZE@@@Z 00417380 f   atlsd:atltypes.obj
 0001:000163a0       ?MoveToY@CRect@@QAEXH@Z    004173a0 f   atlsd:atltypes.obj
 0001:000163d0       ?MoveToX@CRect@@QAEXH@Z    004173d0 f   atlsd:atltypes.obj
 0001:00016400       ?MoveToXY@CRect@@QAEXHH@Z  00417400 f   atlsd:atltypes.obj
 0001:00016430       ?MoveToXY@CRect@@QAEXUtagPOINT@@@Z 00417430 f   atlsd:atltypes.obj
 0001:00016460       ?IntersectRect@CRect@@QAEHPBUtagRECT@@0@Z 00417460 f   atlsd:atltypes.obj
 0001:00016480       ?UnionRect@CRect@@QAEHPBUtagRECT@@0@Z 00417480 f   atlsd:atltypes.obj
 0001:000164a0       ??4CRect@@QAEXABUtagRECT@@@Z 004174a0 f   atlsd:atltypes.obj
 0001:000164c0       ??8CRect@@QBEHABUtagRECT@@@Z 004174c0 f   atlsd:atltypes.obj
 0001:000164e0       ??9CRect@@QBEHABUtagRECT@@@Z 004174e0 f   atlsd:atltypes.obj
 0001:00016500       ??YCRect@@QAEXUtagPOINT@@@Z 00417500 f   atlsd:atltypes.obj
 0001:00016520       ??YCRect@@QAEXUtagSIZE@@@Z 00417520 f   atlsd:atltypes.obj
 0001:00016540       ??YCRect@@QAEXPBUtagRECT@@@Z 00417540 f   atlsd:atltypes.obj
 0001:00016560       ??ZCRect@@QAEXUtagPOINT@@@Z 00417560 f   atlsd:atltypes.obj
 0001:00016590       ??ZCRect@@QAEXUtagSIZE@@@Z 00417590 f   atlsd:atltypes.obj
 0001:000165c0       ??ZCRect@@QAEXPBUtagRECT@@@Z 004175c0 f   atlsd:atltypes.obj
 0001:000165e0       ??_4CRect@@QAEXABUtagRECT@@@Z 004175e0 f   atlsd:atltypes.obj
 0001:00016600       ??_5CRect@@QAEXABUtagRECT@@@Z 00417600 f   atlsd:atltypes.obj
 0001:00016620       ??HCRect@@QBE?AV0@UtagPOINT@@@Z 00417620 f   atlsd:atltypes.obj
 0001:00016680       ??GCRect@@QBE?AV0@UtagPOINT@@@Z 00417680 f   atlsd:atltypes.obj
 0001:000166e0       ??HCRect@@QBE?AV0@UtagSIZE@@@Z 004176e0 f   atlsd:atltypes.obj
 0001:00016740       ??GCRect@@QBE?AV0@UtagSIZE@@@Z 00417740 f   atlsd:atltypes.obj
 0001:000167a0       ??HCRect@@QBE?AV0@PBUtagRECT@@@Z 004177a0 f   atlsd:atltypes.obj
 0001:000167f0       ??GCRect@@QBE?AV0@PBUtagRECT@@@Z 004177f0 f   atlsd:atltypes.obj
 0001:00016840       ??ICRect@@QBE?AV0@ABUtagRECT@@@Z 00417840 f   atlsd:atltypes.obj
 0001:00016890       ??UCRect@@QBE?AV0@ABUtagRECT@@@Z 00417890 f   atlsd:atltypes.obj
 0001:000168e0       ?SubtractRect@CRect@@QAEHPBUtagRECT@@0@Z 004178e0 f   atlsd:atltypes.obj
 0001:00016900       ?NormalizeRect@CRect@@QAEXXZ 00417900 f   atlsd:atltypes.obj
 0001:00016970       ?InflateRect@CRect@@QAEXPBUtagRECT@@@Z 00417970 f   atlsd:atltypes.obj
 0001:000169d0       ?InflateRect@CRect@@QAEXHHHH@Z 004179d0 f   atlsd:atltypes.obj
 0001:00016a20       ?DeflateRect@CRect@@QAEXPBUtagRECT@@@Z 00417a20 f   atlsd:atltypes.obj
 0001:00016a80       ?DeflateRect@CRect@@QAEXHHHH@Z 00417a80 f   atlsd:atltypes.obj
 0001:00016ad0       ?MulDiv@CRect@@QBE?AV1@HH@Z 00417ad0 f   atlsd:atltypes.obj
 0001:00016b40       ??0CAtlAllocator@@QAE@XZ   00417b40 f i atlsd:Externs.obj
 0001:00016b90       ??0CTraceSnapshot@@QAE@XZ  00417b90 f i atlsd:Externs.obj
 0001:00016bc0       ??0?$CSimpleArray@UCModuleInfo@CTraceSnapshot@@V?$CSimpleArrayEqualHelper@UCModuleInfo@CTraceSnapshot@@@ATL@@@ATL@@QAE@XZ 00417bc0 f i atlsd:Externs.obj
 0001:00016bf0       ??0?$CSimpleArray@KV?$CSimpleArrayEqualHelper@K@ATL@@@ATL@@QAE@XZ 00417bf0 f i atlsd:Externs.obj
 0001:00016cf0       ??0CAtlException@ATL@@QAE@J@Z 00417cf0 f i atlsd:Externs.obj
 0001:00016d10       ??0CTrace@ATL@@AAE@P6AHHPBDH00ZZ@Z 00417d10 f i atlsd:Externs.obj
 0001:00016d50       ??1CAtlAllocator@@QAE@XZ   00417d50 f i atlsd:Externs.obj
 0001:00016d70       ??1CTraceSnapshot@@QAE@XZ  00417d70 f i atlsd:Externs.obj
 0001:00016d90       ??1?$CSimpleArray@UCModuleInfo@CTraceSnapshot@@V?$CSimpleArrayEqualHelper@UCModuleInfo@CTraceSnapshot@@@ATL@@@ATL@@QAE@XZ 00417d90 f i atlsd:Externs.obj
 0001:00016db0       ??1?$CSimpleArray@KV?$CSimpleArrayEqualHelper@K@ATL@@@ATL@@QAE@XZ 00417db0 f i atlsd:Externs.obj
 0001:00016dd0       ?RemoveAll@?$CSimpleArray@UCModuleInfo@CTraceSnapshot@@V?$CSimpleArrayEqualHelper@UCModuleInfo@CTraceSnapshot@@@ATL@@@ATL@@QAEXXZ 00417dd0 f i atlsd:Externs.obj
 0001:00016e30       ?RemoveAll@?$CSimpleArray@KV?$CSimpleArrayEqualHelper@K@ATL@@@ATL@@QAEXXZ 00417e30 f i atlsd:Externs.obj
 0001:00016e90       ??1CTrace@ATL@@AAE@XZ      00417e90 f i atlsd:Externs.obj
 0001:00016eb0       ??0CTraceCategory@ATL@@QAE@PBDI@Z 00417eb0 f i atlsd:atltrace.obj
 0001:00016f00       ?ChangeCategory@CTrace@ATL@@QAE_NKIW4ATLTRACESTATUS@2@@Z 00417f00 f i atlsd:atltrace.obj
 0001:00016f30       ?RegisterCategory@CTrace@ATL@@QAEKPBD@Z 00417f30 f i atlsd:atltrace.obj
 0001:00016f50       ?NotifyTool@ATL@@YGXXZ     00417f50 f   atlsd:AtlDebugAPI.obj
 0001:00016f90       _AtlTraceRegister@8        00417f90 f   atlsd:AtlDebugAPI.obj
 0001:00017000       _AtlTraceUnregister@4      00418000 f   atlsd:AtlDebugAPI.obj
 0001:00017030       _AtlTraceRegisterCategoryA@8 00418030 f   atlsd:AtlDebugAPI.obj
 0001:000170d0       _AtlTraceRegisterCategoryU@8 004180d0 f   atlsd:AtlDebugAPI.obj
 0001:00017110       _AtlTraceModifyProcess@20  00418110 f   atlsd:AtlDebugAPI.obj
 0001:000171b0       _AtlTraceModifyModule@16   004181b0 f   atlsd:AtlDebugAPI.obj
 0001:00017290       _AtlTraceModifyCategory@16 00418290 f   atlsd:AtlDebugAPI.obj
 0001:00017340       _AtlTraceGetProcess@20     00418340 f   atlsd:AtlDebugAPI.obj
 0001:000173f0       _AtlTraceGetModule@16      004183f0 f   atlsd:AtlDebugAPI.obj
 0001:000174e0       _AtlTraceGetCategory@16    004184e0 f   atlsd:AtlDebugAPI.obj
 0001:000175a0       _AtlTraceGetUpdateEventNameA@4 004185a0 f   atlsd:AtlDebugAPI.obj
 0001:000175d0       _AtlTraceGetUpdateEventNameU@4 004185d0 f   atlsd:AtlDebugAPI.obj
 0001:00017670       _AtlTraceVA                00418670 f   atlsd:AtlDebugAPI.obj
 0001:00017830       _AtlTraceVU                00418830 f   atlsd:AtlDebugAPI.obj
 0001:00017a00       _AtlTraceOpenProcess@4     00418a00 f   atlsd:AtlDebugAPI.obj
 0001:00017ac0       _AtlTraceCloseProcess@4    00418ac0 f   atlsd:AtlDebugAPI.obj
 0001:00017b10       _AtlTraceSnapshotProcess@4 00418b10 f   atlsd:AtlDebugAPI.obj
 0001:00017b30       _AtlTraceGetProcessInfo@8  00418b30 f   atlsd:AtlDebugAPI.obj
 0001:00017c80       _AtlTraceGetModuleInfo@12  00418c80 f   atlsd:AtlDebugAPI.obj
 0001:00017dc0       _AtlTraceGetCategoryInfo@16 00418dc0 f   atlsd:AtlDebugAPI.obj
 0001:000180f0       ?GetProcess@CAtlAllocator@@QBEPAVCAtlTraceProcess@@XZ 004190f0 f i atlsd:AtlDebugAPI.obj
 0001:00018110       ?Name@CAtlTraceCategory@@QBEPBGXZ 00419110 f i atlsd:AtlDebugAPI.obj
 0001:00018130       ??_GCAtlAllocator@@QAEPAXI@Z 00419130 f i atlsd:AtlDebugAPI.obj
 0001:00018160       ?Path@CAtlTraceModuleInfo@@QBEPBGXZ 00419160 f i atlsd:AtlDebugAPI.obj
 0001:00018180       ?Name@CAtlTraceModuleInfo@@QBEPBGXZ 00419180 f i atlsd:AtlDebugAPI.obj
 0001:000181a0       ?Id@CAtlTraceProcess@@QBEKXZ 004191a0 f i atlsd:AtlDebugAPI.obj
 0001:000181c0       ?CrtDbgReport@CAtlTraceModule@@QBEP6AHHPBDH00ZZXZ 004191c0 f i atlsd:AtlDebugAPI.obj
 0001:000181e0       ?GetSize@?$CSimpleArray@UCModuleInfo@CTraceSnapshot@@V?$CSimpleArrayEqualHelper@UCModuleInfo@CTraceSnapshot@@@ATL@@@ATL@@QBEHXZ 004191e0 f i atlsd:AtlDebugAPI.obj
 0001:00018200       ??A?$CSimpleArray@UCModuleInfo@CTraceSnapshot@@V?$CSimpleArrayEqualHelper@UCModuleInfo@CTraceSnapshot@@@ATL@@@ATL@@QAEAAUCModuleInfo@CTraceSnapshot@@H@Z 00419200 f i atlsd:AtlDebugAPI.obj
 0001:00018270       ?AtlAdvise@ATL@@YGJPAUIUnknown@@0ABU_GUID@@PAK@Z 00419270 f   atlsd:atlfuncs.obj
 0001:00018330       ?AtlUnadvise@ATL@@YGJPAUIUnknown@@ABU_GUID@@K@Z 00419330 f   atlsd:atlfuncs.obj
 0001:000183f0       ?AtlFreeMarshalStream@ATL@@YGJPAUIStream@@@Z 004193f0 f   atlsd:atlfuncs.obj
 0001:00018440       ?AtlMarshalPtrInProc@ATL@@YGJPAUIUnknown@@ABU_GUID@@PAPAUIStream@@@Z 00419440 f   atlsd:atlfuncs.obj
 0001:000184e0       ?AtlUnmarshalPtr@ATL@@YGJPAUIStream@@ABU_GUID@@PAPAUIUnknown@@@Z 004194e0 f   atlsd:atlfuncs.obj
 0001:00018580       ?AtlComModuleGetClassObject@ATL@@YGJPAU_ATL_COM_MODULE70@1@ABU_GUID@@1PAPAX@Z 00419580 f   atlsd:atlfuncs.obj
 0001:00018750       ?AtlComModuleRegisterClassObjects@ATL@@YGJPAU_ATL_COM_MODULE70@1@KK@Z 00419750 f   atlsd:atlfuncs.obj
 0001:000187e0       ?AtlComModuleRevokeClassObjects@ATL@@YGJPAU_ATL_COM_MODULE70@1@@Z 004197e0 f   atlsd:atlfuncs.obj
 0001:00018870       ?AtlWaitWithMessageLoop@ATL@@YGHPAX@Z 00419870 f   atlsd:atlfuncs.obj
 0001:00018960       ?AtlInternalQueryInterface@ATL@@YGJPAXPBU_ATL_INTMAP_ENTRY@1@ABU_GUID@@PAPAX@Z 00419960 f   atlsd:atlfuncs.obj
 0001:00018b20       ?AtlGetVersion@ATL@@YGKPAX@Z 00419b20 f   atlsd:atlfuncs.obj
 0001:00018b30       ?AtlWinModuleAddCreateWndData@ATL@@YGXPAU_ATL_WIN_MODULE70@1@PAU_AtlCreateWndData@1@PAX@Z 00419b30 f   atlsd:atlfuncs.obj
 0001:00018c40       ?AtlWinModuleExtractCreateWndData@ATL@@YGPAXPAU_ATL_WIN_MODULE70@1@@Z 00419c40 f   atlsd:atlfuncs.obj
 0001:00018d60       ?AtlWinModuleInit@ATL@@YGJPAU_ATL_WIN_MODULE70@1@@Z 00419d60 f   atlsd:atlfuncs.obj
 0001:00018e00       ?AtlModuleAddTermFunc@ATL@@YGJPAU_ATL_MODULE70@1@P6GXK@ZK@Z 00419e00 f   atlsd:atlfuncs.obj
 0001:00018f10       ?AtlCallTermFunc@ATL@@YGXPAU_ATL_MODULE70@1@@Z 00419f10 f   atlsd:atlfuncs.obj
 0001:00018f80       ?CComStdCallThunkHelper@ATL@@YGXXZ 00419f80 f   atlsd:atlfuncs.obj
 0001:00018f90       ??1?$CComPtr@UIConnectionPointContainer@@@ATL@@QAE@XZ 00419f90 f i atlsd:atlfuncs.obj
 0001:00018fb0       ??1?$CComPtr@UIConnectionPoint@@@ATL@@QAE@XZ 00419fb0 f i atlsd:atlfuncs.obj
 0001:00018fd0       _InlineIsEqualGUID         00419fd0 f i atlsd:atlfuncs.obj
 0001:00019030       ??0?$CComPtr@UIConnectionPointContainer@@@ATL@@QAE@XZ 0041a030 f i atlsd:atlfuncs.obj
 0001:00019050       ??1?$CComPtrBase@UIConnectionPointContainer@@@ATL@@QAE@XZ 0041a050 f i atlsd:atlfuncs.obj
 0001:00019080       ??I?$CComPtrBase@UIConnectionPointContainer@@@ATL@@QAEPAPAUIConnectionPointContainer@@XZ 0041a080 f i atlsd:atlfuncs.obj
 0001:000190c0       ??C?$CComPtrBase@UIConnectionPointContainer@@@ATL@@QBEPAV?$_NoAddRefReleaseOnCComPtr@UIConnectionPointContainer@@@1@XZ 0041a0c0 f i atlsd:atlfuncs.obj
 0001:00019100       ??0?$CComPtr@UIConnectionPoint@@@ATL@@QAE@XZ 0041a100 f i atlsd:atlfuncs.obj
 0001:00019120       ??1?$CComPtrBase@UIConnectionPoint@@@ATL@@QAE@XZ 0041a120 f i atlsd:atlfuncs.obj
 0001:00019150       ??I?$CComPtrBase@UIConnectionPoint@@@ATL@@QAEPAPAUIConnectionPoint@@XZ 0041a150 f i atlsd:atlfuncs.obj
 0001:00019190       ??C?$CComPtrBase@UIConnectionPoint@@@ATL@@QBEPAV?$_NoAddRefReleaseOnCComPtr@UIConnectionPoint@@@1@XZ 0041a190 f i atlsd:atlfuncs.obj
 0001:000191d0       ??0?$CComPtrBase@UIConnectionPointContainer@@@ATL@@IAE@XZ 0041a1d0 f i atlsd:atlfuncs.obj
 0001:000191f0       ??0?$CComPtrBase@UIConnectionPoint@@@ATL@@IAE@XZ 0041a1f0 f i atlsd:atlfuncs.obj
 0001:00019210       ?Init@CComCriticalSection@ATL@@QAEJXZ 0041a210 f i atlsd:atlfuncs.obj
 0001:000192b0       ?RevokeClassObject@_ATL_OBJMAP_ENTRY30@ATL@@QAGJXZ 0041a2b0 f i atlsd:atlfuncs.obj
 0001:000192e0       ?RegisterClassObject@_ATL_OBJMAP_ENTRY30@ATL@@QAGJKK@Z 0041a2e0 f i atlsd:atlfuncs.obj
 0001:00019360       ?InlineIsEqualUnknown@ATL@@YGHABU_GUID@@@Z 0041a360 f i atlsd:atlfuncs.obj
 0001:000193b0       ??0?$CComCritSecLock@VCComCriticalSection@ATL@@@ATL@@QAE@AAVCComCriticalSection@1@_N@Z 0041a3b0 f i atlsd:atlfuncs.obj
 0001:00019400       ??1?$CComCritSecLock@VCComCriticalSection@ATL@@@ATL@@QAE@XZ 0041a400 f i atlsd:atlfuncs.obj
 0001:00019420       ?Unlock@?$CComCritSecLock@VCComCriticalSection@ATL@@@ATL@@QAEXXZ 0041a420 f i atlsd:atlfuncs.obj
 0001:00019470       ?Unlock@CComCriticalSection@ATL@@QAEJXZ 0041a470 f i atlsd:atlfuncs.obj
 0001:00019490       ?Lock@?$CComCritSecLock@VCComCriticalSection@ATL@@@ATL@@QAEJXZ 0041a490 f i atlsd:atlfuncs.obj
 0001:000194f0       ?Lock@CComCriticalSection@ATL@@QAEJXZ 0041a4f0 f i atlsd:atlfuncs.obj
 0001:00019510       ??0CAtlBaseModule@ATL@@QAE@XZ 0041a510 f   atlsd:atlbase.obj
 0001:00019680       ??1CAtlBaseModule@ATL@@QAE@XZ 0041a680 f   atlsd:atlbase.obj
 0001:000196a0       ?AddResourceInstance@CAtlBaseModule@ATL@@QAE_NPAUHINSTANCE__@@@Z 0041a6a0 f   atlsd:atlbase.obj
 0001:00019750       ?RemoveResourceInstance@CAtlBaseModule@ATL@@QAE_NPAUHINSTANCE__@@@Z 0041a750 f   atlsd:atlbase.obj
 0001:00019850       ?GetHInstanceAt@CAtlBaseModule@ATL@@QAEPAUHINSTANCE__@@H@Z 0041a850 f   atlsd:atlbase.obj
 0001:00019950       ??0_ATL_BASE_MODULE70@ATL@@QAE@XZ 0041a950 f i atlsd:atlbase.obj
 0001:00019980       ??1_ATL_BASE_MODULE70@ATL@@QAE@XZ 0041a980 f i atlsd:atlbase.obj
 0001:000199a0       ??0?$CSimpleArray@PAUHINSTANCE__@@V?$CSimpleArrayEqualHelper@PAUHINSTANCE__@@@ATL@@@ATL@@QAE@XZ 0041a9a0 f i atlsd:atlbase.obj
 0001:000199d0       ??1?$CSimpleArray@PAUHINSTANCE__@@V?$CSimpleArrayEqualHelper@PAUHINSTANCE__@@@ATL@@@ATL@@QAE@XZ 0041a9d0 f i atlsd:atlbase.obj
 0001:000199f0       ?GetSize@?$CSimpleArray@PAUHINSTANCE__@@V?$CSimpleArrayEqualHelper@PAUHINSTANCE__@@@ATL@@@ATL@@QBEHXZ 0041a9f0 f i atlsd:atlbase.obj
 0001:00019a10       ?Add@?$CSimpleArray@PAUHINSTANCE__@@V?$CSimpleArrayEqualHelper@PAUHINSTANCE__@@@ATL@@@ATL@@QAEHABQAUHINSTANCE__@@@Z 0041aa10 f i atlsd:atlbase.obj
 0001:00019ab0       ?RemoveAt@?$CSimpleArray@PAUHINSTANCE__@@V?$CSimpleArrayEqualHelper@PAUHINSTANCE__@@@ATL@@@ATL@@QAEHH@Z 0041aab0 f i atlsd:atlbase.obj
 0001:00019b60       ??A?$CSimpleArray@PAUHINSTANCE__@@V?$CSimpleArrayEqualHelper@PAUHINSTANCE__@@@ATL@@@ATL@@QAEAAPAUHINSTANCE__@@H@Z 0041ab60 f i atlsd:atlbase.obj
 0001:00019bd0       ?RemoveAll@?$CSimpleArray@PAUHINSTANCE__@@V?$CSimpleArrayEqualHelper@PAUHINSTANCE__@@@ATL@@@ATL@@QAEXXZ 0041abd0 f i atlsd:atlbase.obj
 0001:00019c30       ?InternalSetAtIndex@?$CSimpleArray@PAUHINSTANCE__@@V?$CSimpleArrayEqualHelper@PAUHINSTANCE__@@@ATL@@@ATL@@QAEXHABQAUHINSTANCE__@@@Z 0041ac30 f i atlsd:atlbase.obj
 0001:00019c80       ??0Wrapper@?$CSimpleArray@PAUHINSTANCE__@@V?$CSimpleArrayEqualHelper@PAUHINSTANCE__@@@ATL@@@ATL@@QAE@ABQAUHINSTANCE__@@@Z 0041ac80 f i atlsd:atlbase.obj
 0001:00019ca0       ??$?2PAUHINSTANCE__@@@Wrapper@?$CSimpleArray@PAUHINSTANCE__@@V?$CSimpleArrayEqualHelper@PAUHINSTANCE__@@@ATL@@@ATL@@SAPAXIPAPAUHINSTANCE__@@@Z 0041aca0 f i atlsd:atlbase.obj
 0001:00019cb0       ?Init@CAtlAllocator@@QAE_NPBDK@Z 0041acb0 f   atlsd:Allocate.obj
 0001:00019ff0       ?Open@CAtlAllocator@@QAE_NPBD@Z 0041aff0 f   atlsd:Allocate.obj
 0001:0001a120       ?Close@CAtlAllocator@@QAEX_N@Z 0041b120 f   atlsd:Allocate.obj
 0001:0001a190       ?GetModule@CAtlAllocator@@QBEPAVCAtlTraceModule@@H@Z 0041b190 f   atlsd:Allocate.obj
 0001:0001a210       ?GetCategory@CAtlAllocator@@QBEPAVCAtlTraceCategory@@H@Z 0041b210 f   atlsd:Allocate.obj
 0001:0001a2b0       ?GetCategoryCount@CAtlAllocator@@QBEHH@Z 0041b2b0 f   atlsd:Allocate.obj
 0001:0001a320       ?GetCategoryCount@CAtlAllocator@@QBEHABVCAtlTraceModule@@@Z 0041b320 f   atlsd:Allocate.obj
 0001:0001a380       ?GetModuleCount@CAtlAllocator@@QBEHXZ 0041b380 f   atlsd:Allocate.obj
 0001:0001a3c0       ?FindModule@CAtlAllocator@@QBE_NPBGPAI@Z 0041b3c0 f   atlsd:Allocate.obj
 0001:0001a430       ?AddModule@CAtlAllocator@@QAEHPAUHINSTANCE__@@@Z 0041b430 f   atlsd:Allocate.obj
 0001:0001a5f0       ?AddCategory@CAtlAllocator@@QAEHHPBG@Z 0041b5f0 f   atlsd:Allocate.obj
 0001:0001a810       ?RemoveModule@CAtlAllocator@@QAE_NH@Z 0041b810 f   atlsd:Allocate.obj
 0001:0001a8b0       ?CleanUp@CAtlAllocator@@QAEXXZ 0041b8b0 f   atlsd:Allocate.obj
 0001:0001a8d0       ?TakeSnapshot@CAtlAllocator@@QAEXXZ 0041b8d0 f   atlsd:Allocate.obj
 0001:0001aa90       ?ReleaseSnapshot@CAtlAllocator@@QAEXXZ 0041ba90 f   atlsd:Allocate.obj
 0001:0001ab60       ?IncRef@CAtlTraceProcess@@QAEIXZ 0041bb60 f i atlsd:Allocate.obj
 0001:0001ab90       ?Base@CAtlTraceProcess@@QBEPAXXZ 0041bb90 f i atlsd:Allocate.obj
 0001:0001abb0       ?DecRef@CAtlTraceProcess@@QAEIXZ 0041bbb0 f i atlsd:Allocate.obj
 0001:0001abe0       ?ModuleCount@CAtlTraceProcess@@QBEHXZ 0041bbe0 f i atlsd:Allocate.obj
 0001:0001ac00       ?MaxSize@CAtlTraceProcess@@QBEKXZ 0041bc00 f i atlsd:Allocate.obj
 0001:0001ac20       ?CategoryCount@CAtlTraceProcess@@QBEHXZ 0041bc20 f i atlsd:Allocate.obj
 0001:0001ac40       ?TryAllocate@CAtlTraceSettings@@QAE_NXZ 0041bc40 f i atlsd:Allocate.obj
 0001:0001ac80       ?MarkValid@CAtlTraceSettings@@QAEXJ@Z 0041bc80 f i atlsd:Allocate.obj
 0001:0001acc0       ?IncModuleCount@CAtlTraceProcess@@QAEXI@Z 0041bcc0 f i atlsd:Allocate.obj
 0001:0001acf0       ?TryAddRef@CAtlTraceSettings@@QAE_NXZ 0041bcf0 f i atlsd:Allocate.obj
 0001:0001ad30       ?Release@CAtlTraceSettings@@QAEXXZ 0041bd30 f i atlsd:Allocate.obj
 0001:0001ad60       ?IncCategoryCount@CAtlTraceProcess@@QAEXI@Z 0041bd60 f i atlsd:Allocate.obj
 0001:0001ad90       ?Add@?$CSimpleArray@UCModuleInfo@CTraceSnapshot@@V?$CSimpleArrayEqualHelper@UCModuleInfo@CTraceSnapshot@@@ATL@@@ATL@@QAEHABUCModuleInfo@CTraceSnapshot@@@Z 0041bd90 f i atlsd:Allocate.obj
 0001:0001ae30       ?GetSize@?$CSimpleArray@KV?$CSimpleArrayEqualHelper@K@ATL@@@ATL@@QBEHXZ 0041be30 f i atlsd:Allocate.obj
 0001:0001ae50       ?Add@?$CSimpleArray@KV?$CSimpleArrayEqualHelper@K@ATL@@@ATL@@QAEHABK@Z 0041be50 f i atlsd:Allocate.obj
 0001:0001aef0       ?RemoveAt@?$CSimpleArray@KV?$CSimpleArrayEqualHelper@K@ATL@@@ATL@@QAEHH@Z 0041bef0 f i atlsd:Allocate.obj
 0001:0001afa0       ??A?$CSimpleArray@KV?$CSimpleArrayEqualHelper@K@ATL@@@ATL@@QAEAAKH@Z 0041bfa0 f i atlsd:Allocate.obj
 0001:0001b010       ?InternalSetAtIndex@?$CSimpleArray@UCModuleInfo@CTraceSnapshot@@V?$CSimpleArrayEqualHelper@UCModuleInfo@CTraceSnapshot@@@ATL@@@ATL@@QAEXHABUCModuleInfo@CTraceSnapshot@@@Z 0041c010 f i atlsd:Allocate.obj
 0001:0001b060       ?InternalSetAtIndex@?$CSimpleArray@KV?$CSimpleArrayEqualHelper@K@ATL@@@ATL@@QAEXHABK@Z 0041c060 f i atlsd:Allocate.obj
 0001:0001b0b0       ??0Wrapper@?$CSimpleArray@UCModuleInfo@CTraceSnapshot@@V?$CSimpleArrayEqualHelper@UCModuleInfo@CTraceSnapshot@@@ATL@@@ATL@@QAE@ABUCModuleInfo@CTraceSnapshot@@@Z 0041c0b0 f i atlsd:Allocate.obj
 0001:0001b0e0       ??0Wrapper@?$CSimpleArray@KV?$CSimpleArrayEqualHelper@K@ATL@@@ATL@@QAE@ABK@Z 0041c0e0 f i atlsd:Allocate.obj
 0001:0001b100       ??$?2UCModuleInfo@CTraceSnapshot@@@Wrapper@?$CSimpleArray@UCModuleInfo@CTraceSnapshot@@V?$CSimpleArrayEqualHelper@UCModuleInfo@CTraceSnapshot@@@ATL@@@ATL@@SAPAXIPAUCModuleInfo@CTraceSnapshot@@@Z 0041c100 f i atlsd:Allocate.obj
 0001:0001b110       ??$?2K@Wrapper@?$CSimpleArray@KV?$CSimpleArrayEqualHelper@K@ATL@@@ATL@@SAPAXIPAK@Z 0041c110 f i atlsd:Allocate.obj
 0001:0001b120       ??0CAtlTraceModuleInfo@@QAE@XZ 0041c120 f   atlsd:AtlTraceModuleManager.obj
 0001:0001b170       ?Reset@CAtlTraceModuleInfo@@QAEXPAUHINSTANCE__@@@Z 0041c170 f   atlsd:AtlTraceModuleManager.obj
 0001:0001b380       ??0CAtlTraceCategory@@QAE@XZ 0041c380 f   atlsd:AtlTraceModuleManager.obj
 0001:0001b3b0       ?Reset@CAtlTraceCategory@@QAEXPBGJ@Z 0041c3b0 f   atlsd:AtlTraceModuleManager.obj
 0001:0001b3e0       ??0CAtlTraceModule@@QAE@XZ 0041c3e0 f   atlsd:AtlTraceModuleManager.obj
 0001:0001b420       ?CrtDbgReport@CAtlTraceModule@@QAEXP6AHHPBDH00ZZ@Z 0041c420 f   atlsd:AtlTraceModuleManager.obj
 0001:0001b450       ??0CAtlTraceProcess@@QAE@K@Z 0041c450 f   atlsd:AtlTraceModuleManager.obj
 0001:0001b520       ?GetNextCookie@CAtlTraceProcess@@QAEJXZ 0041c520 f   atlsd:AtlTraceModuleManager.obj
 0001:0001b540       ??0CAtlTraceSettings@@QAE@XZ 0041c540 f i atlsd:AtlTraceModuleManager.obj
 0001:0001b576       ??2@YAPAXI@Z               0041c576 f   mfc71d:MFC71D.DLL
 0001:0001b580       _WinMain@16                0041c580 f   mfcs71d:appmodul.obj
 0001:0001b5a0       ?AfxInitialize@@YGHHK@Z    0041c5a0 f   mfcs71d:appmodul.obj
 0001:0001b600       ??0type_info@@AAE@ABV0@@Z  0041c600 f   msvcrtd:ti_inst.obj
 0001:0001b620       ??_Etype_info@@UAEPAXI@Z   0041c620 f i msvcrtd:ti_inst.obj
 0001:0001b690       ??4type_info@@AAEAAV0@ABV0@@Z 0041c690 f   msvcrtd:ti_inst.obj
 0001:0001b6a0       __snprintf                 0041c6a0 f   msvcrtd:MSVCR71D.dll
 0001:0001b6a6       __CxxThrowException@8      0041c6a6 f   msvcrtd:MSVCR71D.dll
 0001:0001b6ac       __vsnprintf                0041c6ac f   msvcrtd:MSVCR71D.dll
 0001:0001b6b2       __vsnwprintf               0041c6b2 f   msvcrtd:MSVCR71D.dll
 0001:0001b6b8       __snwprintf                0041c6b8 f   msvcrtd:MSVCR71D.dll
 0001:0001b6be       _realloc                   0041c6be f   msvcrtd:MSVCR71D.dll
 0001:0001b6c4       _memcmp                    0041c6c4 f   msvcrtd:MSVCR71D.dll
 0001:0001b6ca       _wcscmp                    0041c6ca f   msvcrtd:MSVCR71D.dll
 0001:0001b6d0       _wcslen                    0041c6d0 f   msvcrtd:MSVCR71D.dll
 0001:0001b6d6       _wcsncpy                   0041c6d6 f   msvcrtd:MSVCR71D.dll
 0001:0001b6dc       __strdup                   0041c6dc f   msvcrtd:MSVCR71D.dll
 0001:0001b6dc       _strdup                    0041c6dc f   msvcrtd:MSVCR71D.dll
 0001:0001b6e2       __itoa                     0041c6e2 f   msvcrtd:MSVCR71D.dll
 0001:0001b6e8       __setmbcp                  0041c6e8 f   msvcrtd:MSVCR71D.dll
 0001:0001b6ee       ??1type_info@@UAE@XZ       0041c6ee f   msvcrtd:MSVCR71D.dll
 0001:0001b6f4       _MulDiv@12                 0041c6f4 f   kernel32:KERNEL32.dll
 0001:0001b6fa       _SetEvent@4                0041c6fa f   kernel32:KERNEL32.dll
 0001:0001b700       _OpenEventA@12             0041c700 f   kernel32:KERNEL32.dll
 0001:0001b706       _lstrcpyA@8                0041c706 f   kernel32:KERNEL32.dll
 0001:0001b70c       _lstrcpyW@8                0041c70c f   kernel32:KERNEL32.dll
 0001:0001b712       _OutputDebugStringA@4      0041c712 f   kernel32:KERNEL32.dll
 0001:0001b718       _OutputDebugStringW@4      0041c718 f   kernel32:KERNEL32.dll
 0001:0001b71e       _lstrcpynW@12              0041c71e f   kernel32:KERNEL32.dll
 0001:0001b724       _InitializeCriticalSection@4 0041c724 f   kernel32:KERNEL32.dll
 0001:0001b72a       _LeaveCriticalSection@4    0041c72a f   kernel32:KERNEL32.dll
 0001:0001b730       _EnterCriticalSection@4    0041c730 f   kernel32:KERNEL32.dll
 0001:0001b736       _VirtualAlloc@16           0041c736 f   kernel32:KERNEL32.dll
 0001:0001b73c       _UnmapViewOfFile@4         0041c73c f   kernel32:KERNEL32.dll
 0001:0001b742       _IsBadReadPtr@8            0041c742 f   kernel32:KERNEL32.dll
 0001:0001b748       _GetSystemInfo@4           0041c748 f   kernel32:KERNEL32.dll
 0001:0001b74e       _MapViewOfFile@20          0041c74e f   kernel32:KERNEL32.dll
 0001:0001b754       _CreateFileMappingA@24     0041c754 f   kernel32:KERNEL32.dll
 0001:0001b75a       _GetCurrentThread@0        0041c75a f   kernel32:KERNEL32.dll
 0001:0001b760       _OpenFileMappingA@12       0041c760 f   kernel32:KERNEL32.dll
 0001:0001b766       _InterlockedIncrement@4    0041c766 f   kernel32:KERNEL32.dll
 0001:0001b76c       _InterlockedDecrement@4    0041c76c f   kernel32:KERNEL32.dll
 0001:0001b772       _GetModuleFileNameW@12     0041c772 f   kernel32:KERNEL32.dll
 0001:0001b778       _CopyRect@8                0041c778 f   user32:USER32.dll
 0001:0001b77e       _IsRectEmpty@4             0041c77e f   user32:USER32.dll
 0001:0001b784       _PtInRect@12               0041c784 f   user32:USER32.dll
 0001:0001b78a       _SetRect@20                0041c78a f   user32:USER32.dll
 0001:0001b790       _SetRectEmpty@4            0041c790 f   user32:USER32.dll
 0001:0001b796       _EqualRect@8               0041c796 f   user32:USER32.dll
 0001:0001b79c       _InflateRect@12            0041c79c f   user32:USER32.dll
 0001:0001b7a2       _OffsetRect@12             0041c7a2 f   user32:USER32.dll
 0001:0001b7a8       _IntersectRect@12          0041c7a8 f   user32:USER32.dll
 0001:0001b7ae       _UnionRect@12              0041c7ae f   user32:USER32.dll
 0001:0001b7b4       _SubtractRect@12           0041c7b4 f   user32:USER32.dll
 0001:0001b7ba       _DispatchMessageA@4        0041c7ba f   user32:USER32.dll
 0001:0001b7c0       _DispatchMessageW@4        0041c7c0 f   user32:USER32.dll
 0001:0001b7c6       _TranslateMessage@4        0041c7c6 f   user32:USER32.dll
 0001:0001b7cc       _GetMessageA@16            0041c7cc f   user32:USER32.dll
 0001:0001b7d2       _GetMessageW@16            0041c7d2 f   user32:USER32.dll
 0001:0001b7d8       _IsWindowUnicode@4         0041c7d8 f   user32:USER32.dll
 0001:0001b7de       _PeekMessageA@20           0041c7de f   user32:USER32.dll
 0001:0001b7e4       _MsgWaitForMultipleObjects@20 0041c7e4 f   user32:USER32.dll
 0001:0001b7ea       _SetThreadToken@8          0041c7ea f   advapi32:ADVAPI32.dll
 0001:0001b7f0       _RevertToSelf@0            0041c7f0 f   advapi32:ADVAPI32.dll
 0001:0001b7f6       _OpenThreadToken@16        0041c7f6 f   advapi32:ADVAPI32.dll
 0001:0001b7fc       _CoReleaseMarshalData@4    0041c7fc f   ole32:ole32.dll
 0001:0001b802       _CoMarshalInterface@24     0041c802 f   ole32:ole32.dll
 0001:0001b808       _CreateStreamOnHGlobal@12  0041c808 f   ole32:ole32.dll
 0001:0001b80e       _CoUnmarshalInterface@12   0041c80e f   ole32:ole32.dll
 0001:0001b814       _CoRevokeClassObject@4     0041c814 f   ole32:ole32.dll
 0001:0001b81a       _CoRegisterClassObject@20  0041c81a f   ole32:ole32.dll
 0001:0001b820       ?AfxWinMain@@YGHPAUHINSTANCE__@@0PADH@Z 0041c820 f   mfc71d:MFC71D.DLL
 0001:0001b826       ?AfxGetModuleState@@YGPAVAFX_MODULE_STATE@@XZ 0041c826 f   mfc71d:MFC71D.DLL
 0002:00000000       __imp__RegQueryValueExA@24 0041e000     advapi32:ADVAPI32.dll
 0002:00000004       __imp__RegCloseKey@4       0041e004     advapi32:ADVAPI32.dll
 0002:00000008       __imp__OpenThreadToken@16  0041e008     advapi32:ADVAPI32.dll
 0002:0000000c       __imp__RevertToSelf@0      0041e00c     advapi32:ADVAPI32.dll
 0002:00000010       __imp__SetThreadToken@8    0041e010     advapi32:ADVAPI32.dll
 0002:00000014       __imp__RegOpenKeyExA@20    0041e014     advapi32:ADVAPI32.dll
 0002:00000018       __imp__RegSetValueExA@24   0041e018     advapi32:ADVAPI32.dll
 0002:0000001c       __imp__RegCreateKeyExA@36  0041e01c     advapi32:ADVAPI32.dll
 0002:00000020       __imp__RegEnumValueA@32    0041e020     advapi32:ADVAPI32.dll
 0002:00000024       __imp__RegQueryInfoKeyA@48 0041e024     advapi32:ADVAPI32.dll
 0002:00000028       \177ADVAPI32_NULL_THUNK_DATA 0041e028     advapi32:ADVAPI32.dll
 0002:0000002c       __imp__GetStockObject@4    0041e02c     gdi32:GDI32.dll
 0002:00000030       \177GDI32_NULL_THUNK_DATA  0041e030     gdi32:GDI32.dll
 0002:00000034       __imp__IsBadReadPtr@8      0041e034     kernel32:KERNEL32.dll
 0002:00000038       __imp__UnmapViewOfFile@4   0041e038     kernel32:KERNEL32.dll
 0002:0000003c       __imp__VirtualAlloc@16     0041e03c     kernel32:KERNEL32.dll
 0002:00000040       __imp__EnterCriticalSection@4 0041e040     kernel32:KERNEL32.dll
 0002:00000044       __imp__LeaveCriticalSection@4 0041e044     kernel32:KERNEL32.dll
 0002:00000048       __imp__GetSystemInfo@4     0041e048     kernel32:KERNEL32.dll
 0002:0000004c       __imp__lstrcpynW@12        0041e04c     kernel32:KERNEL32.dll
 0002:00000050       __imp__OutputDebugStringW@4 0041e050     kernel32:KERNEL32.dll
 0002:00000054       __imp__OutputDebugStringA@4 0041e054     kernel32:KERNEL32.dll
 0002:00000058       __imp__lstrcpyW@8          0041e058     kernel32:KERNEL32.dll
 0002:0000005c       __imp__lstrcpyA@8          0041e05c     kernel32:KERNEL32.dll
 0002:00000060       __imp__OpenEventA@12       0041e060     kernel32:KERNEL32.dll
 0002:00000064       __imp__SetEvent@4          0041e064     kernel32:KERNEL32.dll
 0002:00000068       __imp__MulDiv@12           0041e068     kernel32:KERNEL32.dll
 0002:0000006c       __imp__InterlockedExchange@8 0041e06c     kernel32:KERNEL32.dll
 0002:00000070       __imp__MapViewOfFile@20    0041e070     kernel32:KERNEL32.dll
 0002:00000074       __imp__CreateFileMappingA@24 0041e074     kernel32:KERNEL32.dll
 0002:00000078       __imp__GetCurrentThread@0  0041e078     kernel32:KERNEL32.dll
 0002:0000007c       __imp__OpenFileMappingA@12 0041e07c     kernel32:KERNEL32.dll
 0002:00000080       __imp__InterlockedIncrement@4 0041e080     kernel32:KERNEL32.dll
 0002:00000084       __imp__InterlockedDecrement@4 0041e084     kernel32:KERNEL32.dll
 0002:00000088       __imp__GetModuleFileNameW@12 0041e088     kernel32:KERNEL32.dll
 0002:0000008c       __imp__GetACP@0            0041e08c     kernel32:KERNEL32.dll
 0002:00000090       __imp__InitializeCriticalSection@4 0041e090     kernel32:KERNEL32.dll
 0002:00000094       __imp__GetThreadLocale@0   0041e094     kernel32:KERNEL32.dll
 0002:00000098       __imp__GetCurrentProcess@0 0041e098     kernel32:KERNEL32.dll
 0002:0000009c       __imp__GetVersionExA@4     0041e09c     kernel32:KERNEL32.dll
 0002:000000a0       __imp__Sleep@4             0041e0a0     kernel32:KERNEL32.dll
 0002:000000a4       __imp__WriteFile@20        0041e0a4     kernel32:KERNEL32.dll
 0002:000000a8       __imp__CreateFileA@28      0041e0a8     kernel32:KERNEL32.dll
 0002:000000ac       __imp__FreeLibrary@4       0041e0ac     kernel32:KERNEL32.dll
 0002:000000b0       __imp__GetProcAddress@8    0041e0b0     kernel32:KERNEL32.dll
 0002:000000b4       __imp__LoadLibraryA@4      0041e0b4     kernel32:KERNEL32.dll
 0002:000000b8       __imp__Beep@8              0041e0b8     kernel32:KERNEL32.dll
 0002:000000bc       __imp__CreateMutexA@12     0041e0bc     kernel32:KERNEL32.dll
 0002:000000c0       __imp__OpenMutexA@12       0041e0c0     kernel32:KERNEL32.dll
 0002:000000c4       __imp__CloseHandle@4       0041e0c4     kernel32:KERNEL32.dll
 0002:000000c8       __imp__ReleaseMutex@4      0041e0c8     kernel32:KERNEL32.dll
 0002:000000cc       __imp__WaitForSingleObject@8 0041e0cc     kernel32:KERNEL32.dll
 0002:000000d0       __imp__GetLastError@0      0041e0d0     kernel32:KERNEL32.dll
 0002:000000d4       __imp__CreateProcessA@40   0041e0d4     kernel32:KERNEL32.dll
 0002:000000d8       __imp__GetExitCodeProcess@8 0041e0d8     kernel32:KERNEL32.dll
 0002:000000dc       __imp__GetCurrentDirectoryA@8 0041e0dc     kernel32:KERNEL32.dll
 0002:000000e0       __imp__GetWindowsDirectoryA@8 0041e0e0     kernel32:KERNEL32.dll
 0002:000000e4       __imp__GetEnvironmentVariableW@12 0041e0e4     kernel32:KERNEL32.dll
 0002:000000e8       __imp__GetVersion@0        0041e0e8     kernel32:KERNEL32.dll
 0002:000000ec       __imp__MultiByteToWideChar@24 0041e0ec     kernel32:KERNEL32.dll
 0002:000000f0       __imp__GetEnvironmentVariableA@12 0041e0f0     kernel32:KERNEL32.dll
 0002:000000f4       __imp__CompareStringW@24   0041e0f4     kernel32:KERNEL32.dll
 0002:000000f8       __imp__CompareStringA@24   0041e0f8     kernel32:KERNEL32.dll
 0002:000000fc       __imp__lstrlenW@4          0041e0fc     kernel32:KERNEL32.dll
 0002:00000100       __imp__WideCharToMultiByte@32 0041e100     kernel32:KERNEL32.dll
 0002:00000104       __imp__GetStringTypeExW@20 0041e104     kernel32:KERNEL32.dll
 0002:00000108       __imp__GetStringTypeExA@20 0041e108     kernel32:KERNEL32.dll
 0002:0000010c       __imp__lstrcmpiW@8         0041e10c     kernel32:KERNEL32.dll
 0002:00000110       __imp__lstrcmpiA@8         0041e110     kernel32:KERNEL32.dll
 0002:00000114       __imp__lstrlenA@4          0041e114     kernel32:KERNEL32.dll
 0002:00000118       __imp__DeleteCriticalSection@4 0041e118     kernel32:KERNEL32.dll
 0002:0000011c       __imp__RaiseException@16   0041e11c     kernel32:KERNEL32.dll
 0002:00000120       __imp__MoveFileExA@12      0041e120     kernel32:KERNEL32.dll
 0002:00000124       __imp__FormatMessageA@28   0041e124     kernel32:KERNEL32.dll
 0002:00000128       __imp__SetLastError@4      0041e128     kernel32:KERNEL32.dll
 0002:0000012c       __imp__FindClose@4         0041e12c     kernel32:KERNEL32.dll
 0002:00000130       __imp__FindFirstFileA@8    0041e130     kernel32:KERNEL32.dll
 0002:00000134       __imp__GetFullPathNameA@16 0041e134     kernel32:KERNEL32.dll
 0002:00000138       __imp__LoadLibraryExA@12   0041e138     kernel32:KERNEL32.dll
 0002:0000013c       __imp__ExitProcess@4       0041e13c     kernel32:KERNEL32.dll
 0002:00000140       __imp__GetModuleHandleA@4  0041e140     kernel32:KERNEL32.dll
 0002:00000144       __imp__GetStartupInfoA@4   0041e144     kernel32:KERNEL32.dll
 0002:00000148       __imp__QueryPerformanceCounter@4 0041e148     kernel32:KERNEL32.dll
 0002:0000014c       __imp__GetTickCount@0      0041e14c     kernel32:KERNEL32.dll
 0002:00000150       __imp__GetCurrentThreadId@0 0041e150     kernel32:KERNEL32.dll
 0002:00000154       __imp__GetCurrentProcessId@0 0041e154     kernel32:KERNEL32.dll
 0002:00000158       __imp__GetSystemTimeAsFileTime@4 0041e158     kernel32:KERNEL32.dll
 0002:0000015c       __imp__DebugBreak@0        0041e15c     kernel32:KERNEL32.dll
 0002:00000160       __imp__HeapFree@12         0041e160     kernel32:KERNEL32.dll
 0002:00000164       __imp__HeapAlloc@12        0041e164     kernel32:KERNEL32.dll
 0002:00000168       __imp__GetProcessHeap@0    0041e168     kernel32:KERNEL32.dll
 0002:0000016c       __imp__GetModuleFileNameA@12 0041e16c     kernel32:KERNEL32.dll
 0002:00000170       __imp__GetLocaleInfoA@16   0041e170     kernel32:KERNEL32.dll
 0002:00000174       \177KERNEL32_NULL_THUNK_DATA 0041e174     kernel32:KERNEL32.dll
 0002:00000178       __imp_?Create@CWnd@@UAEHPBD0KABUtagRECT@@PAV1@IPAUCCreateContext@@@Z 0041e178     mfc71d:MFC71D.DLL
 0002:0000017c       __imp_?PreSubclassWindow@CWnd@@UAEXXZ 0041e17c     mfc71d:MFC71D.DLL
 0002:00000180       __imp_?GetConnectionHook@CCmdTarget@@MAEPAUIConnectionPoint@@ABU_GUID@@@Z 0041e180     mfc71d:MFC71D.DLL
 0002:00000184       __imp_?GetExtraConnectionPoints@CCmdTarget@@MAEHPAVCPtrArray@@@Z 0041e184     mfc71d:MFC71D.DLL
 0002:00000188       __imp_?GetInterfaceHook@CCmdTarget@@UAEPAUIUnknown@@PBX@Z 0041e188     mfc71d:MFC71D.DLL
 0002:0000018c       __imp_?OnCreateAggregates@CCmdTarget@@UAEHXZ 0041e18c     mfc71d:MFC71D.DLL
 0002:00000190       __imp_?GetEventSinkMap@CCmdTarget@@MBEPBUAFX_EVENTSINKMAP@@XZ 0041e190     mfc71d:MFC71D.DLL
 0002:00000194       __imp_?GetInterfaceMap@CWnd@@MBEPBUAFX_INTERFACEMAP@@XZ 0041e194     mfc71d:MFC71D.DLL
 0002:00000198       __imp_?GetConnectionMap@CCmdTarget@@MBEPBUAFX_CONNECTIONMAP@@XZ 0041e198     mfc71d:MFC71D.DLL
 0002:0000019c       __imp_?GetDispatchMap@CCmdTarget@@MBEPBUAFX_DISPMAP@@XZ 0041e19c     mfc71d:MFC71D.DLL
 0002:000001a0       __imp_?GetCommandMap@CCmdTarget@@MBEPBUAFX_OLECMDMAP@@XZ 0041e1a0     mfc71d:MFC71D.DLL
 0002:000001a4       __imp_?GetTypeLib@CCmdTarget@@UAEJKPAPAUITypeLib@@@Z 0041e1a4     mfc71d:MFC71D.DLL
 0002:000001a8       __imp_?GetTypeLibCache@CCmdTarget@@UAEPAVCTypeLibCache@@XZ 0041e1a8     mfc71d:MFC71D.DLL
 0002:000001ac       __imp_?GetTypeInfoCount@CCmdTarget@@UAEIXZ 0041e1ac     mfc71d:MFC71D.DLL
 0002:000001b0       __imp_?GetDispatchIID@CCmdTarget@@UAEHPAU_GUID@@@Z 0041e1b0     mfc71d:MFC71D.DLL
 0002:000001b4       __imp_?IsInvokeAllowed@CCmdTarget@@UAEHJ@Z 0041e1b4     mfc71d:MFC71D.DLL
 0002:000001b8       __imp_?OnFinalRelease@CWnd@@UAEXXZ 0041e1b8     mfc71d:MFC71D.DLL
 0002:000001bc       __imp_?OnCmdMsg@CDialog@@UAEHIHPAXPAUAFX_CMDHANDLERINFO@@@Z 0041e1bc     mfc71d:MFC71D.DLL
 0002:000001c0       __imp_?Dump@CDialog@@UBEXAAVCDumpContext@@@Z 0041e1c0     mfc71d:MFC71D.DLL
 0002:000001c4       __imp_?AssertValid@CDialog@@UBEXXZ 0041e1c4     mfc71d:MFC71D.DLL
 0002:000001c8       __imp_?Serialize@CObject@@UAEXAAVCArchive@@@Z 0041e1c8     mfc71d:MFC71D.DLL
 0002:000001cc       __imp_?GetRuntimeClass@CDialog@@UBEPAUCRuntimeClass@@XZ 0041e1cc     mfc71d:MFC71D.DLL
 0002:000001d0       __imp_??1CDialog@@UAE@XZ   0041e1d0     mfc71d:MFC71D.DLL
 0002:000001d4       __imp_??0CDialog@@QAE@IPAVCWnd@@@Z 0041e1d4     mfc71d:MFC71D.DLL
 0002:000001d8       __imp_??3CObject@@SGXPAX@Z 0041e1d8     mfc71d:MFC71D.DLL
 0002:000001dc       __imp_??1CStatic@@UAE@XZ   0041e1dc     mfc71d:MFC71D.DLL
 0002:000001e0       __imp_??1?$CStringT@DV?$StrTraitMFC_DLL@DV?$ChTraitsCRT@D@ATL@@@@@ATL@@QAE@XZ 0041e1e0     mfc71d:MFC71D.DLL
 0002:000001e4       __imp_??1CFont@@UAE@XZ     0041e1e4     mfc71d:MFC71D.DLL
 0002:000001e8       __imp_?DoDataExchange@CWnd@@MAEXPAVCDataExchange@@@Z 0041e1e8     mfc71d:MFC71D.DLL
 0002:000001ec       __imp_?OnInitDialog@CDialog@@UAEHXZ 0041e1ec     mfc71d:MFC71D.DLL
 0002:000001f0       __imp_??B?$CSimpleStringT@D$00@ATL@@QBEPBDXZ 0041e1f0     mfc71d:MFC71D.DLL
 0002:000001f4       __imp_?Format@?$CStringT@DV?$StrTraitMFC_DLL@DV?$ChTraitsCRT@D@ATL@@@@@ATL@@QAAXPBDZZ 0041e1f4     mfc71d:MFC71D.DLL
 0002:000001f8       __imp_?GetDlgItem@CWnd@@QBEPAV1@H@Z 0041e1f8     mfc71d:MFC71D.DLL
 0002:000001fc       __imp_??0?$CStringT@DV?$StrTraitMFC_DLL@DV?$ChTraitsCRT@D@ATL@@@@@ATL@@QAE@XZ 0041e1fc     mfc71d:MFC71D.DLL
 0002:00000200       __imp_??0?$CStringT@DV?$StrTraitMFC_DLL@DV?$ChTraitsCRT@D@ATL@@@@@ATL@@QAE@PBD@Z 0041e200     mfc71d:MFC71D.DLL
 0002:00000204       __imp_?SetWindowTextA@CWnd@@QAEXPBD@Z 0041e204     mfc71d:MFC71D.DLL
 0002:00000208       __imp_?SubclassDlgItem@CWnd@@QAEHIPAV1@@Z 0041e208     mfc71d:MFC71D.DLL
 0002:0000020c       __imp_??3@YAXPAXPBDH@Z     0041e20c     mfc71d:MFC71D.DLL
 0002:00000210       __imp_??2@YAPAXIPBDH@Z     0041e210     mfc71d:MFC71D.DLL
 0002:00000214       __imp_??3@YAXPAX@Z         0041e214     mfc71d:MFC71D.DLL
 0002:00000218       __imp_??3CObject@@SGXPAXPBDH@Z 0041e218     mfc71d:MFC71D.DLL
 0002:0000021c       __imp_??2CObject@@SGPAXIPBDH@Z 0041e21c     mfc71d:MFC71D.DLL
 0002:00000220       __imp_?GetRuntimeClass@CObject@@UBEPAUCRuntimeClass@@XZ 0041e220     mfc71d:MFC71D.DLL
 0002:00000224       __imp_??0CObject@@IAE@XZ   0041e224     mfc71d:MFC71D.DLL
 0002:00000228       __imp_?AfxThrowInvalidArgException@@YGXXZ 0041e228     mfc71d:MFC71D.DLL
 0002:0000022c       __imp_?AfxAssertFailedLine@@YGHPBDH@Z 0041e22c     mfc71d:MFC71D.DLL
 0002:00000230       __imp_?AfxAssertValidObject@@YGXPBVCObject@@PBDH@Z 0041e230     mfc71d:MFC71D.DLL
 0002:00000234       __imp_??1CObject@@UAE@XZ   0041e234     mfc71d:MFC71D.DLL
 0002:00000238       __imp_??_V@YAXPAX@Z        0041e238     mfc71d:MFC71D.DLL
 0002:0000023c       __imp_?ReadCount@CArchive@@QAEKXZ 0041e23c     mfc71d:MFC71D.DLL
 0002:00000240       __imp_?WriteCount@CArchive@@QAEXK@Z 0041e240     mfc71d:MFC71D.DLL
 0002:00000244       __imp_?IsStoring@CArchive@@QBEHXZ 0041e244     mfc71d:MFC71D.DLL
 0002:00000248       __imp_?GetDepth@CDumpContext@@QBEHXZ 0041e248     mfc71d:MFC71D.DLL
 0002:0000024c       __imp_??6CDumpContext@@QAEAAV0@H@Z 0041e24c     mfc71d:MFC71D.DLL
 0002:00000250       __imp_??6CDumpContext@@QAEAAV0@PBD@Z 0041e250     mfc71d:MFC71D.DLL
 0002:00000254       __imp_?Dump@CObject@@UBEXAAVCDumpContext@@@Z 0041e254     mfc71d:MFC71D.DLL
 0002:00000258       __imp_?AfxIsValidAddress@@YGHPBXIH@Z 0041e258     mfc71d:MFC71D.DLL
 0002:0000025c       __imp_?AssertValid@CObject@@UBEXXZ 0041e25c     mfc71d:MFC71D.DLL
 0002:00000260       __imp_??_U@YAPAXI@Z        0041e260     mfc71d:MFC71D.DLL
 0002:00000264       __imp_??_U@YAPAXIPBDH@Z    0041e264     mfc71d:MFC71D.DLL
 0002:00000268       __imp_?Read@CArchive@@QAEIPAXI@Z 0041e268     mfc71d:MFC71D.DLL
 0002:0000026c       __imp_?Write@CArchive@@QAEXPBXI@Z 0041e26c     mfc71d:MFC71D.DLL
 0002:00000270       __imp_??1CEdit@@UAE@XZ     0041e270     mfc71d:MFC71D.DLL
 0002:00000274       __imp_??1CSliderCtrl@@UAE@XZ 0041e274     mfc71d:MFC71D.DLL
 0002:00000278       __imp_??0CEdit@@QAE@XZ     0041e278     mfc71d:MFC71D.DLL
 0002:0000027c       __imp_??0CSliderCtrl@@QAE@XZ 0041e27c     mfc71d:MFC71D.DLL
 0002:00000280       __imp_?DDX_Control@@YGXPAVCDataExchange@@HAAVCWnd@@@Z 0041e280     mfc71d:MFC71D.DLL
 0002:00000284       __imp_?OnHScroll@CWnd@@IAEXIIPAVCScrollBar@@@Z 0041e284     mfc71d:MFC71D.DLL
 0002:00000288       __imp_?GetDlgCtrlID@CWnd@@QBEHXZ 0041e288     mfc71d:MFC71D.DLL
 0002:0000028c       __imp_?SetTicFreq@CSliderCtrl@@QAEXH@Z 0041e28c     mfc71d:MFC71D.DLL
 0002:00000290       __imp_?SetPos@CSliderCtrl@@QAEXH@Z 0041e290     mfc71d:MFC71D.DLL
 0002:00000294       __imp_?SetLimitText@CEdit@@QAEXI@Z 0041e294     mfc71d:MFC71D.DLL
 0002:00000298       __imp_?SetSel@CEdit@@QAEXHHH@Z 0041e298     mfc71d:MFC71D.DLL
 0002:0000029c       __imp_?GetLength@?$CSimpleStringT@D$00@ATL@@QBEHXZ 0041e29c     mfc71d:MFC71D.DLL
 0002:000002a0       __imp_?GetWindowTextA@CWnd@@QBEXAAV?$CStringT@DV?$StrTraitMFC_DLL@DV?$ChTraitsCRT@D@ATL@@@@@ATL@@@Z 0041e2a0     mfc71d:MFC71D.DLL
 0002:000002a4       __imp_?GetThisMessageMap@CWnd@@KGPBUAFX_MSGMAP@@XZ 0041e2a4     mfc71d:MFC71D.DLL
 0002:000002a8       __imp_?DrawItem@CStatic@@UAEXPAUtagDRAWITEMSTRUCT@@@Z 0041e2a8     mfc71d:MFC71D.DLL
 0002:000002ac       __imp_?Create@CStatic@@UAEHPBDKABUtagRECT@@PAVCWnd@@I@Z 0041e2ac     mfc71d:MFC71D.DLL
 0002:000002b0       __imp_?SetOccDialogInfo@CWnd@@MAEHPAU_AFX_OCC_DIALOG_INFO@@@Z 0041e2b0     mfc71d:MFC71D.DLL
 0002:000002b4       __imp_?CheckAutoCenter@CWnd@@UAEHXZ 0041e2b4     mfc71d:MFC71D.DLL
 0002:000002b8       __imp_?OnChildNotify@CStatic@@MAEHIIJPAJ@Z 0041e2b8     mfc71d:MFC71D.DLL
 0002:000002bc       __imp_?PreTranslateMessage@CWnd@@UAEHPAUtagMSG@@@Z 0041e2bc     mfc71d:MFC71D.DLL
 0002:000002c0       __imp_?OnCmdMsg@CCmdTarget@@UAEHIHPAXPAUAFX_CMDHANDLERINFO@@@Z 0041e2c0     mfc71d:MFC71D.DLL
 0002:000002c4       __imp_?Dump@CWnd@@UBEXAAVCDumpContext@@@Z 0041e2c4     mfc71d:MFC71D.DLL
 0002:000002c8       __imp_?AssertValid@CWnd@@UBEXXZ 0041e2c8     mfc71d:MFC71D.DLL
 0002:000002cc       __imp_?GetRuntimeClass@CStatic@@UBEPAUCRuntimeClass@@XZ 0041e2cc     mfc71d:MFC71D.DLL
 0002:000002d0       __imp_??1CBrush@@UAE@XZ    0041e2d0     mfc71d:MFC71D.DLL
 0002:000002d4       __imp_??1CPen@@UAE@XZ      0041e2d4     mfc71d:MFC71D.DLL
 0002:000002d8       __imp_??0CBrush@@QAE@XZ    0041e2d8     mfc71d:MFC71D.DLL
 0002:000002dc       __imp_??0CPen@@QAE@XZ      0041e2dc     mfc71d:MFC71D.DLL
 0002:000002e0       __imp_??0CStatic@@QAE@XZ   0041e2e0     mfc71d:MFC71D.DLL
 0002:000002e4       __imp_??0CClientDC@@QAE@PAVCWnd@@@Z 0041e2e4     mfc71d:MFC71D.DLL
 0002:000002e8       __imp_??1CPaintDC@@UAE@XZ  0041e2e8     mfc71d:MFC71D.DLL
 0002:000002ec       __imp_??0CPaintDC@@QAE@PAVCWnd@@@Z 0041e2ec     mfc71d:MFC71D.DLL
 0002:000002f0       __imp_?OnTimer@CWnd@@IAEXI@Z 0041e2f0     mfc71d:MFC71D.DLL
 0002:000002f4       __imp_?GetClientRect@CWnd@@QBEXPAUtagRECT@@@Z 0041e2f4     mfc71d:MFC71D.DLL
 0002:000002f8       __imp_?KillTimer@CWnd@@QAEHI@Z 0041e2f8     mfc71d:MFC71D.DLL
 0002:000002fc       __imp_?SetTimer@CWnd@@QAEIIIP6GXPAUHWND__@@IIK@Z@Z 0041e2fc     mfc71d:MFC71D.DLL
 0002:00000300       __imp_?SelectObject@CDC@@QAEPAVCBrush@@PAV2@@Z 0041e300     mfc71d:MFC71D.DLL
 0002:00000304       __imp_?SelectObject@CDC@@QAEPAVCPen@@PAV2@@Z 0041e304     mfc71d:MFC71D.DLL
 0002:00000308       __imp_?CreateSolidBrush@CBrush@@QAEHK@Z 0041e308     mfc71d:MFC71D.DLL
 0002:0000030c       __imp_?CreatePen@CPen@@QAEHHHK@Z 0041e30c     mfc71d:MFC71D.DLL
 0002:00000310       __imp_?DeleteObject@CGdiObject@@QAEHXZ 0041e310     mfc71d:MFC71D.DLL
 0002:00000314       __imp_?Ellipse@CDC@@QAEHHHHH@Z 0041e314     mfc71d:MFC71D.DLL
 0002:00000318       __imp_?Arc@CDC@@QAEHPBUtagRECT@@UtagPOINT@@1@Z 0041e318     mfc71d:MFC71D.DLL
 0002:0000031c       __imp_?CreateEx@CWnd@@UAEHKPBD0KABUtagRECT@@PAV1@IPAX@Z 0041e31c     mfc71d:MFC71D.DLL
 0002:00000320       __imp_?Ellipse@CDC@@QAEHPBUtagRECT@@@Z 0041e320     mfc71d:MFC71D.DLL
 0002:00000324       __imp_?LineTo@CDC@@QAEHHH@Z 0041e324     mfc71d:MFC71D.DLL
 0002:00000328       __imp_?MoveTo@CDC@@QAE?AVCPoint@@HH@Z 0041e328     mfc71d:MFC71D.DLL
 0002:0000032c       __imp_?FillRect@CDC@@QAEXPBUtagRECT@@PAVCBrush@@@Z 0041e32c     mfc71d:MFC71D.DLL
 0002:00000330       __imp_?EnableWindow@CWnd@@QAEHH@Z 0041e330     mfc71d:MFC71D.DLL
 0002:00000334       __imp_?PostMessageA@CWnd@@QAEHIIJ@Z 0041e334     mfc71d:MFC71D.DLL
 0002:00000338       __imp_?GetParent@CWnd@@QBEPAV1@XZ 0041e338     mfc71d:MFC71D.DLL
 0002:0000033c       __imp_?GetThisClass@CDialog@@SGPAUCRuntimeClass@@XZ 0041e33c     mfc71d:MFC71D.DLL
 0002:00000340       __imp_?GetCheck@CButton@@QBEHXZ 0041e340     mfc71d:MFC71D.DLL
 0002:00000344       __imp_?GetCurSel@CListBox@@QBEHXZ 0041e344     mfc71d:MFC71D.DLL
 0002:00000348       __imp_?GetCurSel@CComboBox@@QBEHXZ 0041e348     mfc71d:MFC71D.DLL
 0002:0000034c       __imp_?SetCheck@CButton@@QAEXH@Z 0041e34c     mfc71d:MFC71D.DLL
 0002:00000350       __imp_?SetCurSel@CListBox@@QAEHH@Z 0041e350     mfc71d:MFC71D.DLL
 0002:00000354       __imp_?SetCurSel@CComboBox@@QAEHH@Z 0041e354     mfc71d:MFC71D.DLL
 0002:00000358       __imp_?GetCount@CListBox@@QBEHXZ 0041e358     mfc71d:MFC71D.DLL
 0002:0000035c       __imp_?GetCount@CComboBox@@QBEHXZ 0041e35c     mfc71d:MFC71D.DLL
 0002:00000360       __imp_?AfxGetApp@@YGPAVCWinApp@@XZ 0041e360     mfc71d:MFC71D.DLL
 0002:00000364       __imp_?GetBuffer@?$CSimpleStringT@D$00@ATL@@QAEPADXZ 0041e364     mfc71d:MFC71D.DLL
 0002:00000368       __imp_?IsEmpty@?$CSimpleStringT@D$00@ATL@@QBE_NXZ 0041e368     mfc71d:MFC71D.DLL
 0002:0000036c       __imp_?RedrawWindow@CWnd@@QAEHPBUtagRECT@@PAVCRgn@@I@Z 0041e36c     mfc71d:MFC71D.DLL
 0002:00000370       __imp_?LineScroll@CEdit@@QAEXHH@Z 0041e370     mfc71d:MFC71D.DLL
 0002:00000374       __imp_?GetLineCount@CEdit@@QBEHXZ 0041e374     mfc71d:MFC71D.DLL
 0002:00000378       __imp_?GetText@CListBox@@QBEXHAAV?$CStringT@DV?$StrTraitMFC_DLL@DV?$ChTraitsCRT@D@ATL@@@@@ATL@@@Z 0041e378     mfc71d:MFC71D.DLL
 0002:0000037c       __imp_??4?$CStringT@DV?$StrTraitMFC_DLL@DV?$ChTraitsCRT@D@ATL@@@@@ATL@@QAEAAV01@PBD@Z 0041e37c     mfc71d:MFC71D.DLL
 0002:00000380       __imp_?MoveWindow@CWnd@@QAEXPBUtagRECT@@H@Z 0041e380     mfc71d:MFC71D.DLL
 0002:00000384       __imp_?GetWindowRect@CWnd@@QBEXPAUtagRECT@@@Z 0041e384     mfc71d:MFC71D.DLL
 0002:00000388       __imp_?OnShowWindow@CWnd@@IAEXHI@Z 0041e388     mfc71d:MFC71D.DLL
 0002:0000038c       __imp_??0?$CStringT@DV?$StrTraitMFC_DLL@DV?$ChTraitsCRT@D@ATL@@@@@ATL@@QAE@ABV01@@Z 0041e38c     mfc71d:MFC71D.DLL
 0002:00000390       __imp_?Concatenate@?$CSimpleStringT@D$00@ATL@@KAXAAV12@PBDH1H@Z 0041e390     mfc71d:MFC71D.DLL
 0002:00000394       __imp_??0?$CStringT@DV?$StrTraitMFC_DLL@DV?$ChTraitsCRT@D@ATL@@@@@ATL@@QAE@PAUIAtlStringMgr@1@@Z 0041e394     mfc71d:MFC71D.DLL
 0002:00000398       __imp_?GetManager@?$CSimpleStringT@D$00@ATL@@QBEPAUIAtlStringMgr@2@XZ 0041e398     mfc71d:MFC71D.DLL
 0002:0000039c       __imp_?OnHelp@CWinApp@@IAEXXZ 0041e39c     mfc71d:MFC71D.DLL
 0002:000003a0       __imp_?GetThisMessageMap@CWinApp@@KGPBUAFX_MSGMAP@@XZ 0041e3a0     mfc71d:MFC71D.DLL
 0002:000003a4       __imp_?LoadSysPolicies@CWinApp@@UAEHXZ 0041e3a4     mfc71d:MFC71D.DLL
 0002:000003a8       __imp_?LoadAppLangResourceDLL@CWinApp@@UAEPAUHINSTANCE__@@XZ 0041e3a8     mfc71d:MFC71D.DLL
 0002:000003ac       __imp_?WinHelpInternal@CWinApp@@UAEXKI@Z 0041e3ac     mfc71d:MFC71D.DLL
 0002:000003b0       __imp_?HtmlHelpA@CWinApp@@UAEXKI@Z 0041e3b0     mfc71d:MFC71D.DLL
 0002:000003b4       __imp_?WinHelpA@CWinApp@@UAEXKI@Z 0041e3b4     mfc71d:MFC71D.DLL
 0002:000003b8       __imp_?OnDDECommand@CWinApp@@UAEHPAD@Z 0041e3b8     mfc71d:MFC71D.DLL
 0002:000003bc       __imp_?DoWaitCursor@CWinApp@@UAEXH@Z 0041e3bc     mfc71d:MFC71D.DLL
 0002:000003c0       __imp_?DoMessageBox@CWinApp@@UAEHPBDII@Z 0041e3c0     mfc71d:MFC71D.DLL
 0002:000003c4       __imp_?SaveAllModified@CWinApp@@UAEHXZ 0041e3c4     mfc71d:MFC71D.DLL
 0002:000003c8       __imp_?InitApplication@CWinApp@@UAEHXZ 0041e3c8     mfc71d:MFC71D.DLL
 0002:000003cc       __imp_?AddToRecentFileList@CWinApp@@UAEXPBD@Z 0041e3cc     mfc71d:MFC71D.DLL
 0002:000003d0       __imp_?OpenDocumentFile@CWinApp@@UAEPAVCDocument@@PBD@Z 0041e3d0     mfc71d:MFC71D.DLL
 0002:000003d4       __imp_?Unregister@CWinApp@@UAEHXZ 0041e3d4     mfc71d:MFC71D.DLL
 0002:000003d8       __imp_?Register@CWinApp@@UAEHXZ 0041e3d8     mfc71d:MFC71D.DLL
 0002:000003dc       __imp_?InitLibId@CWinApp@@UAEXXZ 0041e3dc     mfc71d:MFC71D.DLL
 0002:000003e0       __imp_?Delete@CWinThread@@UAEXXZ 0041e3e0     mfc71d:MFC71D.DLL
 0002:000003e4       __imp_?GetMainWnd@CWinThread@@UAEPAVCWnd@@XZ 0041e3e4     mfc71d:MFC71D.DLL
 0002:000003e8       __imp_?ProcessMessageFilter@CWinThread@@UAEHHPAUtagMSG@@@Z 0041e3e8     mfc71d:MFC71D.DLL
 0002:000003ec       __imp_?ProcessWndProcException@CWinApp@@UAEJPAVCException@@PBUtagMSG@@@Z 0041e3ec     mfc71d:MFC71D.DLL
 0002:000003f0       __imp_?ExitInstance@CWinApp@@UAEHXZ 0041e3f0     mfc71d:MFC71D.DLL
 0002:000003f4       __imp_?IsIdleMessage@CWinThread@@UAEHPAUtagMSG@@@Z 0041e3f4     mfc71d:MFC71D.DLL
 0002:000003f8       __imp_?OnIdle@CWinApp@@UAEHJ@Z 0041e3f8     mfc71d:MFC71D.DLL
 0002:000003fc       __imp_?PumpMessage@CWinThread@@UAEHXZ 0041e3fc     mfc71d:MFC71D.DLL
 0002:00000400       __imp_?PreTranslateMessage@CWinThread@@UAEHPAUtagMSG@@@Z 0041e400     mfc71d:MFC71D.DLL
 0002:00000404       __imp_?Run@CWinApp@@UAEHXZ 0041e404     mfc71d:MFC71D.DLL
 0002:00000408       __imp_?GetInterfaceMap@CCmdTarget@@MBEPBUAFX_INTERFACEMAP@@XZ 0041e408     mfc71d:MFC71D.DLL
 0002:0000040c       __imp_?OnFinalRelease@CCmdTarget@@UAEXXZ 0041e40c     mfc71d:MFC71D.DLL
 0002:00000410       __imp_?Dump@CWinApp@@UBEXAAVCDumpContext@@@Z 0041e410     mfc71d:MFC71D.DLL
 0002:00000414       __imp_?AssertValid@CWinApp@@UBEXXZ 0041e414     mfc71d:MFC71D.DLL
 0002:00000418       __imp_?GetRuntimeClass@CWinApp@@UBEPAUCRuntimeClass@@XZ 0041e418     mfc71d:MFC71D.DLL
 0002:0000041c       __imp_??0CWinApp@@QAE@PBD@Z 0041e41c     mfc71d:MFC71D.DLL
 0002:00000420       __imp_??1CWinApp@@UAE@XZ   0041e420     mfc71d:MFC71D.DLL
 0002:00000424       __imp_??1CProgressCtrl@@UAE@XZ 0041e424     mfc71d:MFC71D.DLL
 0002:00000428       __imp_?LoadIconA@CWinApp@@QBEPAUHICON__@@I@Z 0041e428     mfc71d:MFC71D.DLL
 0002:0000042c       __imp_??0CProgressCtrl@@QAE@XZ 0041e42c     mfc71d:MFC71D.DLL
 0002:00000430       __imp_?DDX_Check@@YGXPAVCDataExchange@@HAAH@Z 0041e430     mfc71d:MFC71D.DLL
 0002:00000434       __imp_?SendMessageA@CWnd@@QAEJIIJ@Z 0041e434     mfc71d:MFC71D.DLL
 0002:00000438       __imp_?SetBkColor@CProgressCtrl@@QAEKK@Z 0041e438     mfc71d:MFC71D.DLL
 0002:0000043c       __imp_?SetRange@CProgressCtrl@@QAEXFF@Z 0041e43c     mfc71d:MFC71D.DLL
 0002:00000440       __imp_?LoadMenuA@CMenu@@QAEHI@Z 0041e440     mfc71d:MFC71D.DLL
 0002:00000444       __imp_??0CMenu@@QAE@XZ     0041e444     mfc71d:MFC71D.DLL
 0002:00000448       __imp_?ModifyStyleEx@CWnd@@QAEHKKI@Z 0041e448     mfc71d:MFC71D.DLL
 0002:0000044c       __imp_?EnableToolTips@CWnd@@QAEHH@Z 0041e44c     mfc71d:MFC71D.DLL
 0002:00000450       __imp_?SetIcon@CWnd@@QAEPAUHICON__@@PAU2@H@Z 0041e450     mfc71d:MFC71D.DLL
 0002:00000454       __imp_?OnDestroy@CWnd@@IAEXXZ 0041e454     mfc71d:MFC71D.DLL
 0002:00000458       __imp_?OnPaint@CDialog@@IAEXXZ 0041e458     mfc71d:MFC71D.DLL
 0002:0000045c       __imp_?DrawIcon@CDC@@QAEHHHPAUHICON__@@@Z 0041e45c     mfc71d:MFC71D.DLL
 0002:00000460       __imp_?GetSafeHdc@CDC@@QBEPAUHDC__@@XZ 0041e460     mfc71d:MFC71D.DLL
 0002:00000464       __imp_?IsIconic@CWnd@@QBEHXZ 0041e464     mfc71d:MFC71D.DLL
 0002:00000468       __imp_?AfxGetModuleState@@YGPAVAFX_MODULE_STATE@@XZ 0041e468     mfc71d:MFC71D.DLL
 0002:0000046c       __imp_?ShowWindow@CWnd@@QAEHH@Z 0041e46c     mfc71d:MFC71D.DLL
 0002:00000470       __imp_?InsertString@CListBox@@QAEHHPBD@Z 0041e470     mfc71d:MFC71D.DLL
 0002:00000474       __imp_?SetDlgItemTextA@CWnd@@QAEXHPBD@Z 0041e474     mfc71d:MFC71D.DLL
 0002:00000478       __imp_?GetWindowPlacement@CWnd@@QBEHPAUtagWINDOWPLACEMENT@@@Z 0041e478     mfc71d:MFC71D.DLL
 0002:0000047c       __imp_?GetSubMenu@CMenu@@QBEPAV1@H@Z 0041e47c     mfc71d:MFC71D.DLL
 0002:00000480       __imp_??1CMenu@@UAE@XZ     0041e480     mfc71d:MFC71D.DLL
 0002:00000484       __imp_?OnWindowPosChanging@CWnd@@IAEXPAUtagWINDOWPOS@@@Z 0041e484     mfc71d:MFC71D.DLL
 0002:00000488       __imp_??4?$CStringT@DV?$StrTraitMFC_DLL@DV?$ChTraitsCRT@D@ATL@@@@@ATL@@QAEAAV01@ABV01@@Z 0041e488     mfc71d:MFC71D.DLL
 0002:0000048c       __imp_?IsWindowEnabled@CWnd@@QBEHXZ 0041e48c     mfc71d:MFC71D.DLL
 0002:00000490       __imp_?AfxGetResourceHandle@@YGPAUHINSTANCE__@@XZ 0041e490     mfc71d:MFC71D.DLL
 0002:00000494       __imp_?InsertString@CComboBox@@QAEHHPBD@Z 0041e494     mfc71d:MFC71D.DLL
 0002:00000498       __imp_?ResetContent@CListBox@@QAEXXZ 0041e498     mfc71d:MFC71D.DLL
 0002:0000049c       __imp_?OnSetCursor@CWnd@@IAEHPAV1@II@Z 0041e49c     mfc71d:MFC71D.DLL
 0002:000004a0       __imp_?MessageBoxA@CWnd@@QAEHPBD0I@Z 0041e4a0     mfc71d:MFC71D.DLL
 0002:000004a4       __imp_?GetStyle@CWnd@@QBEKXZ 0041e4a4     mfc71d:MFC71D.DLL
 0002:000004a8       __imp_?Detach@CMenu@@QAEPAUHMENU__@@XZ 0041e4a8     mfc71d:MFC71D.DLL
 0002:000004ac       __imp_?SetMenu@CWnd@@QAEHPAVCMenu@@@Z 0041e4ac     mfc71d:MFC71D.DLL
 0002:000004b0       __imp_?InsertMenuA@CMenu@@QAEHIIIPBD@Z 0041e4b0     mfc71d:MFC71D.DLL
 0002:000004b4       __imp_?GetSafeHmenu@CMenu@@QBEPAUHMENU__@@XZ 0041e4b4     mfc71d:MFC71D.DLL
 0002:000004b8       __imp_?AppendMenuA@CMenu@@QAEHIIPBD@Z 0041e4b8     mfc71d:MFC71D.DLL
 0002:000004bc       __imp_?CreatePopupMenu@CMenu@@QAEHXZ 0041e4bc     mfc71d:MFC71D.DLL
 0002:000004c0       __imp_?Find@?$CStringT@DV?$StrTraitMFC_DLL@DV?$ChTraitsCRT@D@ATL@@@@@ATL@@QBEHPBDH@Z 0041e4c0     mfc71d:MFC71D.DLL
 0002:000004c4       __imp_?GetMenuStringA@CMenu@@QBEHIAAV?$CStringT@DV?$StrTraitMFC_DLL@DV?$ChTraitsCRT@D@ATL@@@@@ATL@@I@Z 0041e4c4     mfc71d:MFC71D.DLL
 0002:000004c8       __imp_?CheckMenuItem@CMenu@@QAEIII@Z 0041e4c8     mfc71d:MFC71D.DLL
 0002:000004cc       __imp_?GetMenuState@CMenu@@QBEIII@Z 0041e4cc     mfc71d:MFC71D.DLL
 0002:000004d0       __imp_?Attach@CMenu@@QAEHPAUHMENU__@@@Z 0041e4d0     mfc71d:MFC71D.DLL
 0002:000004d4       __imp_?SetWindowPos@CWnd@@QAEHPBV1@HHHHI@Z 0041e4d4     mfc71d:MFC71D.DLL
 0002:000004d8       __imp_?wndTopMost@CWnd@@2V1@B 0041e4d8     mfc71d:MFC71D.DLL
 0002:000004dc       __imp_?SetPos@CProgressCtrl@@QAEHH@Z 0041e4dc     mfc71d:MFC71D.DLL
 0002:000004e0       __imp_?EnableMenuItem@CMenu@@QAEIII@Z 0041e4e0     mfc71d:MFC71D.DLL
 0002:000004e4       __imp_??BCMenu@@QBEPAUHMENU__@@XZ 0041e4e4     mfc71d:MFC71D.DLL
 0002:000004e8       __imp_?OnSysCommand@CWnd@@IAEXIJ@Z 0041e4e8     mfc71d:MFC71D.DLL
 0002:000004ec       __imp_?MoveWindow@CWnd@@QAEXHHHHH@Z 0041e4ec     mfc71d:MFC71D.DLL
 0002:000004f0       __imp_?OnEnterIdle@CWnd@@IAEXIPAV1@@Z 0041e4f0     mfc71d:MFC71D.DLL
 0002:000004f4       __imp_?GetThisClass@CStatic@@SGPAUCRuntimeClass@@XZ 0041e4f4     mfc71d:MFC71D.DLL
 0002:000004f8       __imp_??0CFont@@QAE@XZ     0041e4f8     mfc71d:MFC71D.DLL
 0002:000004fc       __imp_?SetBkMode@CDC@@QAEHH@Z 0041e4fc     mfc71d:MFC71D.DLL
 0002:00000500       __imp_?CreateFontIndirectA@CFont@@QAEHPBUtagLOGFONTA@@@Z 0041e500     mfc71d:MFC71D.DLL
 0002:00000504       __imp_?GetObjectA@CGdiObject@@QBEHHPAX@Z 0041e504     mfc71d:MFC71D.DLL
 0002:00000508       __imp_?GetFont@CWnd@@QBEPAVCFont@@XZ 0041e508     mfc71d:MFC71D.DLL
 0002:0000050c       __imp_??BCFont@@QBEPAUHFONT__@@XZ 0041e50c     mfc71d:MFC71D.DLL
 0002:00000510       __imp_?Invalidate@CWnd@@QAEXH@Z 0041e510     mfc71d:MFC71D.DLL
 0002:00000514       __imp_??Y?$CStringT@DV?$StrTraitMFC_DLL@DV?$ChTraitsCRT@D@ATL@@@@@ATL@@QAEAAV01@PBD@Z 0041e514     mfc71d:MFC71D.DLL
 0002:00000518       __imp_?ReleaseBuffer@?$CSimpleStringT@D$00@ATL@@QAEXH@Z 0041e518     mfc71d:MFC71D.DLL
 0002:0000051c       __imp_?GetBuffer@?$CSimpleStringT@D$00@ATL@@QAEPADH@Z 0041e51c     mfc71d:MFC71D.DLL
 0002:00000520       __imp_?AfxThrowOleException@@YGXJ@Z 0041e520     mfc71d:MFC71D.DLL
 0002:00000524       __imp_?AfxThrowMemoryException@@YGXXZ 0041e524     mfc71d:MFC71D.DLL
 0002:00000528       __imp_?SetFocus@CWnd@@QAEPAV1@XZ 0041e528     mfc71d:MFC71D.DLL
 0002:0000052c       __imp_?GetWindowTextA@CWnd@@QBEHPADH@Z 0041e52c     mfc71d:MFC71D.DLL
 0002:00000530       __imp_?put_accValue@CWnd@@UAEJUtagVARIANT@@PA_W@Z 0041e530     mfc71d:MFC71D.DLL
 0002:00000534       __imp_?put_accName@CWnd@@UAEJUtagVARIANT@@PA_W@Z 0041e534     mfc71d:MFC71D.DLL
 0002:00000538       __imp_?get_accDefaultAction@CWnd@@UAEJUtagVARIANT@@PAPA_W@Z 0041e538     mfc71d:MFC71D.DLL
 0002:0000053c       __imp_?get_accKeyboardShortcut@CWnd@@UAEJUtagVARIANT@@PAPA_W@Z 0041e53c     mfc71d:MFC71D.DLL
 0002:00000540       __imp_?get_accHelpTopic@CWnd@@UAEJPAPA_WUtagVARIANT@@PAJ@Z 0041e540     mfc71d:MFC71D.DLL
 0002:00000544       __imp_?get_accHelp@CWnd@@UAEJUtagVARIANT@@PAPA_W@Z 0041e544     mfc71d:MFC71D.DLL
 0002:00000548       __imp_?get_accDescription@CWnd@@UAEJUtagVARIANT@@PAPA_W@Z 0041e548     mfc71d:MFC71D.DLL
 0002:0000054c       __imp_?get_accValue@CWnd@@UAEJUtagVARIANT@@PAPA_W@Z 0041e54c     mfc71d:MFC71D.DLL
 0002:00000550       __imp_?get_accName@CWnd@@UAEJUtagVARIANT@@PAPA_W@Z 0041e550     mfc71d:MFC71D.DLL
 0002:00000554       __imp_?CreateEx@CWnd@@UAEHKPBD0KHHHHPAUHWND__@@PAUHMENU__@@PAX@Z 0041e554     mfc71d:MFC71D.DLL
 0002:00000558       __imp_?DestroyWindow@CWnd@@UAEHXZ 0041e558     mfc71d:MFC71D.DLL
 0002:0000055c       __imp_?PreCreateWindow@CWnd@@UAEHAAUtagCREATESTRUCTA@@@Z 0041e55c     mfc71d:MFC71D.DLL
 0002:00000560       __imp_?CalcWindowRect@CWnd@@UAEXPAUtagRECT@@I@Z 0041e560     mfc71d:MFC71D.DLL
 0002:00000564       __imp_?OnToolHitTest@CWnd@@UBEHVCPoint@@PAUtagTOOLINFOA@@@Z 0041e564     mfc71d:MFC71D.DLL
 0002:00000568       __imp_?GetScrollBarCtrl@CWnd@@UBEPAVCScrollBar@@H@Z 0041e568     mfc71d:MFC71D.DLL
 0002:0000056c       __imp_?WinHelpA@CWnd@@UAEXKI@Z 0041e56c     mfc71d:MFC71D.DLL
 0002:00000570       __imp_?HtmlHelpA@CWnd@@UAEXKI@Z 0041e570     mfc71d:MFC71D.DLL
 0002:00000574       __imp_?WinHelpInternal@CWnd@@UAEXKI@Z 0041e574     mfc71d:MFC71D.DLL
 0002:00000578       __imp_?ContinueModal@CWnd@@UAEHXZ 0041e578     mfc71d:MFC71D.DLL
 0002:0000057c       __imp_?EndModalLoop@CWnd@@UAEXH@Z 0041e57c     mfc71d:MFC71D.DLL
 0002:00000580       __imp_?EnsureStdObj@CWnd@@UAEJXZ 0041e580     mfc71d:MFC71D.DLL
 0002:00000584       __imp_?get_accParent@CWnd@@UAEJPAPAUIDispatch@@@Z 0041e584     mfc71d:MFC71D.DLL
 0002:00000588       __imp_?get_accChildCount@CWnd@@UAEJPAJ@Z 0041e588     mfc71d:MFC71D.DLL
 0002:0000058c       __imp_?get_accChild@CWnd@@UAEJUtagVARIANT@@PAPAUIDispatch@@@Z 0041e58c     mfc71d:MFC71D.DLL
 0002:00000590       __imp_?get_accRole@CWnd@@UAEJUtagVARIANT@@PAU2@@Z 0041e590     mfc71d:MFC71D.DLL
 0002:00000594       __imp_?get_accState@CWnd@@UAEJUtagVARIANT@@PAU2@@Z 0041e594     mfc71d:MFC71D.DLL
 0002:00000598       __imp_?get_accFocus@CWnd@@UAEJPAUtagVARIANT@@@Z 0041e598     mfc71d:MFC71D.DLL
 0002:0000059c       __imp_?get_accSelection@CWnd@@UAEJPAUtagVARIANT@@@Z 0041e59c     mfc71d:MFC71D.DLL
 0002:000005a0       __imp_?accSelect@CWnd@@UAEJJUtagVARIANT@@@Z 0041e5a0     mfc71d:MFC71D.DLL
 0002:000005a4       __imp_?accLocation@CWnd@@UAEJPAJ000UtagVARIANT@@@Z 0041e5a4     mfc71d:MFC71D.DLL
 0002:000005a8       __imp_?accNavigate@CWnd@@UAEJJUtagVARIANT@@PAU2@@Z 0041e5a8     mfc71d:MFC71D.DLL
 0002:000005ac       __imp_?accHitTest@CWnd@@UAEJJJPAUtagVARIANT@@@Z 0041e5ac     mfc71d:MFC71D.DLL
 0002:000005b0       __imp_?accDoDefaultAction@CWnd@@UAEJUtagVARIANT@@@Z 0041e5b0     mfc71d:MFC71D.DLL
 0002:000005b4       __imp_?SetProxy@CWnd@@UAEJPAUIAccessibleProxy@@@Z 0041e5b4     mfc71d:MFC71D.DLL
 0002:000005b8       __imp_?CreateAccessibleProxy@CWnd@@UAEJIJPAJ@Z 0041e5b8     mfc71d:MFC71D.DLL
 0002:000005bc       __imp_?OnCommand@CWnd@@MAEHIJ@Z 0041e5bc     mfc71d:MFC71D.DLL
 0002:000005c0       __imp_?OnNotify@CWnd@@MAEHIJPAJ@Z 0041e5c0     mfc71d:MFC71D.DLL
 0002:000005c4       __imp_?GetSuperWndProcAddr@CWnd@@MAEPAP6GJPAUHWND__@@IIJ@ZXZ 0041e5c4     mfc71d:MFC71D.DLL
 0002:000005c8       __imp_?BeginModalState@CWnd@@UAEXXZ 0041e5c8     mfc71d:MFC71D.DLL
 0002:000005cc       __imp_?EndModalState@CWnd@@UAEXXZ 0041e5cc     mfc71d:MFC71D.DLL
 0002:000005d0       __imp_?PreTranslateMessage@CDialog@@UAEHPAUtagMSG@@@Z 0041e5d0     mfc71d:MFC71D.DLL
 0002:000005d4       __imp_?OnAmbientProperty@CWnd@@UAEHPAVCOleControlSite@@JPAUtagVARIANT@@@Z 0041e5d4     mfc71d:MFC71D.DLL
 0002:000005d8       __imp_?WindowProc@CWnd@@MAEJIIJ@Z 0041e5d8     mfc71d:MFC71D.DLL
 0002:000005dc       __imp_?OnWndMsg@CWnd@@MAEHIIJPAJ@Z 0041e5dc     mfc71d:MFC71D.DLL
 0002:000005e0       __imp_?DefWindowProcA@CWnd@@MAEJIIJ@Z 0041e5e0     mfc71d:MFC71D.DLL
 0002:000005e4       __imp_?PostNcDestroy@CWnd@@MAEXXZ 0041e5e4     mfc71d:MFC71D.DLL
 0002:000005e8       __imp_?OnChildNotify@CWnd@@MAEHIIJPAJ@Z 0041e5e8     mfc71d:MFC71D.DLL
 0002:000005ec       __imp_?CheckAutoCenter@CDialog@@UAEHXZ 0041e5ec     mfc71d:MFC71D.DLL
 0002:000005f0       __imp_?IsFrameWnd@CWnd@@UBEHXZ 0041e5f0     mfc71d:MFC71D.DLL
 0002:000005f4       __imp_?CreateControlContainer@CWnd@@MAEHPAPAVCOleControlContainer@@@Z 0041e5f4     mfc71d:MFC71D.DLL
 0002:000005f8       __imp_?CreateControlSite@CWnd@@MAEHPAVCOleControlContainer@@PAPAVCOleControlSite@@IABU_GUID@@@Z 0041e5f8     mfc71d:MFC71D.DLL
 0002:000005fc       __imp_?SetOccDialogInfo@CDialog@@MAEHPAU_AFX_OCC_DIALOG_INFO@@@Z 0041e5fc     mfc71d:MFC71D.DLL
 0002:00000600       __imp_?Create@CDialog@@UAEHIPAVCWnd@@@Z 0041e600     mfc71d:MFC71D.DLL
 0002:00000604       __imp_?Create@CDialog@@UAEHPBDPAVCWnd@@@Z 0041e604     mfc71d:MFC71D.DLL
 0002:00000608       __imp_?CreateIndirect@CDialog@@UAEHPAXPAVCWnd@@@Z 0041e608     mfc71d:MFC71D.DLL
 0002:0000060c       __imp_?CreateIndirect@CDialog@@UAEHPBUDLGTEMPLATE@@PAVCWnd@@PAX@Z 0041e60c     mfc71d:MFC71D.DLL
 0002:00000610       __imp_?DoModal@CDialog@@UAEHXZ 0041e610     mfc71d:MFC71D.DLL
 0002:00000614       __imp_?OnSetFont@CDialog@@UAEXPAVCFont@@@Z 0041e614     mfc71d:MFC71D.DLL
 0002:00000618       __imp_?OnOK@CDialog@@MAEXXZ 0041e618     mfc71d:MFC71D.DLL
 0002:0000061c       __imp_?OnCancel@CDialog@@MAEXXZ 0041e61c     mfc71d:MFC71D.DLL
 0002:00000620       __imp_?PreInitDialog@CDialog@@MAEXXZ 0041e620     mfc71d:MFC71D.DLL
 0002:00000624       __imp_?GetThisMessageMap@CDialog@@KGPBUAFX_MSGMAP@@XZ 0041e624     mfc71d:MFC71D.DLL
 0002:00000628       __imp_??2@YAPAXI@Z         0041e628     mfc71d:MFC71D.DLL
 0002:0000062c       __imp_?AfxWinMain@@YGHPAUHINSTANCE__@@0PADH@Z 0041e62c     mfc71d:MFC71D.DLL
 0002:00000630       __imp_?MoveTo@CDC@@QAE?AVCPoint@@UtagPOINT@@@Z 0041e630     mfc71d:MFC71D.DLL
 0002:00000634       __imp_?Compare@?$CStringT@DV?$StrTraitMFC_DLL@DV?$ChTraitsCRT@D@ATL@@@@@ATL@@QBEHPBD@Z 0041e634     mfc71d:MFC71D.DLL
 0002:00000638       \177MFC71D_NULL_THUNK_DATA 0041e638     mfc71d:MFC71D.DLL
 0002:0000063c       __imp___controlfp          0041e63c     msvcrtd:MSVCR71D.dll
 0002:00000640       __imp___CRT_RTC_INIT       0041e640     msvcrtd:MSVCR71D.dll
 0002:00000644       __imp____set_app_type      0041e644     msvcrtd:MSVCR71D.dll
 0002:00000648       __imp____p__fmode          0041e648     msvcrtd:MSVCR71D.dll
 0002:0000064c       __imp____p__commode        0041e64c     msvcrtd:MSVCR71D.dll
 0002:00000650       __imp___adjust_fdiv        0041e650     msvcrtd:MSVCR71D.dll
 0002:00000654       __imp____setusermatherr    0041e654     msvcrtd:MSVCR71D.dll
 0002:00000658       __imp___initterm           0041e658     msvcrtd:MSVCR71D.dll
 0002:0000065c       __imp____getmainargs       0041e65c     msvcrtd:MSVCR71D.dll
 0002:00000660       __imp___amsg_exit          0041e660     msvcrtd:MSVCR71D.dll
 0002:00000664       __imp___acmdln             0041e664     msvcrtd:MSVCR71D.dll
 0002:00000668       __imp___ismbblead          0041e668     msvcrtd:MSVCR71D.dll
 0002:0000066c       __imp__exit                0041e66c     msvcrtd:MSVCR71D.dll
 0002:00000670       __imp___cexit              0041e670     msvcrtd:MSVCR71D.dll
 0002:00000674       __imp___XcptFilter         0041e674     msvcrtd:MSVCR71D.dll
 0002:00000678       __imp___exit               0041e678     msvcrtd:MSVCR71D.dll
 0002:0000067c       __imp___c_exit             0041e67c     msvcrtd:MSVCR71D.dll
 0002:00000680       __imp___onexit             0041e680     msvcrtd:MSVCR71D.dll
 0002:00000684       __imp____dllonexit         0041e684     msvcrtd:MSVCR71D.dll
 0002:00000688       __imp_?terminate@@YAXXZ    0041e688     msvcrtd:MSVCR71D.dll
 0002:0000068c       __imp____security_error_handler 0041e68c     msvcrtd:MSVCR71D.dll
 0002:00000690       __imp___mbscmp             0041e690     msvcrtd:MSVCR71D.dll
 0002:00000694       __imp__strcat              0041e694     msvcrtd:MSVCR71D.dll
 0002:00000698       __imp___mbsnbcpy           0041e698     msvcrtd:MSVCR71D.dll
 0002:0000069c       __imp__malloc              0041e69c     msvcrtd:MSVCR71D.dll
 0002:000006a0       __imp__wcscpy              0041e6a0     msvcrtd:MSVCR71D.dll
 0002:000006a4       __imp___except_handler3    0041e6a4     msvcrtd:MSVCR71D.dll
 0002:000006a8       __imp___resetstkoflw       0041e6a8     msvcrtd:MSVCR71D.dll
 0002:000006ac       __imp___CrtDbgReport       0041e6ac     msvcrtd:MSVCR71D.dll
 0002:000006b0       __imp__fclose              0041e6b0     msvcrtd:MSVCR71D.dll
 0002:000006b4       __imp__fopen               0041e6b4     msvcrtd:MSVCR71D.dll
 0002:000006b8       __imp__time                0041e6b8     msvcrtd:MSVCR71D.dll
 0002:000006bc       __imp__asctime             0041e6bc     msvcrtd:MSVCR71D.dll
 0002:000006c0       __imp__fflush              0041e6c0     msvcrtd:MSVCR71D.dll
 0002:000006c4       __imp___ftime              0041e6c4     msvcrtd:MSVCR71D.dll
 0002:000006c8       __imp__localtime           0041e6c8     msvcrtd:MSVCR71D.dll
 0002:000006cc       __imp__fprintf             0041e6cc     msvcrtd:MSVCR71D.dll
 0002:000006d0       __imp__sprintf             0041e6d0     msvcrtd:MSVCR71D.dll
 0002:000006d4       __imp___CrtSetReportMode   0041e6d4     msvcrtd:MSVCR71D.dll
 0002:000006d8       __imp___CrtSetDbgFlag      0041e6d8     msvcrtd:MSVCR71D.dll
 0002:000006dc       __imp__strlen              0041e6dc     msvcrtd:MSVCR71D.dll
 0002:000006e0       __imp__strcpy              0041e6e0     msvcrtd:MSVCR71D.dll
 0002:000006e4       __imp__sscanf              0041e6e4     msvcrtd:MSVCR71D.dll
 0002:000006e8       __imp__memset              0041e6e8     msvcrtd:MSVCR71D.dll
 0002:000006ec       __imp__memcpy              0041e6ec     msvcrtd:MSVCR71D.dll
 0002:000006f0       __imp__memmove             0041e6f0     msvcrtd:MSVCR71D.dll
 0002:000006f4       __imp__strstr              0041e6f4     msvcrtd:MSVCR71D.dll
 0002:000006f8       __imp__free                0041e6f8     msvcrtd:MSVCR71D.dll
 0002:000006fc       __imp__strcmp              0041e6fc     msvcrtd:MSVCR71D.dll
 0002:00000700       __imp__ceil                0041e700     msvcrtd:MSVCR71D.dll
 0002:00000704       __imp____CxxFrameHandler   0041e704     msvcrtd:MSVCR71D.dll
 0002:00000708       __imp___setmbcp            0041e708     msvcrtd:MSVCR71D.dll
 0002:0000070c       __imp__itoa                0041e70c     msvcrtd:MSVCR71D.dll
 0002:0000070c       __imp___itoa               0041e70c     msvcrtd:MSVCR71D.dll
 0002:00000710       __imp__strdup              0041e710     msvcrtd:MSVCR71D.dll
 0002:00000710       __imp___strdup             0041e710     msvcrtd:MSVCR71D.dll
 0002:00000714       __imp__wcsncpy             0041e714     msvcrtd:MSVCR71D.dll
 0002:00000718       __imp_??1type_info@@UAE@XZ 0041e718     msvcrtd:MSVCR71D.dll
 0002:0000071c       __imp__wcslen              0041e71c     msvcrtd:MSVCR71D.dll
 0002:00000720       __imp__wcscmp              0041e720     msvcrtd:MSVCR71D.dll
 0002:00000724       __imp__memcmp              0041e724     msvcrtd:MSVCR71D.dll
 0002:00000728       __imp__realloc             0041e728     msvcrtd:MSVCR71D.dll
 0002:0000072c       __imp___snwprintf          0041e72c     msvcrtd:MSVCR71D.dll
 0002:00000730       __imp___vsnwprintf         0041e730     msvcrtd:MSVCR71D.dll
 0002:00000734       __imp___vsnprintf          0041e734     msvcrtd:MSVCR71D.dll
 0002:00000738       __imp___CxxThrowException@8 0041e738     msvcrtd:MSVCR71D.dll
 0002:0000073c       __imp___snprintf           0041e73c     msvcrtd:MSVCR71D.dll
 0002:00000740       \177MSVCR71D_NULL_THUNK_DATA 0041e740     msvcrtd:MSVCR71D.dll
 0002:00000744       __imp__SysFreeString@4     0041e744     oleaut32:OLEAUT32.dll
 0002:00000748       \177OLEAUT32_NULL_THUNK_DATA 0041e748     oleaut32:OLEAUT32.dll
 0002:0000074c       __imp__Shell_NotifyIconA@8 0041e74c     shell32:SHELL32.dll
 0002:00000750       __imp__ShellExecuteA@24    0041e750     shell32:SHELL32.dll
 0002:00000754       \177SHELL32_NULL_THUNK_DATA 0041e754     shell32:SHELL32.dll
 0002:00000758       __imp__LoadCursorA@8       0041e758     user32:USER32.dll
 0002:0000075c       __imp__SetCursor@4         0041e75c     user32:USER32.dll
 0002:00000760       __imp__CharLowerW@4        0041e760     user32:USER32.dll
 0002:00000764       __imp__CharLowerA@4        0041e764     user32:USER32.dll
 0002:00000768       __imp__CharUpperW@4        0041e768     user32:USER32.dll
 0002:0000076c       __imp__CharUpperA@4        0041e76c     user32:USER32.dll
 0002:00000770       __imp__UnregisterClassA@8  0041e770     user32:USER32.dll
 0002:00000774       __imp__SetRect@20          0041e774     user32:USER32.dll
 0002:00000778       __imp__SetRectEmpty@4      0041e778     user32:USER32.dll
 0002:0000077c       __imp__CopyIcon@4          0041e77c     user32:USER32.dll
 0002:00000780       __imp__EqualRect@8         0041e780     user32:USER32.dll
 0002:00000784       __imp__PeekMessageA@20     0041e784     user32:USER32.dll
 0002:00000788       __imp__IsWindowUnicode@4   0041e788     user32:USER32.dll
 0002:0000078c       __imp__GetMessageW@16      0041e78c     user32:USER32.dll
 0002:00000790       __imp__GetMessageA@16      0041e790     user32:USER32.dll
 0002:00000794       __imp__TranslateMessage@4  0041e794     user32:USER32.dll
 0002:00000798       __imp__DispatchMessageW@4  0041e798     user32:USER32.dll
 0002:0000079c       __imp__DispatchMessageA@4  0041e79c     user32:USER32.dll
 0002:000007a0       __imp__SubtractRect@12     0041e7a0     user32:USER32.dll
 0002:000007a4       __imp__UnionRect@12        0041e7a4     user32:USER32.dll
 0002:000007a8       __imp__MessageBeep@4       0041e7a8     user32:USER32.dll
 0002:000007ac       __imp__IsWindow@4          0041e7ac     user32:USER32.dll
 0002:000007b0       __imp__SetWindowLongA@12   0041e7b0     user32:USER32.dll
 0002:000007b4       __imp__MsgWaitForMultipleObjects@20 0041e7b4     user32:USER32.dll
 0002:000007b8       __imp__GetWindowInfo@8     0041e7b8     user32:USER32.dll
 0002:000007bc       __imp__IntersectRect@12    0041e7bc     user32:USER32.dll
 0002:000007c0       __imp__SystemParametersInfoA@16 0041e7c0     user32:USER32.dll
 0002:000007c4       __imp__GetDlgCtrlID@4      0041e7c4     user32:USER32.dll
 0002:000007c8       __imp__SetMenuDefaultItem@12 0041e7c8     user32:USER32.dll
 0002:000007cc       __imp__EnableMenuItem@12   0041e7cc     user32:USER32.dll
 0002:000007d0       __imp__GetCursorPos@4      0041e7d0     user32:USER32.dll
 0002:000007d4       __imp__SetForegroundWindow@4 0041e7d4     user32:USER32.dll
 0002:000007d8       __imp__TrackPopupMenu@28   0041e7d8     user32:USER32.dll
 0002:000007dc       __imp__DestroyIcon@4       0041e7dc     user32:USER32.dll
 0002:000007e0       __imp__GetSystemMetrics@4  0041e7e0     user32:USER32.dll
 0002:000007e4       __imp__MessageBoxA@16      0041e7e4     user32:USER32.dll
 0002:000007e8       __imp__PostMessageA@16     0041e7e8     user32:USER32.dll
 0002:000007ec       __imp__PtInRect@12         0041e7ec     user32:USER32.dll
 0002:000007f0       __imp__IsRectEmpty@4       0041e7f0     user32:USER32.dll
 0002:000007f4       __imp__RegisterWindowMessageA@4 0041e7f4     user32:USER32.dll
 0002:000007f8       __imp__OffsetRect@12       0041e7f8     user32:USER32.dll
 0002:000007fc       __imp__InflateRect@12      0041e7fc     user32:USER32.dll
 0002:00000800       __imp__CopyRect@8          0041e800     user32:USER32.dll
 0002:00000804       \177USER32_NULL_THUNK_DATA 0041e804     user32:USER32.dll
 0002:00000808       __imp__mixerGetLineInfoA@12 0041e808     winmm:WINMM.dll
 0002:0000080c       __imp__mixerGetControlDetailsA@12 0041e80c     winmm:WINMM.dll
 0002:00000810       __imp__mixerSetControlDetails@12 0041e810     winmm:WINMM.dll
 0002:00000814       __imp__waveInGetNumDevs@0  0041e814     winmm:WINMM.dll
 0002:00000818       __imp__mixerGetLineControlsA@12 0041e818     winmm:WINMM.dll
 0002:0000081c       __imp__mixerGetNumDevs@0   0041e81c     winmm:WINMM.dll
 0002:00000820       __imp__waveInClose@4       0041e820     winmm:WINMM.dll
 0002:00000824       __imp__mixerGetID@12       0041e824     winmm:WINMM.dll
 0002:00000828       __imp__waveInOpen@24       0041e828     winmm:WINMM.dll
 0002:0000082c       __imp__mixerGetDevCapsA@12 0041e82c     winmm:WINMM.dll
 0002:00000830       __imp__mixerOpen@20        0041e830     winmm:WINMM.dll
 0002:00000834       \177WINMM_NULL_THUNK_DATA  0041e834     winmm:WINMM.dll
 0002:00000838       __imp__SppAudioHdrLoggerStop@0 0041e838     Wave2Joystick:Wave2Joystick.dll
 0002:0000083c       __imp__SppAudioHdrLoggerStart@4 0041e83c     Wave2Joystick:Wave2Joystick.dll
 0002:00000840       __imp__SppAudioHdrLoggerGetStat@4 0041e840     Wave2Joystick:Wave2Joystick.dll
 0002:00000844       __imp__SppPulseLoggerStop@0 0041e844     Wave2Joystick:Wave2Joystick.dll
 0002:00000848       __imp__SppPulseLoggerStart@4 0041e848     Wave2Joystick:Wave2Joystick.dll
 0002:0000084c       __imp__SppPulseLoggerGetStat@4 0041e84c     Wave2Joystick:Wave2Joystick.dll
 0002:00000850       __imp__SppRawPulseLoggerStop@0 0041e850     Wave2Joystick:Wave2Joystick.dll
 0002:00000854       __imp__SppRawPulseLoggerStart@4 0041e854     Wave2Joystick:Wave2Joystick.dll
 0002:00000858       __imp__SppRawPulseLoggerGetStat@4 0041e858     Wave2Joystick:Wave2Joystick.dll
 0002:0000085c       __imp__SppStart@0          0041e85c     Wave2Joystick:Wave2Joystick.dll
 0002:00000860       __imp__SetFilterInterface@4 0041e860     Wave2Joystick:Wave2Joystick.dll
 0002:00000864       __imp__SppSetActiveAudioDevice@4 0041e864     Wave2Joystick:Wave2Joystick.dll
 0002:00000868       __imp__GetWave2JoystickObject@0 0041e868     Wave2Joystick:Wave2Joystick.dll
 0002:0000086c       __imp__SppSetModulation@4  0041e86c     Wave2Joystick:Wave2Joystick.dll
 0002:00000870       __imp__SppSetShift@4       0041e870     Wave2Joystick:Wave2Joystick.dll
 0002:00000874       __imp__SppStop@0           0041e874     Wave2Joystick:Wave2Joystick.dll
 0002:00000878       __imp__StopInterfaces@0    0041e878     Wave2Joystick:Wave2Joystick.dll
 0002:0000087c       __imp__StopPPJoyInterface@4 0041e87c     Wave2Joystick:Wave2Joystick.dll
 0002:00000880       __imp__StartPPJoyInterface@4 0041e880     Wave2Joystick:Wave2Joystick.dll
 0002:00000884       __imp__SppGetFilteredPos@4 0041e884     Wave2Joystick:Wave2Joystick.dll
 0002:00000888       __imp__SppGetAudioLevel@4  0041e888     Wave2Joystick:Wave2Joystick.dll
 0002:0000088c       __imp__TestPPJoyInterface@4 0041e88c     Wave2Joystick:Wave2Joystick.dll
 0002:00000890       __imp__SppSetAntiJitter@4  0041e890     Wave2Joystick:Wave2Joystick.dll
 0002:00000894       __imp__SppWaveLoggerGetStat@4 0041e894     Wave2Joystick:Wave2Joystick.dll
 0002:00000898       __imp__SppWaveLoggerStart@4 0041e898     Wave2Joystick:Wave2Joystick.dll
 0002:0000089c       __imp__SppWaveLoggerStop@0 0041e89c     Wave2Joystick:Wave2Joystick.dll
 0002:000008a0       __imp__SppWaveLoggerPlay@4 0041e8a0     Wave2Joystick:Wave2Joystick.dll
 0002:000008a4       \177Wave2Joystick_NULL_THUNK_DATA 0041e8a4     Wave2Joystick:Wave2Joystick.dll
 0002:000008a8       __imp__GetSaveFileNameA@4  0041e8a8     comdlg32:comdlg32.dll
 0002:000008ac       __imp__GetOpenFileNameA@4  0041e8ac     comdlg32:comdlg32.dll
 0002:000008b0       \177comdlg32_NULL_THUNK_DATA 0041e8b0     comdlg32:comdlg32.dll
 0002:000008b4       __imp__CoUnmarshalInterface@12 0041e8b4     ole32:ole32.dll
 0002:000008b8       __imp__CoMarshalInterface@24 0041e8b8     ole32:ole32.dll
 0002:000008bc       __imp__CoRegisterClassObject@20 0041e8bc     ole32:ole32.dll
 0002:000008c0       __imp__CoReleaseMarshalData@4 0041e8c0     ole32:ole32.dll
 0002:000008c4       __imp__CoRevokeClassObject@4 0041e8c4     ole32:ole32.dll
 0002:000008c8       __imp__CreateStreamOnHGlobal@12 0041e8c8     ole32:ole32.dll
 0002:000008cc       \177ole32_NULL_THUNK_DATA  0041e8cc     ole32:ole32.dll
 0002:00000adc       ?messageMap@CAboutDlg@@1UAFX_MSGMAP@@B 0041eadc     AboutDlg.obj
 0002:00000ae4       ?_messageEntries@CAboutDlg@@0QBUAFX_MSGMAP_ENTRY@@B 0041eae4     AboutDlg.obj
 0002:00000b00       ??_7CAboutDlg@@6B@         0041eb00     AboutDlg.obj
 0002:00002b00       __real@4059000000000000    00420b00     AudioInput.obj
 0002:00002b08       ??_7CAudioInput@@6B@       00420b08     AudioInput.obj
 0002:00002b0c       ??_7CMixerDevice@CAudioInput@@6B@ 00420b0c     AudioInput.obj
 0002:00002b10       ??_7CInputLine@CMixerDevice@CAudioInput@@6B@ 00420b10     AudioInput.obj
 0002:00002b14       ??_7CPhysicalDevice@CMixerDevice@CAudioInput@@6B@ 00420b14     AudioInput.obj
 0002:00002b18       ??_7?$CArray@PAVCInputLine@CMixerDevice@CAudioInput@@PAV123@@@6B@ 00420b18     AudioInput.obj
 0002:00002b30       ??_C@_0FB@ICGCDCIL@C?3?2Program?5Files?2Microsoft?5Visua@ 00420b30     AudioInput.obj
 0002:00002b84       ??_7?$CArray@PAVCPhysicalDevice@CMixerDevice@CAudioInput@@PAV123@@@6B@ 00420b84     AudioInput.obj
 0002:00002b98       ??_7?$CArray@PAVCMixerDevice@CAudioInput@@PAV12@@@6B@ 00420b98     AudioInput.obj
 0002:00002bac       ??_7?$CArray@UsMuteLine@CInputLine@CMixerDevice@CAudioInput@@U1234@@@6B@ 00420bac     AudioInput.obj
 0002:00003d9c       ?messageMap@CDefVolumeDlg@@1UAFX_MSGMAP@@B 00421d9c     DefVolumeDlg.obj
 0002:00003da8       ?_messageEntries@CDefVolumeDlg@@0QBUAFX_MSGMAP_ENTRY@@B 00421da8     DefVolumeDlg.obj
 0002:00003e38       ??_7CDefVolumeDlg@@6B@     00421e38     DefVolumeDlg.obj
 0002:00003f98       ?messageMap@CDynamicLED@@1UAFX_MSGMAP@@B 00421f98     DynamicLED.obj
 0002:00003fa0       ?_messageEntries@CDynamicLED@@0QBUAFX_MSGMAP_ENTRY@@B 00421fa0     DynamicLED.obj
 0002:00003fe8       ??_7CDynamicLED@@6B@       00421fe8     DynamicLED.obj
 0002:00004160       ??_7CLogAudioHdrs@@6B@     00422160     LogAudioHdrs.obj
 0002:00004328       ??_7CLogFmsConn@@6B@       00422328     LogFmsConn.obj
 0002:000044e0       ??_7CLogPulse@@6B@         004224e0     LogPulses.obj
 0002:000046a8       ??_7CLogRawPulse@@6B@      004226a8     LogRawPulse.obj
 0002:00005a7c       ?messageMap@CScanInputs@@1UAFX_MSGMAP@@B 00423a7c     ScanInputs.obj
 0002:00005a88       ?_messageEntries@CScanInputs@@0QBUAFX_MSGMAP_ENTRY@@B 00423a88     ScanInputs.obj
 0002:00005b00       ?classCScanInputs@CScanInputs@@2UCRuntimeClass@@B 00423b00     ScanInputs.obj
 0002:00005b20       ??_7CScanInputs@@6B@       00423b20     ScanInputs.obj
 0002:00006e54       ?messageMap@CSppConsoleApp@@1UAFX_MSGMAP@@B 00424e54     SppConsole.obj
 0002:00006e60       ?_messageEntries@CSppConsoleApp@@0QBUAFX_MSGMAP_ENTRY@@B 00424e60     SppConsole.obj
 0002:00006ea8       ??_7CSppConsoleApp@@6B@    00424ea8     SppConsole.obj
 0002:00008c0c       ?messageMap@CSppConsoleDlg@@1UAFX_MSGMAP@@B 00426c0c     SppConsoleDlg.obj
 0002:00008c18       ?_messageEntries@CSppConsoleDlg@@0QBUAFX_MSGMAP_ENTRY@@B 00426c18     SppConsoleDlg.obj
 0002:000090f8       ??_7CSppConsoleDlg@@6B@    004270f8     SppConsoleDlg.obj
 0002:00009258       ??_C@_0FC@FINOHAED@C?3?2Program?5Files?2Microsoft?5Visua@ 00427258     SppConsoleDlg.obj
 0002:00009318       ?messageMap@CStaticLink@@1UAFX_MSGMAP@@B 00427318     StatLink.obj
 0002:00009320       ?_messageEntries@CStaticLink@@0QBUAFX_MSGMAP_ENTRY@@B 00427320     StatLink.obj
 0002:00009380       ?classCStaticLink@CStaticLink@@2UCRuntimeClass@@B 00427380     StatLink.obj
 0002:000093a0       ??_7CStaticLink@@6B@       004273a0     StatLink.obj
 0002:00009648       ?cbNeverDelete@CRegParser@ATL@@1HB 00427648     StdAfx.obj
 0002:0000964c       ?rgszNeverDelete@CRegParser@ATL@@1QBQBDB 0042764c     StdAfx.obj
 0002:0000967c       ?MAX_TYPE@CRegParser@ATL@@1HB 0042767c     StdAfx.obj
 0002:00009680       ?MAX_VALUE@CRegParser@ATL@@1HB 00427680     StdAfx.obj
 0002:00009684       _CLSID_StdGlobalInterfaceTable 00427684     StdAfx.obj
 0002:00009694       _IID_IAxWinAmbientDispatchEx 00427694     StdAfx.obj
 0002:000096a4       _IID_IAxWinHostWindowLic   004276a4     StdAfx.obj
 0002:000096b4       _IID_IDocHostUIHandlerDispatch 004276b4     StdAfx.obj
 0002:000096c4       _IID_IInternalConnection   004276c4     StdAfx.obj
 0002:000096d4       _IID_IAxWinAmbientDispatch 004276d4     StdAfx.obj
 0002:000096e4       _IID_IAxWinHostWindow      004276e4     StdAfx.obj
 0002:000096f4       _IID_IRegistrar            004276f4     StdAfx.obj
 0002:00009704       _CLSID_Registrar           00427704     StdAfx.obj
 0002:00009714       _LIBID_ATLLib              00427714     StdAfx.obj
 0002:00009724       ?pmField@?$CVarTypeInfo@PATtagCY@@@ATL@@2QQtagVARIANT@@PATtagCY@@Q3@ 00427724     StdAfx.obj
 0002:00009728       ?VT@?$CVarTypeInfo@PATtagCY@@@ATL@@2GB 00427728     StdAfx.obj
 0002:0000972c       ?pmField@?$CVarTypeInfo@TtagCY@@@ATL@@2QQtagVARIANT@@TtagCY@@Q3@ 0042772c     StdAfx.obj
 0002:00009730       ?VT@?$CVarTypeInfo@TtagCY@@@ATL@@2GB 00427730     StdAfx.obj
 0002:00009734       ?pmField@?$CVarTypeInfo@PAPAUIDispatch@@@ATL@@2QQtagVARIANT@@PAPAUIDispatch@@Q3@ 00427734     StdAfx.obj
 0002:00009738       ?VT@?$CVarTypeInfo@PAPAUIDispatch@@@ATL@@2GB 00427738     StdAfx.obj
 0002:0000973c       ?pmField@?$CVarTypeInfo@PAUIDispatch@@@ATL@@2QQtagVARIANT@@PAUIDispatch@@Q3@ 0042773c     StdAfx.obj
 0002:00009740       ?VT@?$CVarTypeInfo@PAUIDispatch@@@ATL@@2GB 00427740     StdAfx.obj
 0002:00009744       ?pmField@?$CVarTypeInfo@PAPAUIUnknown@@@ATL@@2QQtagVARIANT@@PAPAUIUnknown@@Q3@ 00427744     StdAfx.obj
 0002:00009748       ?VT@?$CVarTypeInfo@PAPAUIUnknown@@@ATL@@2GB 00427748     StdAfx.obj
 0002:0000974c       ?pmField@?$CVarTypeInfo@PAUIUnknown@@@ATL@@2QQtagVARIANT@@PAUIUnknown@@Q3@ 0042774c     StdAfx.obj
 0002:00009750       ?VT@?$CVarTypeInfo@PAUIUnknown@@@ATL@@2GB 00427750     StdAfx.obj
 0002:00009754       ?pmField@?$CVarTypeInfo@PAPAG@ATL@@2QQtagVARIANT@@PAPAGQ3@ 00427754     StdAfx.obj
 0002:00009758       ?VT@?$CVarTypeInfo@PAPAG@ATL@@2GB 00427758     StdAfx.obj
 0002:0000975c       ?pmField@?$CVarTypeInfo@PAG@ATL@@2QQtagVARIANT@@PAGQ3@ 0042775c     StdAfx.obj
 0002:00009760       ?VT@?$CVarTypeInfo@PAG@ATL@@2GB 00427760     StdAfx.obj
 0002:00009764       ?VT@?$CVarTypeInfo@UtagVARIANT@@@ATL@@2GB 00427764     StdAfx.obj
 0002:00009768       ?pmField@?$CVarTypeInfo@PAN@ATL@@2QQtagVARIANT@@PANQ3@ 00427768     StdAfx.obj
 0002:0000976c       ?VT@?$CVarTypeInfo@PAN@ATL@@2GB 0042776c     StdAfx.obj
 0002:00009770       ?pmField@?$CVarTypeInfo@N@ATL@@2QQtagVARIANT@@NQ3@ 00427770     StdAfx.obj
 0002:00009774       ?VT@?$CVarTypeInfo@N@ATL@@2GB 00427774     StdAfx.obj
 0002:00009778       ?pmField@?$CVarTypeInfo@PAM@ATL@@2QQtagVARIANT@@PAMQ3@ 00427778     StdAfx.obj
 0002:0000977c       ?VT@?$CVarTypeInfo@PAM@ATL@@2GB 0042777c     StdAfx.obj
 0002:00009780       ?pmField@?$CVarTypeInfo@M@ATL@@2QQtagVARIANT@@MQ3@ 00427780     StdAfx.obj
 0002:00009784       ?VT@?$CVarTypeInfo@M@ATL@@2GB 00427784     StdAfx.obj
 0002:00009788       ?pmField@?$CVarTypeInfo@PA_K@ATL@@2QQtagVARIANT@@PA_KQ3@ 00427788     StdAfx.obj
 0002:0000978c       ?VT@?$CVarTypeInfo@PA_K@ATL@@2GB 0042778c     StdAfx.obj
 0002:00009790       ?pmField@?$CVarTypeInfo@_K@ATL@@2QQtagVARIANT@@_KQ3@ 00427790     StdAfx.obj
 0002:00009794       ?VT@?$CVarTypeInfo@_K@ATL@@2GB 00427794     StdAfx.obj
 0002:00009798       ?pmField@?$CVarTypeInfo@PA_J@ATL@@2QQtagVARIANT@@PA_JQ3@ 00427798     StdAfx.obj
 0002:0000979c       ?VT@?$CVarTypeInfo@PA_J@ATL@@2GB 0042779c     StdAfx.obj
 0002:000097a0       ?pmField@?$CVarTypeInfo@_J@ATL@@2QQtagVARIANT@@_JQ3@ 004277a0     StdAfx.obj
 0002:000097a4       ?VT@?$CVarTypeInfo@_J@ATL@@2GB 004277a4     StdAfx.obj
 0002:000097a8       ?pmField@?$CVarTypeInfo@PAK@ATL@@2QQtagVARIANT@@PAKQ3@ 004277a8     StdAfx.obj
 0002:000097ac       ?VT@?$CVarTypeInfo@PAK@ATL@@2GB 004277ac     StdAfx.obj
 0002:000097b0       ?pmField@?$CVarTypeInfo@K@ATL@@2QQtagVARIANT@@KQ3@ 004277b0     StdAfx.obj
 0002:000097b4       ?VT@?$CVarTypeInfo@K@ATL@@2GB 004277b4     StdAfx.obj
 0002:000097b8       ?pmField@?$CVarTypeInfo@PAJ@ATL@@2QQtagVARIANT@@PAJQ3@ 004277b8     StdAfx.obj
 0002:000097bc       ?VT@?$CVarTypeInfo@PAJ@ATL@@2GB 004277bc     StdAfx.obj
 0002:000097c0       ?pmField@?$CVarTypeInfo@J@ATL@@2QQtagVARIANT@@JQ3@ 004277c0     StdAfx.obj
 0002:000097c4       ?VT@?$CVarTypeInfo@J@ATL@@2GB 004277c4     StdAfx.obj
 0002:000097c8       ?pmField@?$CVarTypeInfo@PAI@ATL@@2QQtagVARIANT@@PAIQ3@ 004277c8     StdAfx.obj
 0002:000097cc       ?VT@?$CVarTypeInfo@PAI@ATL@@2GB 004277cc     StdAfx.obj
 0002:000097d0       ?pmField@?$CVarTypeInfo@I@ATL@@2QQtagVARIANT@@IQ3@ 004277d0     StdAfx.obj
 0002:000097d4       ?VT@?$CVarTypeInfo@I@ATL@@2GB 004277d4     StdAfx.obj
 0002:000097d8       ?pmField@?$CVarTypeInfo@PAH@ATL@@2QQtagVARIANT@@PAHQ3@ 004277d8     StdAfx.obj
 0002:000097dc       ?VT@?$CVarTypeInfo@PAH@ATL@@2GB 004277dc     StdAfx.obj
 0002:000097e0       ?pmField@?$CVarTypeInfo@H@ATL@@2QQtagVARIANT@@HQ3@ 004277e0     StdAfx.obj
 0002:000097e4       ?VT@?$CVarTypeInfo@H@ATL@@2GB 004277e4     StdAfx.obj
 0002:000097e8       ?pmField@?$CVarTypeInfo@G@ATL@@2QQtagVARIANT@@GQ3@ 004277e8     StdAfx.obj
 0002:000097ec       ?VT@?$CVarTypeInfo@G@ATL@@2GB 004277ec     StdAfx.obj
 0002:000097f0       ?pmField@?$CVarTypeInfo@PAF@ATL@@2QQtagVARIANT@@PAFQ3@ 004277f0     StdAfx.obj
 0002:000097f4       ?VT@?$CVarTypeInfo@PAF@ATL@@2GB 004277f4     StdAfx.obj
 0002:000097f8       ?pmField@?$CVarTypeInfo@F@ATL@@2QQtagVARIANT@@FQ3@ 004277f8     StdAfx.obj
 0002:000097fc       ?VT@?$CVarTypeInfo@F@ATL@@2GB 004277fc     StdAfx.obj
 0002:00009800       ?pmField@?$CVarTypeInfo@PAE@ATL@@2QQtagVARIANT@@PAEQ3@ 00427800     StdAfx.obj
 0002:00009804       ?VT@?$CVarTypeInfo@PAE@ATL@@2GB 00427804     StdAfx.obj
 0002:00009808       ?pmField@?$CVarTypeInfo@PAD@ATL@@2QQtagVARIANT@@PADQ3@ 00427808     StdAfx.obj
 0002:0000980c       ?VT@?$CVarTypeInfo@PAD@ATL@@2GB 0042780c     StdAfx.obj
 0002:00009810       ?pmField@?$CVarTypeInfo@E@ATL@@2QQtagVARIANT@@EQ3@ 00427810     StdAfx.obj
 0002:00009814       ?VT@?$CVarTypeInfo@E@ATL@@2GB 00427814     StdAfx.obj
 0002:00009818       ?pmField@?$CVarTypeInfo@D@ATL@@2QQtagVARIANT@@DQ3@ 00427818     StdAfx.obj
 0002:0000981c       ?VT@?$CVarTypeInfo@D@ATL@@2GB 0042781c     StdAfx.obj
 0002:00009820       ?szInvalidDateTimeSpan@ATL@@3QBDB 00427820     StdAfx.obj
 0002:00009824       ?szInvalidDateTime@ATL@@3QBDB 00427824     StdAfx.obj
 0002:00009828       ?Week@CFileTime@ATL@@2_KB  00427828     StdAfx.obj
 0002:00009830       ?Day@CFileTime@ATL@@2_KB   00427830     StdAfx.obj
 0002:00009838       ?Hour@CFileTime@ATL@@2_KB  00427838     StdAfx.obj
 0002:00009840       ?Minute@CFileTime@ATL@@2_KB 00427840     StdAfx.obj
 0002:00009848       ?Second@CFileTime@ATL@@2_KB 00427848     StdAfx.obj
 0002:00009850       ?Millisecond@CFileTime@ATL@@2_KB 00427850     StdAfx.obj
 0002:00009858       ?c_bIsMFCDLLTraits@?$_MFCDLLTraitsCheck@GV?$StrTraitMFC_DLL@GV?$ChTraitsCRT@G@ATL@@@@@_CSTRING_IMPL_@ATL@@2_NB 00427858     StdAfx.obj
 0002:00009859       ?c_bIsMFCDLLTraits@?$_MFCDLLTraitsCheck@DV?$StrTraitMFC_DLL@DV?$ChTraitsCRT@D@ATL@@@@@_CSTRING_IMPL_@ATL@@2_NB 00427859     StdAfx.obj
 0002:00009860       ??_C@_0FB@DNILBHEN@C?3?2Program?5Files?2Microsoft?5Visua@ 00427860     StdAfx.obj
 0002:000098b4       ??_C@_0BA@CLMJJCOM@nSize?5?$DO?$DN?5nSizeW?$AA@ 004278b4     StdAfx.obj
 0002:000098d4       ??_C@_01GBGANLPD@0?$AA@    004278d4     StdAfx.obj
 0002:000098d8       ??_C@_08DMHHBMMN@lpa?5?$CB?$DN?50?$AA@ 004278d8     StdAfx.obj
 0002:000098e8       ??_C@_0FA@OHHMODBN@C?3?2Program?5Files?2Microsoft?5Visua@ 004278e8     StdAfx.obj
 0002:00009938       ??_C@_08DIHJLFDJ@lpw?5?$CB?$DN?50?$AA@ 00427938     StdAfx.obj
 0002:00009948       ??_C@_0FC@CFIFHLCH@C?3?2Program?5Files?2Microsoft?5Visua@ 00427948     StdAfx.obj
 0002:0000999c       ??_C@_0BF@IAAKIJDJ@AtlThrow?3?5hr?5?$DN?50x?$CFx?6?$AA@ 0042799c     StdAfx.obj
 0002:000099b8       ??_C@_0FB@IAFJMJBP@C?3?2Program?5Files?2Microsoft?5Visua@ 004279b8     StdAfx.obj
 0002:00009a0c       ??_C@_08GPODJFIN@m_p?5?$DN?$DN?50?$AA@ 00427a0c     StdAfx.obj
 0002:00009a18       ??_C@_0FE@GCCFFNOH@C?3?2Program?5Files?2Microsoft?5Visua@ 00427a18     StdAfx.obj
 0002:00009a6c       ??_C@_0CA@CLKCNBMB@nIndex?5?$DO?$DN?50?5?$CG?$CG?5nIndex?5?$DM?5m_nSize?$AA@ 00427a6c     StdAfx.obj
 0002:00009afc       ?messageMap@CWaveRec@@1UAFX_MSGMAP@@B 00427afc     WaveRec.obj
 0002:00009b08       ?_messageEntries@CWaveRec@@0QBUAFX_MSGMAP_ENTRY@@B 00427b08     WaveRec.obj
 0002:00009bb0       ?classCWaveRec@CWaveRec@@2UCRuntimeClass@@B 00427bb0     WaveRec.obj
 0002:00009bd0       ??_7CWaveRec@@6B@          00427bd0     WaveRec.obj
 0002:00009de0       ??_C@_07KJLOKDKB@TypeLib?$AA@ 00427de0     mfcs71d:stdafx.obj
 0002:00009de8       ??_C@_08KEKAJNJI@Software?$AA@ 00427de8     mfcs71d:stdafx.obj
 0002:00009df4       ??_C@_06FDHFNJBJ@SYSTEM?$AA@ 00427df4     mfcs71d:stdafx.obj
 0002:00009dfc       ??_C@_08LOPHEHKG@SECURITY?$AA@ 00427dfc     mfcs71d:stdafx.obj
 0002:00009e08       ??_C@_03DDIMFGBA@SAM?$AA@  00427e08     mfcs71d:stdafx.obj
 0002:00009e0c       ??_C@_04IHBFOLAC@Mime?$AA@ 00427e0c     mfcs71d:stdafx.obj
 0002:00009e14       ??_C@_08PPIOJEA@Hardware?$AA@ 00427e14     mfcs71d:stdafx.obj
 0002:00009e20       ??_C@_09JKPGEJCH@Interface?$AA@ 00427e20     mfcs71d:stdafx.obj
 0002:00009e2c       ??_C@_08PICKODJL@FileType?$AA@ 00427e2c     mfcs71d:stdafx.obj
 0002:00009e38       ??_C@_0BF@HDDNNDFH@Component?5Categories?$AA@ 00427e38     mfcs71d:stdafx.obj
 0002:00009e50       ??_C@_05GIBEAPNE@CLSID?$AA@ 00427e50     mfcs71d:stdafx.obj
 0002:00009e58       ??_C@_05PDIKPLII@AppID?$AA@ 00427e58     mfcs71d:stdafx.obj
 0002:00009e80       ??_C@_06JBKGCNBB@Delete?$AA@ 00427e80     mfcs71d:stdafx.obj
 0002:00009e88       ??_C@_08KAAPDIAN@NoRemove?$AA@ 00427e88     mfcs71d:stdafx.obj
 0002:00009e94       ??_C@_0M@DBGDLGLL@ForceRemove?$AA@ 00427e94     mfcs71d:stdafx.obj
 0002:00009ea0       ??_C@_03LAIAPFCB@Val?$AA@  00427ea0     mfcs71d:stdafx.obj
 0002:00009ea4       ??_C@_01HMGJMAIH@B?$AA@    00427ea4     mfcs71d:stdafx.obj
 0002:00009ea8       ??_C@_01CKDDGHAB@D?$AA@    00427ea8     mfcs71d:stdafx.obj
 0002:00009eac       ??_C@_01PLPBNMEI@M?$AA@    00427eac     mfcs71d:stdafx.obj
 0002:00009eb0       ??_C@_01CPLAODJH@S?$AA@    00427eb0     mfcs71d:stdafx.obj
 0002:00009eb4       ?pmField@?$CVarTypeInfo@PAPA_W@ATL@@2QQtagVARIANT@@PAPA_WQ3@ 00427eb4     mfcs71d:stdafx.obj
 0002:00009eb8       ?VT@?$CVarTypeInfo@PAPA_W@ATL@@2GB 00427eb8     mfcs71d:stdafx.obj
 0002:00009ebc       ?pmField@?$CVarTypeInfo@PA_W@ATL@@2QQtagVARIANT@@PA_WQ3@ 00427ebc     mfcs71d:stdafx.obj
 0002:00009ec0       ?VT@?$CVarTypeInfo@PA_W@ATL@@2GB 00427ec0     mfcs71d:stdafx.obj
 0002:00009ec4       ??_C@_0BF@GPPHKJFN@Invalid?5DateTimeSpan?$AA@ 00427ec4     mfcs71d:stdafx.obj
 0002:00009edc       ??_C@_0BB@KEKMKJPM@Invalid?5DateTime?$AA@ 00427edc     mfcs71d:stdafx.obj
 0002:00009eed       ?c_bIsMFCDLLTraits@?$_MFCDLLTraitsCheck@_WV?$StrTraitMFC_DLL@_WV?$ChTraitsCRT@_W@ATL@@@@@_CSTRING_IMPL_@ATL@@2_NB 00427eed     mfcs71d:stdafx.obj
 0002:00009ef0       ??_C@_0DM@GAHMOPPO@f?3?2vs70builds?26030?2vc?2MFCATL?2shi@ 00427ef0     mfcs71d:stdafx.obj
 0002:00009f2c       ??_C@_0DL@HIJPFCOH@f?3?2vs70builds?26030?2vc?2MFCATL?2shi@ 00427f2c     mfcs71d:stdafx.obj
 0002:00009f68       ??_C@_0DN@HHLAGOOJ@f?3?2vs70builds?26030?2vc?2MFCATL?2shi@ 00427f68     mfcs71d:stdafx.obj
 0002:00009fa8       ??_C@_0DM@NNKODBKM@f?3?2vs70builds?26030?2vc?2MFCATL?2shi@ 00427fa8     mfcs71d:stdafx.obj
 0002:00009fe4       ??_C@_0DP@FKIBBBPJ@f?3?2vs70builds?26030?2vc?2MFCATL?2shi@ 00427fe4     mfcs71d:stdafx.obj
 0002:0000a094       ??_C@_0CK@CNLNOEPB@Local?5variable?5used?5before?5initi@ 00428094     msvcrtd:userapi.obj
 0002:0000a0c0       ??_C@_0BI@CIGMDCBH@Stack?5memory?5corruption?$AA@ 004280c0     msvcrtd:userapi.obj
 0002:0000a0d8       ??_C@_0CK@FEGOIOPB@Cast?5to?5smaller?5type?5causing?5los@ 004280d8     msvcrtd:userapi.obj
 0002:0000a104       ??_C@_0BJ@HEGAHDFO@Stack?5pointer?5corruption?$AA@ 00428104     msvcrtd:userapi.obj
 0002:0000a134       ??_C@_0BO@GNIAFIKK@Unknown?5Runtime?5Check?5Error?6?$AN?$AA@ 00428134     msvcrtd:error.obj
 0002:0000a154       ??_C@_0DG@HKJMLLLP@A?5local?5variable?5was?5used?5before@ 00428154     msvcrtd:error.obj
 0002:0000a18c       ??_C@_0BN@FFOINMNJ@Stack?5memory?5was?5corrupted?6?$AN?$AA@ 0042818c     msvcrtd:error.obj
 0002:0000a1b0       ??_C@_0BBN@GPMLNJCF@A?5cast?5to?5a?5smaller?5data?5type?5ha@ 004281b0     msvcrtd:error.obj
 0002:0000a2d0       ??_C@_0NN@NGPKDKPD@The?5value?5of?5ESP?5was?5not?5properl@ 004282d0     msvcrtd:error.obj
 0002:0000a3b0       ??_C@_0CA@IODNCDPG@Run?9Time?5Check?5Failure?5?$CD?$CFd?5?9?5?$CFs?$AA@ 004283b0     msvcrtd:error.obj
 0002:0000a3ec       ??_C@_0L@CJCNHJJG@?6?$ANModule?3?7?$AA@ 004283ec     msvcrtd:error.obj
 0002:0000a3f8       ??_C@_08GJEJCAJD@?6?$ANLine?3?7?$AA@ 004283f8     msvcrtd:error.obj
 0002:0000a404       ??_C@_0CI@INCLAPNB@Invalid?5pointer?5was?5assigned?5at?6@ 00428404     msvcrtd:error.obj
 0002:0000a42c       ??_C@_0BB@JEGFEAAM@?8?5was?5corrupted?4?$AA@ 0042842c     msvcrtd:error.obj
 0002:0000a440       ??_C@_0BM@FGFAMDLF@Stack?5around?5the?5variable?5?8?$AA@ 00428440     msvcrtd:error.obj
 0002:0000a45c       ??_C@_0DA@BEGFPCGG@A?5variable?5is?5being?5used?5without@ 0042845c     msvcrtd:error.obj
 0002:0000a48c       ??_C@_0CH@LOIIHGKM@?8?5is?5being?5used?5without?5being?5de@ 0042848c     msvcrtd:error.obj
 0002:0000a4b4       ??_C@_0P@HLKMHJCG@The?5variable?5?8?$AA@ 004284b4     msvcrtd:error.obj
 0002:0000a4c4       ??_C@_0BC@KNBMEBEO@IsDebuggerPresent?$AA@ 004284c4     msvcrtd:error.obj
 0002:0000a4d8       ??_C@_0N@HAOHNMDE@Kernel32?4dll?$AA@ 004284d8     msvcrtd:error.obj
 0002:0000a4e8       ??_C@_0M@HHEBEAAO@MSPDB71?4DLL?$AA@ 004284e8     msvcrtd:pdblkup.obj
 0002:0000a4f4       ??_C@_01KDCPPGHE@r?$AA@    004284f4     msvcrtd:pdblkup.obj
 0002:0000a4f6       ??_C@_00CNPNBAHC@?$AA@     004284f6     msvcrtd:pdblkup.obj
 0002:0000a4f8       ??_C@_08ONJBEOFA@PDBClose?$AA@ 004284f8     msvcrtd:pdblkup.obj
 0002:0000a504       ??_C@_08NINFAAFA@DBIClose?$AA@ 00428504     msvcrtd:pdblkup.obj
 0002:0000a510       ??_C@_08LIGPJJNA@ModClose?$AA@ 00428510     msvcrtd:pdblkup.obj
 0002:0000a51c       ??_C@_0O@IPLOKOKN@ModQueryLines?$AA@ 0042851c     msvcrtd:pdblkup.obj
 0002:0000a52c       ??_C@_0BE@GDNPNLGH@DBIQueryModFromAddr?$AA@ 0042852c     msvcrtd:pdblkup.obj
 0002:0000a540       ??_C@_0L@KPMOCKEL@PDBOpenDBI?$AA@ 00428540     msvcrtd:pdblkup.obj
 0002:0000a54c       ??_C@_0BB@PENKIMFE@PDBOpenValidate3?$AA@ 0042854c     msvcrtd:pdblkup.obj
 0002:0000a560       ??_C@_0N@KIGOLBLC@Module32Next?$AA@ 00428560     msvcrtd:pdblkup.obj
 0002:0000a570       ??_C@_0O@CNMFJJGO@Module32First?$AA@ 00428570     msvcrtd:pdblkup.obj
 0002:0000a580       ??_C@_0BF@OCLFCNKN@GetModuleInformation?$AA@ 00428580     msvcrtd:pdblkup.obj
 0002:0000a598       ??_C@_0BD@FIEJBLME@EnumProcessModules?$AA@ 00428598     msvcrtd:pdblkup.obj
 0002:0000a5ac       ??_C@_09EPMADGLA@PSAPI?4DLL?$AA@ 004285ac     msvcrtd:pdblkup.obj
 0002:0000a5b8       ??_C@_0BJ@JEFKDHMD@CreateToolhelp32Snapshot?$AA@ 004285b8     msvcrtd:pdblkup.obj
 0002:0000a5d4       ??_C@_0O@CHDGJGFP@ImageNtHeader?$AA@ 004285d4     msvcrtd:pdblkup.obj
 0002:0000a5e4       ??_C@_0N@KBGMOMJO@IMAGEHLP?4DLL?$AA@ 004285e4     msvcrtd:pdblkup.obj
 0002:0000a5f4       ??_C@_0N@NHGLKGEC@KERNEL32?4DLL?$AA@ 004285f4     msvcrtd:pdblkup.obj
 0002:0000a604       ??_C@_0BF@BMIHBHCA@EnvironmentDirectory?$AA@ 00428604     msvcrtd:pdblkup.obj
 0002:0000a61c       ??_C@_0CN@KGLAKABH@SOFTWARE?2Microsoft?2VisualStudio?2@ 0042861c     msvcrtd:pdblkup.obj
 0002:0000a64c       ??_C@_0M@HLOHPNFA@RegCloseKey?$AA@ 0042864c     msvcrtd:pdblkup.obj
 0002:0000a658       ??_C@_0BB@HHEIPGME@RegQueryValueExA?$AA@ 00428658     msvcrtd:pdblkup.obj
 0002:0000a66c       ??_C@_0O@DCOGKJGG@RegOpenKeyExA?$AA@ 0042866c     msvcrtd:pdblkup.obj
 0002:0000a67c       ??_C@_0N@JJPEKNFO@ADVAPI32?4DLL?$AA@ 0042867c     msvcrtd:pdblkup.obj
 0002:0000bda4       __GUID_b196b284_bab4_101a_b69c_00aa00341d07 00429da4     atlsd:atlfuncs.obj
 0002:0000bdb4       __GUID_00000000_0000_0000_c000_000000000046 00429db4     atlsd:atlfuncs.obj
 0002:0000bdc4       ??_C@_0DN@PDNBECNA@f?3?2vs70builds?26030?2vc?2MFCATL?2shi@ 00429dc4     atlsd:atlfuncs.obj
 0002:0000be04       ??_C@_04DBLLIIGB@p?$DN?$DN0?$AA@ 00429e04     atlsd:atlfuncs.obj
 0002:0000be0c       ??_C@_04CLHEGAEG@p?$CB?$DN0?$AA@ 00429e0c     atlsd:atlfuncs.obj
 0002:0000be24       ??_C@_05LAPONLG@false?$AA@ 00429e24     atlsd:atlfuncs.obj
 0002:0000be2c       ??_C@_0DL@DODOJDGB@f?3?2vs70builds?26030?2vc?2MFCATL?2shi@ 00429e2c     atlsd:atlfuncs.obj
 0002:0000be68       ??_C@_09HIEJFN@m_bLocked?$AA@ 00429e68     atlsd:atlfuncs.obj
 0002:0000be74       ??_C@_0L@MPGHMANA@?$CBm_bLocked?$AA@ 00429e74     atlsd:atlfuncs.obj
 0002:0000be80       _GUID_ATLVer30             00429e80     atlsd:atlbase.obj
 0002:0000be90       _GUID_ATLVer70             00429e90     atlsd:atlbase.obj
 0002:0000c608       ??_C@_0EO@EBKHEIBN@f?3?2vs70builds?26030?2vc?2mfcatl?2shi@ 0042a608     atlsd:Allocate.obj
 0002:0000c658       ??_C@_0N@HGPIKDNG@nCookie?5?$CB?$DN?50?$AA@ 0042a658     atlsd:Allocate.obj
 0002:0000c898       ??_C@_0N@OHCOOONG@appmodul?4cpp?$AA@ 0042a898     mfcs71d:appmodul.obj
 0002:0000c8ac       ??_7type_info@@6B@         0042a8ac     msvcrtd:ti_inst.obj
 0002:0000c8b0       __load_config_used         0042a8b0     msvcrtd:loadcfg.obj
 0002:0000c94c       ??_R1A@?0A@A@type_info@@8  0042a94c     msvcrtd:ti_inst.obj
 0002:0000c964       ??_R2type_info@@8          0042a964     msvcrtd:ti_inst.obj
 0002:0000c96c       ??_R3type_info@@8          0042a96c     msvcrtd:ti_inst.obj
 0002:0000c97c       ??_R4type_info@@6B@        0042a97c     msvcrtd:ti_inst.obj
 0002:0000c990       ___safe_se_handler_table   0042a990     <linker-defined>
 0002:0000cab4       ___rtc_iaa                 0042aab4     msvcrtd:initsect.obj
 0002:0000cabc       ___rtc_izz                 0042aabc     msvcrtd:initsect.obj
 0002:0000cac0       ___rtc_taa                 0042aac0     msvcrtd:initsect.obj
 0002:0000cac8       ___rtc_tzz                 0042aac8     msvcrtd:initsect.obj
 0002:0000d6f4       __CT??_R0?AVCAtlException@ATL@@@84 0042b6f4     atlsd:Externs.obj
 0002:0000d710       __CTA1?AVCAtlException@ATL@@ 0042b710     atlsd:Externs.obj
 0002:0000d718       __TI1?AVCAtlException@ATL@@ 0042b718     atlsd:Externs.obj
 0002:0000d728       ___pobjMapEntryFirst       0042b728     StdAfx.obj
 0002:0000d72c       ___pobjMapEntryLast        0042b72c     StdAfx.obj
 0002:0000d730       __IMPORT_DESCRIPTOR_WINMM  0042b730     winmm:WINMM.dll
 0002:0000d744       __IMPORT_DESCRIPTOR_Wave2Joystick 0042b744     Wave2Joystick:Wave2Joystick.dll
 0002:0000d758       __IMPORT_DESCRIPTOR_MFC71D 0042b758     mfc71d:MFC71D.DLL
 0002:0000d76c       __IMPORT_DESCRIPTOR_MSVCR71D 0042b76c     msvcrtd:MSVCR71D.dll
 0002:0000d780       __IMPORT_DESCRIPTOR_KERNEL32 0042b780     kernel32:KERNEL32.dll
 0002:0000d794       __IMPORT_DESCRIPTOR_USER32 0042b794     user32:USER32.dll
 0002:0000d7a8       __IMPORT_DESCRIPTOR_GDI32  0042b7a8     gdi32:GDI32.dll
 0002:0000d7bc       __IMPORT_DESCRIPTOR_comdlg32 0042b7bc     comdlg32:comdlg32.dll
 0002:0000d7d0       __IMPORT_DESCRIPTOR_ADVAPI32 0042b7d0     advapi32:ADVAPI32.dll
 0002:0000d7e4       __IMPORT_DESCRIPTOR_SHELL32 0042b7e4     shell32:SHELL32.dll
 0002:0000d7f8       __IMPORT_DESCRIPTOR_OLEAUT32 0042b7f8     oleaut32:OLEAUT32.dll
 0002:0000d80c       __IMPORT_DESCRIPTOR_ole32  0042b80c     ole32:ole32.dll
 0002:0000d820       __NULL_IMPORT_DESCRIPTOR   0042b820     winmm:WINMM.dll
 0003:00000000       ___xc_a                    0042d000     msvcrtd:cinitexe.obj
 0003:00000090       ___xc_z                    0042d090     msvcrtd:cinitexe.obj
 0003:00000094       ___xi_a                    0042d094     msvcrtd:cinitexe.obj
 0003:00000098       ___xi_z                    0042d098     msvcrtd:cinitexe.obj
 0003:000000a0       ?g_pfnGetThreadACP@ATL@@3P6GIXZA 0042d0a0     AboutDlg.obj
 0003:00000138       ?_strthunks@ATL@@3U_AtlStringThunks@1@A 0042d138     StdAfx.obj
 0003:00000fc0       ___security_cookie         0042dfc0     msvcrtd:seccook.obj
 0003:00000fd0       ___defaultmatherr          0042dfd0     msvcrtd:merr.obj
 0003:00000fe4       ?_RTC_ErrorLevels@@3PAHA   0042dfe4     msvcrtd:error.obj
 0003:0000100c       ?rcDefault@CWindow@ATL@@2UtagRECT@@A 0042e00c     atlsd:atltypes.obj
 0003:0000101c       ?g_pszUpdateEventName@@3PBDB 0042e01c     atlsd:Externs.obj
 0003:00001020       ?g_pszAllocFileMapName@@3PBDB 0042e020     atlsd:Externs.obj
 0003:00001024       ?g_pszKernelObjFmt@@3PBDB  0042e024     atlsd:Externs.obj
 0003:00001028       ??_R0?AVCAtlException@ATL@@@8 0042e028     atlsd:Externs.obj
 0003:00001048       ??_R0?AVtype_info@@@8      0042e048     msvcrtd:ti_inst.obj
 0003:00001068       ?theApp@@3VCSppConsoleApp@@A 0042e068     SppConsole.obj
 0003:00001134       ?WM_DESTROYMODELESS@CDHtmlDialog@@1IA 0042e134     StdAfx.obj
 0003:00001138       ?ATL_CREATE_OBJECT@CComApartment@ATL@@2IA 0042e138     StdAfx.obj
 0003:0000113c       ?_pModule@ATL@@3PAVCComModule@1@A 0042e13c     StdAfx.obj
 0003:00001140       ?m_libid@CAtlModule@ATL@@2U_GUID@@A 0042e140     StdAfx.obj
 0003:00001150       ?_pAtlModule@ATL@@3PAVCAtlModule@1@A 0042e150     StdAfx.obj
 0003:00001154       ?_pPerfUnRegFunc@ATL@@3P6AJXZA 0042e154     StdAfx.obj
 0003:00001158       ?_pPerfRegFunc@ATL@@3P6AJPAUHINSTANCE__@@@ZA 0042e158     StdAfx.obj
 0003:0000115c       ?s_pLog@CFixedStringMgr@ATL@@2PAVIFixedStringLog@2@A 0042e15c     StdAfx.obj
 0003:00001160       ?m_bInitFailed@CAtlBaseModule@ATL@@2_NA 0042e160     StdAfx.obj
 0003:00001164       ?s_pfnPrevHook@CNoUIAssertHook@ATL@@0P6AHHPADPAH@ZA 0042e164     StdAfx.obj
 0003:00001168       ?_pAtlAutoThreadModule@ATL@@3PAUIAtlAutoThreadModule@1@A 0042e168     StdAfx.obj
 0003:0000116c       ?s_bWin9x@?1??_AtlInstallStringThunk@ATL@@YAXPAPAXPAX1@Z@4_NA 0042e16c     StdAfx.obj
 0003:00001170       ??_B?1??_AtlInstallStringThunk@ATL@@YAXPAPAXPAX1@Z@51 0042e170     StdAfx.obj
 0003:00001174       ?_AtlWinModule@ATL@@3VCAtlWinModule@1@A 0042e174     StdAfx.obj
 0003:000011a8       ?ConvertChannels@@3P6APAU_JS_CHANNELS@@PAU1@HH@ZA 0042e1a8     FilterIf:FilterIf.obj
 0003:000011ac       __afxForceEXCLUDE          0042e1ac     mfcs71d:nolib.obj
 0003:000011b0       __afxForceSTDAFX           0042e1b0     mfcs71d:stdafx.obj
 0003:000011b8       __dowildcard               0042e1b8     msvcrtd:wildcard.obj
 0003:000011bc       __newmode                  0042e1bc     msvcrtd:_newmode.obj
 0003:000011c0       __commode                  0042e1c0     msvcrtd:xncommod.obj
 0003:000011c4       __fmode                    0042e1c4     msvcrtd:xtxtmode.obj
 0003:00001234       ?g_Allocator@@3VCAtlAllocator@@A 0042e234     atlsd:Externs.obj
 0003:00001268       ?s_trace@CTrace@ATL@@2V12@A 0042e268     atlsd:Externs.obj
 0003:00001270       ?atlTraceGeneral@ATL@@3VCTraceCategory@1@A 0042e270     atlsd:atltrace.obj
 0003:00001274       ?atlTraceCOM@ATL@@3VCTraceCategory@1@A 0042e274     atlsd:atltrace.obj
 0003:00001278       ?atlTraceQI@ATL@@3VCTraceCategory@1@A 0042e278     atlsd:atltrace.obj
 0003:0000127c       ?atlTraceRegistrar@ATL@@3VCTraceCategory@1@A 0042e27c     atlsd:atltrace.obj
 0003:00001280       ?atlTraceRefcount@ATL@@3VCTraceCategory@1@A 0042e280     atlsd:atltrace.obj
 0003:00001284       ?atlTraceWindowing@ATL@@3VCTraceCategory@1@A 0042e284     atlsd:atltrace.obj
 0003:00001288       ?atlTraceControls@ATL@@3VCTraceCategory@1@A 0042e288     atlsd:atltrace.obj
 0003:0000128c       ?atlTraceHosting@ATL@@3VCTraceCategory@1@A 0042e28c     atlsd:atltrace.obj
 0003:00001290       ?atlTraceDBClient@ATL@@3VCTraceCategory@1@A 0042e290     atlsd:atltrace.obj
 0003:00001294       ?atlTraceDBProvider@ATL@@3VCTraceCategory@1@A 0042e294     atlsd:atltrace.obj
 0003:00001298       ?atlTraceSnapin@ATL@@3VCTraceCategory@1@A 0042e298     atlsd:atltrace.obj
 0003:0000129c       ?atlTraceNotImpl@ATL@@3VCTraceCategory@1@A 0042e29c     atlsd:atltrace.obj
 0003:000012a0       ?atlTraceAllocation@ATL@@3VCTraceCategory@1@A 0042e2a0     atlsd:atltrace.obj
 0003:000012a4       ?atlTraceException@ATL@@3VCTraceCategory@1@A 0042e2a4     atlsd:atltrace.obj
 0003:000012a8       ?atlTraceTime@ATL@@3VCTraceCategory@1@A 0042e2a8     atlsd:atltrace.obj
 0003:000012ac       ?atlTraceCache@ATL@@3VCTraceCategory@1@A 0042e2ac     atlsd:atltrace.obj
 0003:000012b0       ?atlTraceStencil@ATL@@3VCTraceCategory@1@A 0042e2b0     atlsd:atltrace.obj
 0003:000012b4       ?atlTraceString@ATL@@3VCTraceCategory@1@A 0042e2b4     atlsd:atltrace.obj
 0003:000012b8       ?atlTraceMap@ATL@@3VCTraceCategory@1@A 0042e2b8     atlsd:atltrace.obj
 0003:000012bc       ?atlTraceUtil@ATL@@3VCTraceCategory@1@A 0042e2bc     atlsd:atltrace.obj
 0003:000012c0       ?atlTraceSecurity@ATL@@3VCTraceCategory@1@A 0042e2c0     atlsd:atltrace.obj
 0003:000012c4       ?atlTraceSync@ATL@@3VCTraceCategory@1@A 0042e2c4     atlsd:atltrace.obj
 0003:000012c8       ?atlTraceISAPI@ATL@@3VCTraceCategory@1@A 0042e2c8     atlsd:atltrace.obj
 0003:000012cc       ?atlTraceUser@ATL@@3VCTraceCategory@1@A 0042e2cc     atlsd:atltrace.obj
 0003:000012d0       ?atlTraceUser2@ATL@@3VCTraceCategory@1@A 0042e2d0     atlsd:atltrace.obj
 0003:000012d4       ?atlTraceUser3@ATL@@3VCTraceCategory@1@A 0042e2d4     atlsd:atltrace.obj
 0003:000012d8       ?atlTraceUser4@ATL@@3VCTraceCategory@1@A 0042e2d8     atlsd:atltrace.obj
 0003:000012dc       ?_AtlBaseModule@ATL@@3VCAtlBaseModule@1@A 0042e2dc     atlsd:atlbase.obj
 0003:00001318       ?_afxInitAppState@@3DA     0042e318     mfcs71d:appmodul.obj
 0003:0000131c       __adjust_fdiv              0042e31c     <common>
 0003:00001320       ___onexitend               0042e320     <common>
 0003:00001324       ___onexitbegin             0042e324     <common>

 entry point at        0001:00013e70

 Static symbols

 0001:fffff000       $L175073                   00400000 f   mfcs71d:stdafx.obj
 0001:fffff000       $L186512                   00400000 f   SppConsoleDlg.obj
 0001:fffff000       $L184376                   00400000 f   SppConsole.obj
 0001:fffff000       $L186347                   00400000 f   SppConsoleDlg.obj
 0001:fffff000       $L184366                   00400000 f   SppConsole.obj
 0001:fffff000       $L186155                   00400000 f   SppConsoleDlg.obj
 0001:fffff000       $L178746                   00400000 f   StatLink.obj
 0001:fffff008       $L186156                   00400008 f   SppConsoleDlg.obj
 0001:fffff008       $L178747                   00400008 f   StatLink.obj
 0001:fffff008       $L184377                   00400008 f   SppConsole.obj
 0001:fffff008       __ehhandler$??1CAboutDlg@@UAE@XZ 00400008 f   SppConsole.obj
 0001:fffff008       __ehhandler$??1CAtlWinModule@ATL@@QAE@XZ 00400008 f   mfcs71d:stdafx.obj
 0001:fffff008       $L186348                   00400008 f   SppConsoleDlg.obj
 0001:fffff009       __ehhandler$??HATL@@YA?AV?$CStringT@DV?$StrTraitMFC_DLL@DV?$ChTraitsCRT@D@ATL@@@@@0@ABV10@0@Z 00400009 f   SppConsoleDlg.obj
 0001:fffff013       $L186157                   00400013 f   SppConsoleDlg.obj
 0001:fffff013       $L186349                   00400013 f   SppConsoleDlg.obj
 0001:fffff014       __ehhandler$??1CStaticLink@@UAE@XZ 00400014 f   SppConsole.obj
 0001:fffff014       __ehhandler$??1CStaticLink@@UAE@XZ 00400014 f   StatLink.obj
 0001:fffff021       $L186158                   00400021 f   SppConsoleDlg.obj
 0001:fffff021       $L186350                   00400021 f   SppConsoleDlg.obj
 0001:fffff02f       __ehhandler$??1CSppConsoleDlg@@UAE@XZ 0040002f f   SppConsoleDlg.obj
 0001:fffff02f       $L186351                   0040002f f   SppConsoleDlg.obj
 0001:fffff03d       $L186352                   0040003d f   SppConsoleDlg.obj
 0001:fffff04b       $L186353                   0040004b f   SppConsoleDlg.obj
 0001:fffff059       $L186354                   00400059 f   SppConsoleDlg.obj
 0001:fffff067       __ehhandler$??1CDefVolumeDlg@@UAE@XZ 00400067 f   SppConsoleDlg.obj
 0001:00013a50       _report_failure            00414a50 f   msvcrtd:secchk.obj
 0001:00013ce0       ?ArrayUnwindFilter@@YAHPAU_EXCEPTION_POINTERS@@@Z 00414ce0 f   msvcrtd:ehvecdtr.obj
 0001:00014100       _check_managed_app         00415100 f   msvcrtd:crtexew.obj
 0001:000145d0       ?failwithmessage@@YAXPAXHHPBD@Z 004155d0 f   msvcrtd:error.obj
 0001:000146c0       ?DebuggerProbe@@YAHK@Z     004156c0 f   msvcrtd:error.obj
 0001:00014740       ?DebuggerRuntime@@YAHKHPAXPB_W@Z 00415740 f   msvcrtd:error.obj
 0001:000149d0       ?IntToString@@YAPADH@Z     004159d0 f   msvcrtd:error.obj
 0001:00014bc0       ?_IsDebuggerPresent@@YAHXZ 00415bc0 f   msvcrtd:error.obj
 0001:00014bf0       ?Initialize@@YAHXZ         00415bf0 f   msvcrtd:error.obj
 0001:00014c70       ?Win95IsDebuggerPresent@@YGHXZ 00415c70 f   msvcrtd:error.obj
 0001:00014c80       ?WinGetDebugContext@@YAPAXXZ 00415c80 f   msvcrtd:error.obj
 0001:00014c90       ?GetCurrentTib@@YAPAU_TIB@@XZ 00415c90 f   msvcrtd:error.obj
 0001:00015040       ?GetImageInfo@@YAPAUImageInfo@@K@Z 00416040 f   msvcrtd:pdblkup.obj
 0001:00015400       ?GetPdbDll@@YAPAUHINSTANCE__@@XZ 00416400 f   msvcrtd:pdblkup.obj
 0001:00016c20       ?Init@@YG_NXZ              00417c20 f   atlsd:Externs.obj
 0001:00017f50       ?ShouldTraceOutput@ATL@@YG_NKKIPAPBVCAtlTraceCategory@@PAP6AHHPBDH11ZZ@Z 00418f50 f   atlsd:AtlDebugAPI.obj
 0001:0001b830       $L179070                   0041c830 f   AboutDlg.obj
 0001:0001b838       __ehhandler$??0CAboutDlg@@QAE@PAVCWnd@@@Z 0041c838 f   AboutDlg.obj
 0001:0001b842       $L179112                   0041c842 f   AboutDlg.obj
 0001:0001b84b       $L179113                   0041c84b f   AboutDlg.obj
 0001:0001b854       __ehhandler$?OnInitDialog@CAboutDlg@@MAEHXZ 0041c854 f   AboutDlg.obj
 0001:0001b860       $L179083                   0041c860 f   AboutDlg.obj
 0001:0001b868       __ehhandler$??1CAboutDlg@@UAE@XZ 0041c868 f   AboutDlg.obj
 0001:0001b880       $L179093                   0041c880 f   AboutDlg.obj
 0001:0001b888       $L179094                   0041c888 f   AboutDlg.obj
 0001:0001b894       __ehhandler$??1CStaticLink@@UAE@XZ 0041c894 f   AboutDlg.obj
 0001:0001b8a0       $L185729                   0041c8a0 f   AudioInput.obj
 0001:0001b8ab       $L185730                   0041c8ab f   AudioInput.obj
 0001:0001b8c2       __ehhandler$??0CAudioInput@@QAE@PAUHWND__@@@Z 0041c8c2 f   AudioInput.obj
 0001:0001b8cc       $L185746                   0041c8cc f   AudioInput.obj
 0001:0001b8d7       __ehhandler$??1CAudioInput@@UAE@XZ 0041c8d7 f   AudioInput.obj
 0001:0001b8e1       $L185763                   0041c8e1 f   AudioInput.obj
 0001:0001b8ec       $L185764                   0041c8ec f   AudioInput.obj
 0001:0001b8f7       __ehhandler$??0CMixerDevice@CAudioInput@@QAE@XZ 0041c8f7 f   AudioInput.obj
 0001:0001b901       $L185782                   0041c901 f   AudioInput.obj
 0001:0001b90c       $L185783                   0041c90c f   AudioInput.obj
 0001:0001b917       __ehhandler$??1CMixerDevice@CAudioInput@@UAE@XZ 0041c917 f   AudioInput.obj
 0001:0001b921       $L185790                   0041c921 f   AudioInput.obj
 0001:0001b92c       $L185791                   0041c92c f   AudioInput.obj
 0001:0001b937       __ehhandler$??0CMixerDevice@CAudioInput@@QAE@HPAUHWND__@@@Z 0041c937 f   AudioInput.obj
 0001:0001b941       $L185804                   0041c941 f   AudioInput.obj
 0001:0001b95b       __ehhandler$?CreateInputLineArray@CMixerDevice@CAudioInput@@IAEHXZ 0041c95b f   AudioInput.obj
 0001:0001b965       $L185816                   0041c965 f   AudioInput.obj
 0001:0001b97f       __ehhandler$?CreatePhysicalDevArray@CMixerDevice@CAudioInput@@QAEHXZ 0041c97f f   AudioInput.obj
 0001:0001b989       $L185863                   0041c989 f   AudioInput.obj
 0001:0001b9a0       __ehhandler$?CreateArrayMuteCtrl@CInputLine@CMixerDevice@CAudioInput@@IAEPAV?$CArray@UsMuteLine@CInputLine@CMixerDevice@CAudioInput@@U1234@@@KPBD@Z 0041c9a0 f   AudioInput.obj
 0001:0001b9b0       $L185918                   0041c9b0 f   AudioInput.obj
 0001:0001b9b8       __ehhandler$??1?$CArray@PAVCInputLine@CMixerDevice@CAudioInput@@PAV123@@@UAE@XZ 0041c9b8 f   AudioInput.obj
 0001:0001b9d0       $L185958                   0041c9d0 f   AudioInput.obj
 0001:0001b9d8       __ehhandler$??1?$CArray@PAVCPhysicalDevice@CMixerDevice@CAudioInput@@PAV123@@@UAE@XZ 0041c9d8 f   AudioInput.obj
 0001:0001b9f0       $L185998                   0041c9f0 f   AudioInput.obj
 0001:0001b9f8       __ehhandler$??1?$CArray@PAVCMixerDevice@CAudioInput@@PAV12@@@UAE@XZ 0041c9f8 f   AudioInput.obj
 0001:0001ba10       $L186059                   0041ca10 f   AudioInput.obj
 0001:0001ba18       __ehhandler$??1?$CArray@UsMuteLine@CInputLine@CMixerDevice@CAudioInput@@U1234@@@UAE@XZ 0041ca18 f   AudioInput.obj
 0001:0001ba30       $L183743                   0041ca30 f   DefVolumeDlg.obj
 0001:0001ba38       $L183744                   0041ca38 f   DefVolumeDlg.obj
 0001:0001ba43       $L183745                   0041ca43 f   DefVolumeDlg.obj
 0001:0001ba51       $L183746                   0041ca51 f   DefVolumeDlg.obj
 0001:0001ba5f       $L183747                   0041ca5f f   DefVolumeDlg.obj
 0001:0001ba6d       $L183748                   0041ca6d f   DefVolumeDlg.obj
 0001:0001ba7b       $L183749                   0041ca7b f   DefVolumeDlg.obj
 0001:0001ba89       $L183750                   0041ca89 f   DefVolumeDlg.obj
 0001:0001ba97       __ehhandler$??0CDefVolumeDlg@@QAE@PAVCWnd@@@Z 0041ca97 f   DefVolumeDlg.obj
 0001:0001baa1       $L183783                   0041caa1 f   DefVolumeDlg.obj
 0001:0001baaa       __ehhandler$?OnHScroll@CDefVolumeDlg@@IAEXIIPAVCScrollBar@@@Z 0041caaa f   DefVolumeDlg.obj
 0001:0001bab4       $L183797                   0041cab4 f   DefVolumeDlg.obj
 0001:0001babd       __ehhandler$?ChangeEdt@CDefVolumeDlg@@IAEHHPAVCEdit@@PAVCSliderCtrl@@@Z 0041cabd f   DefVolumeDlg.obj
 0001:0001bad0       $L183763                   0041cad0 f   DefVolumeDlg.obj
 0001:0001bad8       $L183764                   0041cad8 f   DefVolumeDlg.obj
 0001:0001bae3       $L183765                   0041cae3 f   DefVolumeDlg.obj
 0001:0001baf1       $L183766                   0041caf1 f   DefVolumeDlg.obj
 0001:0001baff       $L183767                   0041caff f   DefVolumeDlg.obj
 0001:0001bb0d       $L183768                   0041cb0d f   DefVolumeDlg.obj
 0001:0001bb1b       $L183769                   0041cb1b f   DefVolumeDlg.obj
 0001:0001bb29       $L183770                   0041cb29 f   DefVolumeDlg.obj
 0001:0001bb37       __ehhandler$??1CDefVolumeDlg@@UAE@XZ 0041cb37 f   DefVolumeDlg.obj
 0001:0001bb50       $L178784                   0041cb50 f   DynamicLED.obj
 0001:0001bb58       $L178785                   0041cb58 f   DynamicLED.obj
 0001:0001bb63       $L178786                   0041cb63 f   DynamicLED.obj
 0001:0001bb6e       $L178787                   0041cb6e f   DynamicLED.obj
 0001:0001bb79       $L178788                   0041cb79 f   DynamicLED.obj
 0001:0001bb84       __ehhandler$??0CDynamicLED@@QAE@XZ 0041cb84 f   DynamicLED.obj
 0001:0001bb8e       $L178805                   0041cb8e f   DynamicLED.obj
 0001:0001bb96       $L178806                   0041cb96 f   DynamicLED.obj
 0001:0001bba1       $L178807                   0041cba1 f   DynamicLED.obj
 0001:0001bbac       $L178808                   0041cbac f   DynamicLED.obj
 0001:0001bbb7       $L178809                   0041cbb7 f   DynamicLED.obj
 0001:0001bbc2       $L178810                   0041cbc2 f   DynamicLED.obj
 0001:0001bbcd       __ehhandler$??1CDynamicLED@@UAE@XZ 0041cbcd f   DynamicLED.obj
 0001:0001bbd7       $L178822                   0041cbd7 f   DynamicLED.obj
 0001:0001bbe8       __ehhandler$?InitLed@CDynamicLED@@QAEXPAVCWnd@@II@Z 0041cbe8 f   DynamicLED.obj
 0001:0001bbf2       $L178829                   0041cbf2 f   DynamicLED.obj
 0001:0001bbfa       __ehhandler$?OnPaint@CDynamicLED@@IAEXXZ 0041cbfa f   DynamicLED.obj
 0001:0001bc04       $L178852                   0041cc04 f   DynamicLED.obj
 0001:0001bc0c       $L178853                   0041cc0c f   DynamicLED.obj
 0001:0001bc14       __ehhandler$?DrawRoundLed@CDynamicLED@@AAEXVCRect@@@Z 0041cc14 f   DynamicLED.obj
 0001:0001bc1e       $L178861                   0041cc1e f   DynamicLED.obj
 0001:0001bc26       __ehhandler$?DrawSquareLed@CDynamicLED@@AAEXVCRect@@@Z 0041cc26 f   DynamicLED.obj
 0001:0001bc30       $L184510                   0041cc30 f   ScanInputs.obj
 0001:0001bc38       $L184511                   0041cc38 f   ScanInputs.obj
 0001:0001bc43       __ehhandler$??0CScanInputs@@QAE@PAVCWnd@@@Z 0041cc43 f   ScanInputs.obj
 0001:0001bc4d       $L184523                   0041cc4d f   ScanInputs.obj
 0001:0001bc55       __ehhandler$??1CScanInputs@@UAE@XZ 0041cc55 f   ScanInputs.obj
 0001:0001bc5f       $L184536                   0041cc5f f   ScanInputs.obj
 0001:0001bc68       __ehhandler$?OnBnClickedSaveLog@CScanInputs@@QAEXXZ 0041cc68 f   ScanInputs.obj
 0001:0001bc72       $L184546                   0041cc72 f   ScanInputs.obj
 0001:0001bc7b       $L184547                   0041cc7b f   ScanInputs.obj
 0001:0001bc84       $L184548                   0041cc84 f   ScanInputs.obj
 0001:0001bc8d       $L184549                   0041cc8d f   ScanInputs.obj
 0001:0001bc96       $L184550                   0041cc96 f   ScanInputs.obj
 0001:0001bc9f       __ehhandler$?LogAudioLevel@CScanInputs@@IAEXHHH@Z 0041cc9f f   ScanInputs.obj
 0001:0001bca9       $L184558                   0041cca9 f   ScanInputs.obj
 0001:0001bcb2       $L184559                   0041ccb2 f   ScanInputs.obj
 0001:0001bcbb       $L184560                   0041ccbb f   ScanInputs.obj
 0001:0001bcc4       $L184561                   0041ccc4 f   ScanInputs.obj
 0001:0001bccd       __ehhandler$?LogModulation@CScanInputs@@IAEXHH@Z 0041cccd f   ScanInputs.obj
 0001:0001bce0       $L184569                   0041cce0 f   ScanInputs.obj
 0001:0001bce9       __ehhandler$??HATL@@YA?AV?$CStringT@DV?$StrTraitMFC_DLL@DV?$ChTraitsCRT@D@ATL@@@@@0@ABV10@0@Z 0041cce9 f   ScanInputs.obj
 0001:0001bd00       $L184336                   0041cd00 f   SppConsole.obj
 0001:0001bd0b       __ehhandler$?InitInstance@CSppConsoleApp@@UAEHXZ 0041cd0b f   SppConsole.obj
 0001:0001bd15       $L184360                   0041cd15 f   SppConsole.obj
 0001:0001bd20       __ehhandler$?OnAbout@CSppConsoleApp@@QAEXXZ 0041cd20 f   SppConsole.obj
 0001:0001bd30       $L184346                   0041cd30 f   SppConsole.obj
 0001:0001bd38       $L184347                   0041cd38 f   SppConsole.obj
 0001:0001bd43       $L184348                   0041cd43 f   SppConsole.obj
 0001:0001bd51       $L184349                   0041cd51 f   SppConsole.obj
 0001:0001bd5f       __ehhandler$??1CSppConsoleDlg@@UAE@XZ 0041cd5f f   SppConsole.obj
 0001:0001bd70       $L186139                   0041cd70 f   SppConsoleDlg.obj
 0001:0001bd78       $L186140                   0041cd78 f   SppConsoleDlg.obj
 0001:0001bd83       $L186141                   0041cd83 f   SppConsoleDlg.obj
 0001:0001bd91       $L186142                   0041cd91 f   SppConsoleDlg.obj
 0001:0001bd9f       $L186143                   0041cd9f f   SppConsoleDlg.obj
 0001:0001bdb7       __ehhandler$??0CSppConsoleDlg@@QAE@PAVCWnd@@@Z 0041cdb7 f   SppConsoleDlg.obj
 0001:0001bdc1       $L186183                   0041cdc1 f   SppConsoleDlg.obj
 0001:0001bddb       $L186184                   0041cddb f   SppConsoleDlg.obj
 0001:0001bdf2       __ehhandler$?OnInitDialog@CSppConsoleDlg@@MAEHXZ 0041cdf2 f   SppConsoleDlg.obj
 0001:0001bdfc       $L186209                   0041cdfc f   SppConsoleDlg.obj
 0001:0001be07       __ehhandler$?OnPaint@CSppConsoleDlg@@IAEXXZ 0041ce07 f   SppConsoleDlg.obj
 0001:0001be11       $L186218                   0041ce11 f   SppConsoleDlg.obj
 0001:0001be1a       __ehhandler$?OnSelchangeModType@CSppConsoleDlg@@IAEXXZ 0041ce1a f   SppConsoleDlg.obj
 0001:0001be24       $L186264                   0041ce24 f   SppConsoleDlg.obj
 0001:0001be2c       __ehhandler$?ShowTrayIconMenu@CSppConsoleDlg@@IAEXI@Z 0041ce2c f   SppConsoleDlg.obj
 0001:0001be36       $L186276                   0041ce36 f   SppConsoleDlg.obj
 0001:0001be3f       $L186277                   0041ce3f f   SppConsoleDlg.obj
 0001:0001be48       $L186278                   0041ce48 f   SppConsoleDlg.obj
 0001:0001be51       __ehhandler$?OnInterSppApps@CSppConsoleDlg@@IAEJIJ@Z 0041ce51 f   SppConsoleDlg.obj
 0001:0001be5b       $L186290                   0041ce5b f   SppConsoleDlg.obj
 0001:0001be64       $L186291                   0041ce64 f   SppConsoleDlg.obj
 0001:0001be6d       $L186292                   0041ce6d f   SppConsoleDlg.obj
 0001:0001be76       $L186293                   0041ce76 f   SppConsoleDlg.obj
 0001:0001be7f       $L186294                   0041ce7f f   SppConsoleDlg.obj
 0001:0001be88       $L186295                   0041ce88 f   SppConsoleDlg.obj
 0001:0001be91       $L186296                   0041ce91 f   SppConsoleDlg.obj
 0001:0001be9a       $L186297                   0041ce9a f   SppConsoleDlg.obj
 0001:0001bea3       $L186298                   0041cea3 f   SppConsoleDlg.obj
 0001:0001beac       __ehhandler$?GetStatusString@CSppConsoleDlg@@QAE?AV?$CStringT@DV?$StrTraitMFC_DLL@DV?$ChTraitsCRT@D@ATL@@@@@ATL@@XZ 0041ceac f   SppConsoleDlg.obj
 0001:0001beb6       $L186329                   0041ceb6 f   SppConsoleDlg.obj
 0001:0001bebf       __ehhandler$?OnSelSrc@CSppConsoleDlg@@IAEXXZ 0041cebf f   SppConsoleDlg.obj
 0001:0001bec9       $L186335                   0041cec9 f   SppConsoleDlg.obj
 0001:0001bed2       __ehhandler$?OnAudioDst@CSppConsoleDlg@@IAEXXZ 0041ced2 f   SppConsoleDlg.obj
 0001:0001bedc       $L186341                   0041cedc f   SppConsoleDlg.obj
 0001:0001bee7       __ehhandler$?OnAudioVol@CSppConsoleDlg@@IAEXXZ 0041cee7 f   SppConsoleDlg.obj
 0001:0001bef1       $L186364                   0041cef1 f   SppConsoleDlg.obj
 0001:0001befa       __ehhandler$?OnAudioPrint@CSppConsoleDlg@@IAEXXZ 0041cefa f   SppConsoleDlg.obj
 0001:0001bf04       $L186371                   0041cf04 f   SppConsoleDlg.obj
 0001:0001bf0d       __ehhandler$?OnPpjoyex@CSppConsoleDlg@@IAEXXZ 0041cf0d f   SppConsoleDlg.obj
 0001:0001bf17       $L186389                   0041cf17 f   SppConsoleDlg.obj
 0001:0001bf2e       $L186390                   0041cf2e f   SppConsoleDlg.obj
 0001:0001bf37       $L186391                   0041cf37 f   SppConsoleDlg.obj
 0001:0001bf4b       $L186392                   0041cf4b f   SppConsoleDlg.obj
 0001:0001bf54       __ehhandler$?UpdateFilterMenu@CSppConsoleDlg@@IAEXXZ 0041cf54 f   SppConsoleDlg.obj
 0001:0001bf5e       $L186398                   0041cf5e f   SppConsoleDlg.obj
 0001:0001bf67       $L186399                   0041cf67 f   SppConsoleDlg.obj
 0001:0001bf6f       __ehhandler$?OnFilterSelect@CSppConsoleDlg@@IAEXI@Z 0041cf6f f   SppConsoleDlg.obj
 0001:0001bf79       $L186408                   0041cf79 f   SppConsoleDlg.obj
 0001:0001bf82       __ehhandler$?OnTimer@CSppConsoleDlg@@QAEXI@Z 0041cf82 f   SppConsoleDlg.obj
 0001:0001bf8c       $L186420                   0041cf8c f   SppConsoleDlg.obj
 0001:0001bfa0       __ehhandler$?OnWaveRec@CSppConsoleDlg@@IAEXXZ 0041cfa0 f   SppConsoleDlg.obj
 0001:0001bfaa       $L186431                   0041cfaa f   SppConsoleDlg.obj
 0001:0001bfb2       $L186432                   0041cfb2 f   SppConsoleDlg.obj
 0001:0001bfbb       __ehhandler$?UpdateJitterStatus@CSppConsoleDlg@@IAEXHH@Z 0041cfbb f   SppConsoleDlg.obj
 0001:0001bfc5       $L186439                   0041cfc5 f   SppConsoleDlg.obj
 0001:0001bfd0       __ehhandler$?UpdateFmsMenuItem@CSppConsoleDlg@@IAEXH@Z 0041cfd0 f   SppConsoleDlg.obj
 0001:0001bfda       $L186447                   0041cfda f   SppConsoleDlg.obj
 0001:0001bfe6       __ehhandler$?OnRunFms@CSppConsoleDlg@@QAEXXZ 0041cfe6 f   SppConsoleDlg.obj
 0001:0001bff0       $L186459                   0041cff0 f   SppConsoleDlg.obj
 0001:0001c004       __ehhandler$?OnLogAudioHdrs@CSppConsoleDlg@@QAEXXZ 0041d004 f   SppConsoleDlg.obj
 0001:0001c00e       $L186470                   0041d00e f   SppConsoleDlg.obj
 0001:0001c022       __ehhandler$?OnLogPulse@CSppConsoleDlg@@QAEXXZ 0041d022 f   SppConsoleDlg.obj
 0001:0001c02c       $L186481                   0041d02c f   SppConsoleDlg.obj
 0001:0001c040       __ehhandler$?OnLogFmsConn@CSppConsoleDlg@@QAEXXZ 0041d040 f   SppConsoleDlg.obj
 0001:0001c04a       $L186496                   0041d04a f   SppConsoleDlg.obj
 0001:0001c05e       __ehhandler$?OnLogRawPulse@CSppConsoleDlg@@QAEXXZ 0041d05e f   SppConsoleDlg.obj
 0001:0001c068       $L186503                   0041d068 f   SppConsoleDlg.obj
 0001:0001c073       __ehhandler$?OnBnClickedScandlg@CSppConsoleDlg@@QAEXXZ 0041d073 f   SppConsoleDlg.obj
 0001:0001c080       $L178732                   0041d080 f   StatLink.obj
 0001:0001c088       $L178733                   0041d088 f   StatLink.obj
 0001:0001c094       __ehhandler$??0CStaticLink@@QAE@XZ 0041d094 f   StatLink.obj
 0001:0001c09e       $L178768                   0041d09e f   StatLink.obj
 0001:0001c0a7       __ehhandler$?SetDefaultCursor@CStaticLink@@QAEXXZ 0041d0a7 f   StatLink.obj
 0001:0001c0b1       $L178775                   0041d0b1 f   StatLink.obj
 0001:0001c0ba       $L178776                   0041d0ba f   StatLink.obj
 0001:0001c0c3       __ehhandler$?SetLink@CStaticLink@@QAE?AV?$CStringT@DV?$StrTraitMFC_DLL@DV?$ChTraitsCRT@D@ATL@@@@@ATL@@V23@@Z 0041d0c3 f   StatLink.obj
 0001:0001c0d0       $L179747                   0041d0d0 f   StdAfx.obj
 0001:0001c0db       $L179748                   0041d0db f   StdAfx.obj
 0001:0001c0e6       __ehhandler$?GetEnvironmentVariableWFake@ATL@@YGKPBGPAGK@Z 0041d0e6 f   StdAfx.obj
 0001:0001c0f0       $L179775                   0041d0f0 f   StdAfx.obj
 0001:0001c0f8       __ehhandler$?CompareStringWFake@ATL@@YGHKKPBGH0H@Z 0041d0f8 f   StdAfx.obj
 0001:0001c110       $L179820                   0041d110 f   StdAfx.obj
 0001:0001c11b       __ehhandler$?GetStringTypeExWFake@ATL@@YGHKKPBGHPAG@Z 0041d11b f   StdAfx.obj
 0001:0001c130       $L179918                   0041d130 f   StdAfx.obj
 0001:0001c138       __ehhandler$??1CAtlWinModule@ATL@@QAE@XZ 0041d138 f   StdAfx.obj
 0001:0001c150       $L183122                   0041d150 f   WaveRec.obj
 0001:0001c158       __ehhandler$??0CWaveRec@@QAE@PAVCWnd@@@Z 0041d158 f   WaveRec.obj
 0001:0001c162       $L183135                   0041d162 f   WaveRec.obj
 0001:0001c16a       __ehhandler$??1CWaveRec@@UAE@XZ 0041d16a f   WaveRec.obj
 0001:0001c174       $L183163                   0041d174 f   WaveRec.obj
 0001:0001c17d       __ehhandler$?OnInitDialog@CWaveRec@@UAEHXZ 0041d17d f   WaveRec.obj
 0001:0001c190       $L174902                   0041d190 f   mfcs71d:stdafx.obj
 0001:0001c19b       $L174903                   0041d19b f   mfcs71d:stdafx.obj
 0001:0001c1a6       __ehhandler$?GetEnvironmentVariableWFake@ATL@@YGKPB_WPA_WK@Z 0041d1a6 f   mfcs71d:stdafx.obj
 0001:0001c1b0       $L174930                   0041d1b0 f   mfcs71d:stdafx.obj
 0001:0001c1b8       __ehhandler$?CompareStringWFake@ATL@@YGHKKPB_WH0H@Z 0041d1b8 f   mfcs71d:stdafx.obj
 0001:0001c1d0       $L174975                   0041d1d0 f   mfcs71d:stdafx.obj
 0001:0001c1db       __ehhandler$?GetStringTypeExWFake@ATL@@YGHKKPB_WHPAG@Z 0041d1db f   mfcs71d:stdafx.obj
 0001:0001c1f0       _$E5                       0041d1f0 f   SppConsole.obj
 0001:0001c210       _$E1                       0041d210 f   StdAfx.obj
 0001:0001c230       _$E1                       0041d230 f   mfcs71d:stdafx.obj
 0001:0001c250       _$E1                       0041d250 f   atlsd:atltypes.obj
 0001:0001c270       _$E5                       0041d270 f   atlsd:Externs.obj
 0001:0001c290       _$E8                       0041d290 f   atlsd:Externs.obj
 0001:0001c2a0       _$E10                      0041d2a0 f   atlsd:Externs.obj
 0001:0001c2d0       _$E1                       0041d2d0 f   atlsd:Externs.obj
 0001:0001c2f0       _$E5                       0041d2f0 f   atlsd:atltrace.obj
 0001:0001c310       _$E7                       0041d310 f   atlsd:atltrace.obj
 0001:0001c330       _$E9                       0041d330 f   atlsd:atltrace.obj
 0001:0001c350       _$E11                      0041d350 f   atlsd:atltrace.obj
 0001:0001c370       _$E13                      0041d370 f   atlsd:atltrace.obj
 0001:0001c390       _$E15                      0041d390 f   atlsd:atltrace.obj
 0001:0001c3b0       _$E17                      0041d3b0 f   atlsd:atltrace.obj
 0001:0001c3d0       _$E19                      0041d3d0 f   atlsd:atltrace.obj
 0001:0001c3f0       _$E21                      0041d3f0 f   atlsd:atltrace.obj
 0001:0001c410       _$E23                      0041d410 f   atlsd:atltrace.obj
 0001:0001c430       _$E25                      0041d430 f   atlsd:atltrace.obj
 0001:0001c450       _$E27                      0041d450 f   atlsd:atltrace.obj
 0001:0001c470       _$E29                      0041d470 f   atlsd:atltrace.obj
 0001:0001c490       _$E31                      0041d490 f   atlsd:atltrace.obj
 0001:0001c4b0       _$E33                      0041d4b0 f   atlsd:atltrace.obj
 0001:0001c4d0       _$E35                      0041d4d0 f   atlsd:atltrace.obj
 0001:0001c4f0       _$E37                      0041d4f0 f   atlsd:atltrace.obj
 0001:0001c510       _$E39                      0041d510 f   atlsd:atltrace.obj
 0001:0001c530       _$E41                      0041d530 f   atlsd:atltrace.obj
 0001:0001c550       _$E43                      0041d550 f   atlsd:atltrace.obj
 0001:0001c570       _$E45                      0041d570 f   atlsd:atltrace.obj
 0001:0001c590       _$E47                      0041d590 f   atlsd:atltrace.obj
 0001:0001c5b0       _$E49                      0041d5b0 f   atlsd:atltrace.obj
 0001:0001c5d0       _$E51                      0041d5d0 f   atlsd:atltrace.obj
 0001:0001c5f0       _$E53                      0041d5f0 f   atlsd:atltrace.obj
 0001:0001c610       _$E55                      0041d610 f   atlsd:atltrace.obj
 0001:0001c630       _$E57                      0041d630 f   atlsd:atltrace.obj
 0001:0001c650       _$E1                       0041d650 f   atlsd:atltrace.obj
 0001:0001c670       _$E1                       0041d670 f   atlsd:AtlDebugAPI.obj
 0001:0001c690       _$E1                       0041d690 f   atlsd:atlfuncs.obj
 0001:0001c6b0       _$E5                       0041d6b0 f   atlsd:atlbase.obj
 0001:0001c6d0       _$E1                       0041d6d0 f   atlsd:atlbase.obj
 0001:0001c6f0       _$E1                       0041d6f0 f   atlsd:Allocate.obj
 0001:0001c710       _$E1                       0041d710 f   atlsd:AtlTraceModuleManager.obj
 0001:0001c730       _$E5                       0041d730 f   mfcs71d:appmodul.obj
 0001:0001c750       _$E6                       0041d750 f   SppConsole.obj
 0001:0001c760       _$E2                       0041d760 f   StdAfx.obj
 0001:0001c770       _$E2                       0041d770 f   mfcs71d:stdafx.obj
 0001:0001c780       _$E2                       0041d780 f   atlsd:atltypes.obj
 0001:0001c790       _$E6                       0041d790 f   atlsd:Externs.obj
 0001:0001c7a0       _$E11                      0041d7a0 f   atlsd:Externs.obj
 0001:0001c7b0       _$E2                       0041d7b0 f   atlsd:Externs.obj
 0001:0001c7c0       _$E2                       0041d7c0 f   atlsd:atltrace.obj
 0001:0001c7d0       _$E2                       0041d7d0 f   atlsd:AtlDebugAPI.obj
 0001:0001c7e0       _$E2                       0041d7e0 f   atlsd:atlfuncs.obj
 0001:0001c7f0       _$E6                       0041d7f0 f   atlsd:atlbase.obj
 0001:0001c800       _$E2                       0041d800 f   atlsd:atlbase.obj
 0001:0001c810       _$E2                       0041d810 f   atlsd:Allocate.obj
 0001:0001c820       _$E2                       0041d820 f   atlsd:AtlTraceModuleManager.obj

Line numbers for .\Debug\WaveRec.obj(c:\program files\microsoft visual studio .net 2003\vc7\include\tchar.h) segment .text

   843 0001:00010110

Line numbers for .\Debug\WaveRec.obj(c:\code\smartpropoplus\34x\sppconsole\waverec.cpp) segment .text

    17 0001:0000f460    17 0001:0000f470    17 0001:0000f480    23 0001:0000f490
    24 0001:0000f4fc    25 0001:0000f503    26 0001:0000f510    27 0001:0000f51d
    28 0001:0000f52a    29 0001:0000f537    32 0001:0000f560    33 0001:0000f58c
    36 0001:0000f5c0    37 0001:0000f5c7    38 0001:0000f5d3    39 0001:0000f5eb
    42 0001:0000f600    42 0001:0000f610    55 0001:0000f620    57 0001:0000f633
    60 0001:0000f645    63 0001:0000f653    64 0001:0000f669    65 0001:0000f677
    68 0001:0000f67f    70 0001:0000f68d    71 0001:0000f69b    76 0001:0000f6b1
    77 0001:0000f6bb    78 0001:0000f6c5    79 0001:0000f6d3    80 0001:0000f6e7
    81 0001:0000f703    84 0001:0000f71b    85 0001:0000f729    88 0001:0000f740
    92 0001:0000f753    93 0001:0000f771    94 0001:0000f78d    95 0001:0000f78f
    96 0001:0000f79c    99 0001:0000f7ae   102 0001:0000f7bc   104 0001:0000f7d5
   105 0001:0000f7df   107 0001:0000f7e9   108 0001:0000f7eb   111 0001:0000f7f5
   112 0001:0000f803   115 0001:0000f817   116 0001:0000f831   120 0001:0000f840
   121 0001:0000f849   122 0001:0000f859   123 0001:0000f85f   125 0001:0000f897
   126 0001:0000f8a7   127 0001:0000f8ad   129 0001:0000f8e5   130 0001:0000f8f5
   131 0001:0000f8fb   133 0001:0000f933   134 0001:0000f943   135 0001:0000f949
   136 0001:0000f981   139 0001:0000f990   140 0001:0000f9ae   141 0001:0000f9bc
   142 0001:0000f9cc   143 0001:0000f9e8   144 0001:0000fa06   145 0001:0000fa24
   148 0001:0000fa40   149 0001:0000fa47   150 0001:0000fa5f   153 0001:0000fa70
   154 0001:0000fa77   155 0001:0000fa8f   157 0001:0000faa0   158 0001:0000faa7
   159 0001:0000fabf   161 0001:0000fad0   162 0001:0000fad7   163 0001:0000faef
   166 0001:0000fb00   167 0001:0000fb07   169 0001:0000fb15   170 0001:0000fb2b
   173 0001:0000fb2d   175 0001:0000fb3b   176 0001:0000fb51   180 0001:0000fb53
   181 0001:0000fb61   185 0001:0000fb6f   186 0001:0000fb7a   190 0001:0000fb80
   192 0001:0000fb99   196 0001:0000fbab   199 0001:0000fbc9   200 0001:0000fbd8
   201 0001:0000fbe2   202 0001:0000fbec   203 0001:0000fbf8   204 0001:0000fc02
   205 0001:0000fc0c   206 0001:0000fc16   207 0001:0000fc20   208 0001:0000fc2a
   209 0001:0000fc3c   210 0001:0000fc46   211 0001:0000fc50   214 0001:0000fc5a
   215 0001:0000fc6d   216 0001:0000fc76   219 0001:0000fc78   220 0001:0000fc97
   221 0001:0000fca0   222 0001:0000fcbe   225 0001:0000fcd0   227 0001:0000fce9
   231 0001:0000fcfb   234 0001:0000fd19   235 0001:0000fd28   236 0001:0000fd32
   237 0001:0000fd3c   238 0001:0000fd48   239 0001:0000fd52   240 0001:0000fd5c
   241 0001:0000fd66   242 0001:0000fd70   243 0001:0000fd7a   244 0001:0000fd8c
   245 0001:0000fd96   246 0001:0000fda0   249 0001:0000fdaa   250 0001:0000fdbd
   251 0001:0000fdca   252 0001:0000fdcc   255 0001:0000fde0   261 0001:0000fdf3
   263 0001:0000fdf9   265 0001:0000fe05   266 0001:0000fe36   267 0001:0000fe4e
   268 0001:0000fe5a   270 0001:0000fe62   273 0001:0000fe64   275 0001:0000fe6a
   276 0001:0000fe76   277 0001:0000fe82   278 0001:0000fe8a   281 0001:0000fe8c
   282 0001:0000fe98   288 0001:0000feb0   290 0001:0000feb9   293 0001:0000fec7
   294 0001:0000fed7   295 0001:0000fee1   296 0001:0000fefd   299 0001:0000ff0b
   300 0001:0000ff1b   301 0001:0000ff21   302 0001:0000ff2b   304 0001:0000ff40
   305 0001:0000ff56   306 0001:0000ff64   307 0001:0000ff7a   312 0001:0000ff7f
   314 0001:0000ff98   315 0001:0000ffa2   317 0001:0000ffac   319 0001:0000ffae
   320 0001:0000ffb8   321 0001:0000ffc6   326 0001:0000ffdc   327 0001:0000ffea
   330 0001:0000fffe   333 0001:00010011   335 0001:00010028   339 0001:00010030
   340 0001:00010040   341 0001:00010060   342 0001:00010080   345 0001:000100a0
   346 0001:000100a9   347 0001:000100d4

Line numbers for .\Debug\StdAfx.obj(c:\program files\microsoft visual studio .net 2003\vc7\atlmfc\include\atlsimpcoll.h) segment .text

    97 0001:0000f190   100 0001:0000f330   101 0001:0000f337   102 0001:0000f33f
   135 0001:0000f350   136 0001:0000f357   137 0001:0000f35d   173 0001:0000f370
   174 0001:0000f379   176 0001:0000f381   177 0001:0000f39e   178 0001:0000f3a0
   179 0001:0000f3af   181 0001:0000f3b8   182 0001:0000f3c2   183 0001:0000f3cc
   194 0001:0000f3d0   195 0001:0000f3d7   196 0001:0000f40a   198 0001:0000f41b
   200 0001:0000f427   201 0001:0000f432

Line numbers for .\Debug\StdAfx.obj(c:\program files\microsoft visual studio .net 2003\vc7\atlmfc\include\atlcore.h) segment .text

   114 0001:0000f170   116 0001:0000f177   117 0001:0000f187   206 0001:0000f230
   207 0001:0000f237   208 0001:0000f23d   147 0001:0000f310   148 0001:0000f317
   149 0001:0000f321   150 0001:0000f323

Line numbers for .\Debug\StdAfx.obj(c:\program files\microsoft visual studio .net 2003\vc7\atlmfc\include\atlbase.h) segment .text

  2573 0001:0000f100  2575 0001:0000f111  2576 0001:0000f11a  2577 0001:0000f126
  2578 0001:0000f12c  2579 0001:0000f133  2582 0001:0000f1c0  2583 0001:0000f1e3
  2584 0001:0000f1eb  2587 0001:0000f210  2588 0001:0000f217  2589 0001:0000f22b
  6215 0001:0000f270  6216 0001:0000f274  6217 0001:0000f27a  6218 0001:0000f281
  6219 0001:0000f289  6220 0001:0000f28d  6221 0001:0000f295  6223 0001:0000f29c
  6224 0001:0000f2be  6225 0001:0000f2dd  6226 0001:0000f2e8  6227 0001:0000f2f3
  6228 0001:0000f2fc  6229 0001:0000f2fe  2602 0001:0001c210

Line numbers for .\Debug\StdAfx.obj(c:\program files\microsoft visual studio .net 2003\vc7\atlmfc\include\atlcomcli.h) segment .text

   628 0001:0000ed50   629 0001:0000ed57   630 0001:0000ed63

Line numbers for .\Debug\StdAfx.obj(c:\program files\microsoft visual studio .net 2003\vc7\atlmfc\include\atltrace.h) segment .text

   161 0001:0000e710   162 0001:0000e714   163 0001:0000e71a   164 0001:0000e744
   165 0001:0000e74b

Line numbers for .\Debug\StdAfx.obj(c:\program files\microsoft visual studio .net 2003\vc7\atlmfc\include\atlexcept.h) segment .text

    61 0001:0000e6b0    62 0001:0000e6b6    64 0001:0000e6e4    66 0001:0000e6ed
    70 0001:0000e6f2    75 0001:0000e6fb    80 0001:0000f050    81 0001:0000f056
    82 0001:0000f05f    83 0001:0000f08e    26 0001:0000f440    27 0001:0000f443
    28 0001:0000f455

Line numbers for .\Debug\StdAfx.obj(c:\program files\microsoft visual studio .net 2003\vc7\atlmfc\include\atlalloc.h) segment .text

   331 0001:0000e540   332 0001:0000e566   334 0001:0000e56a   336 0001:0000e571
   341 0001:0000e596   343 0001:0000e5b1   344 0001:0000e5b5   346 0001:0000e5c2
   347 0001:0000e5c5   373 0001:0000ed70   375 0001:0000ed90   376 0001:0000ed99
   377 0001:0000edab   378 0001:0000edb1   381 0001:0000edb5   382 0001:0000edbf
   384 0001:0000edc7   385 0001:0000edcf    30 0001:0000ede0    31 0001:0000ede3
    32 0001:0000edf0   387 0001:0000ee00   389 0001:0000ee09   391 0001:0000ee11
   392 0001:0000ee19   393 0001:0000ee25   394 0001:0000ee31   395 0001:0000ee33
    35 0001:0000ee40    36 0001:0000ee43    37 0001:0000ee50   216 0001:0000ee60
   217 0001:0000ee70   225 0001:0000ee80   226 0001:0000ee87   228 0001:0000ee94
   230 0001:0000ee9c   233 0001:0000eea0   234 0001:0000eea7   235 0001:0000eeac
   243 0001:0000eeb0   244 0001:0000eeb7   245 0001:0000eec3   276 0001:0000ef40
   277 0001:0000ef47   278 0001:0000ef71   280 0001:0000ef7a   282 0001:0000ef86
   284 0001:0000ef88   287 0001:0000ef93   288 0001:0000ef98   312 0001:0000efa0
   313 0001:0000efa7   314 0001:0000efb5   365 0001:0000f0a0   366 0001:0000f0a7
   367 0001:0000f0ad   292 0001:0000f0c0   293 0001:0000f0c9   294 0001:0000f0d8
   296 0001:0000f0de   298 0001:0000f0e8   299 0001:0000f0f0

Line numbers for .\Debug\StdAfx.obj(c:\program files\microsoft visual studio .net 2003\vc7\atlmfc\include\atlconv.h) segment .text

   157 0001:0000e310   158 0001:0000e313   159 0001:0000e319   573 0001:0000e5e0
   574 0001:0000e5e4   575 0001:0000e60c   576 0001:0000e634   577 0001:0000e640
   581 0001:0000e644   582 0001:0000e64a   583 0001:0000e66b   585 0001:0000e671
   586 0001:0000e697   588 0001:0000e69b   589 0001:0000e69e   554 0001:0000ead0
   555 0001:0000ead4   556 0001:0000eafc   557 0001:0000eb24   558 0001:0000eb30
   562 0001:0000eb34   563 0001:0000eb3c   564 0001:0000eb59   566 0001:0000eb5f
   567 0001:0000eb85   569 0001:0000eb89   570 0001:0000eb8c   419 0001:0000eed0
   420 0001:0000eee2   421 0001:0000eef4   428 0001:0000ef00   429 0001:0000ef07
   431 0001:0000ef14   433 0001:0000ef23   436 0001:0000ef30   437 0001:0000ef37
   438 0001:0000ef3c   442 0001:0000efc0   443 0001:0000efc9   445 0001:0000efcf
   446 0001:0000efd8   448 0001:0000efda   449 0001:0000efea   451 0001:0000eff2
   453 0001:0000effb   454 0001:0000f00d   456 0001:0000f015   460 0001:0000f01f
   462 0001:0000f045   464 0001:0000f04a

Line numbers for .\Debug\StdAfx.obj(c:\program files\microsoft visual studio .net 2003\vc7\atlmfc\include\cstringt.h) segment .text

   183 0001:0000e090   185 0001:0000e093   187 0001:0000e0ab   188 0001:0000e0bd
   115 0001:0000e0d0   119 0001:0000e0d4   124 0001:0000e103   125 0001:0000e10e
   126 0001:0000e114   132 0001:0000e116   135 0001:0000e11c   136 0001:0000e129
   159 0001:0000e130   162 0001:0000e158   163 0001:0000e16a   165 0001:0000e17d
   166 0001:0000e196   167 0001:0000e19c   169 0001:0000e1d2   170 0001:0000e1e3
   172 0001:0000e205   173 0001:0000e22b   174 0001:0000e231   175 0001:0000e269
   176 0001:0000e296   178 0001:0000e2bd   179 0001:0000e2f0   216 0001:0000e320
   217 0001:0000e323   219 0001:0000e33b   220 0001:0000e359   192 0001:0000e360
   193 0001:0000e37b   195 0001:0000e3a7   196 0001:0000e3ae   198 0001:0000e3b8
   199 0001:0000e440   200 0001:0000e446   203 0001:0000e450   204 0001:0000e457
   206 0001:0000e461   207 0001:0000e4e9   208 0001:0000e4ef   211 0001:0000e4f9
   212 0001:0000e52c   240 0001:0000e750   241 0001:0000e753   243 0001:0000e76b
   244 0001:0000e785   224 0001:0000e790   226 0001:0000e7b8   228 0001:0000e7ca
   229 0001:0000e7ee   230 0001:0000e800   232 0001:0000e82d   233 0001:0000e833
   235 0001:0000e83d   236 0001:0000e880   254 0001:0000e8a0   255 0001:0000e8a3
   257 0001:0000e8bb   258 0001:0000e8c9   247 0001:0000e8d0   248 0001:0000e8d6
   250 0001:0000e8f3   251 0001:0000e99f   273 0001:0000e9b0   274 0001:0000e9b3
   276 0001:0000e9cb   277 0001:0000e9d5   261 0001:0000e9e0   262 0001:0000e9e6
   265 0001:0000ea03   266 0001:0000ea58   267 0001:0000ea62   269 0001:0000eac3
   270 0001:0000eac6   292 0001:0000eba0   293 0001:0000eba3   295 0001:0000ebbb
   296 0001:0000ebc5   280 0001:0000ebd0   281 0001:0000ebd6   284 0001:0000ebf3
   285 0001:0000ec48   286 0001:0000ec52   288 0001:0000ecb3   289 0001:0000ecb6

Line numbers for .\Debug\StatLink.obj(c:\program files\microsoft visual studio .net 2003\vc7\atlmfc\include\atltrace.h) segment .text

   158 0001:0000dfd0   173 0001:0000e000   174 0001:0000e004   175 0001:0000e00a
   176 0001:0000e039   177 0001:0000e040   121 0001:0000e050   122 0001:0000e053
   123 0001:0000e07a   202 0001:0000e080   203 0001:0000e087   204 0001:0000e08c

Line numbers for .\Debug\StatLink.obj(c:\code\smartpropoplus\34x\sppconsole\statlink.cpp) segment .text

    19 0001:0000daf0    19 0001:0000db00    19 0001:0000db10    21 0001:0000db20
    21 0001:0000db30    30 0001:0000db40    31 0001:0000db8f    32 0001:0000db99
    33 0001:0000dba3    34 0001:0000dbad    35 0001:0000dbb7    41 0001:0000dbd0
    42 0001:0000dbe3    43 0001:0000dbfa    44 0001:0000dc05    47 0001:0000dc10
    50 0001:0000dc29    51 0001:0000dc30    54 0001:0000dc42    57 0001:0000dc51
    58 0001:0000dc66    59 0001:0000dc6a    63 0001:0000dc79    64 0001:0000dc8b
    65 0001:0000dcb7    67 0001:0000dcc1    70 0001:0000dcc9    72 0001:0000dcd4
    73 0001:0000dcd7    78 0001:0000dcf0    79 0001:0000dcf9    80 0001:0000dd0c
    85 0001:0000dd1b    86 0001:0000dd3e    87 0001:0000dd54    88 0001:0000dd5e
    89 0001:0000dd68    90 0001:0000dd6a    91 0001:0000dd72    94 0001:0000dd9c
    99 0001:0000dda0   100 0001:0000ddbe   103 0001:0000ddcb   104 0001:0000dddb
   105 0001:0000ddf5   107 0001:0000de00   109 0001:0000de0e   110 0001:0000de21
   111 0001:0000de27   112 0001:0000de36   113 0001:0000de3c   115 0001:0000de4c
   116 0001:0000de56   117 0001:0000de66   120 0001:0000de80   121 0001:0000de87
   123 0001:0000de90   124 0001:0000de9d   126 0001:0000dea4   127 0001:0000dea6
   133 0001:0000deb0   134 0001:0000dedc   136 0001:0000dee9   137 0001:0000def9
   139 0001:0000df32   140 0001:0000df42   141 0001:0000df52   142 0001:0000df88

Line numbers for .\Debug\SppConsoleDlg.obj(c:\program files\microsoft visual studio .net 2003\vc7\atlmfc\include\afxwin4.inl) segment .text

    52 0001:0000dab0

Line numbers for .\Debug\SppConsoleDlg.obj(c:\code\smartpropoplus\34x\sppconsole\sppconsoledlg.cpp) segment .text

    48 0001:00008d80    50 0001:00008eeb    53 0001:00008ef8    54 0001:00008f12
    57 0001:00008f30    58 0001:00008f37    60 0001:00008f43    61 0001:00008f58
    62 0001:00008f6f    63 0001:00008f87    64 0001:00008f9f    65 0001:00008fb6
    66 0001:00008fce    67 0001:00008fe6    68 0001:00008ffd    69 0001:00009015
    70 0001:0000902d    71 0001:00009044    72 0001:0000905c    74 0001:00009074
    75 0001:0000908b    80 0001:000090a0    80 0001:000090b0   142 0001:000090c0
   144 0001:000090c6   148 0001:000090cd   150 0001:000090da   154 0001:000090e0
   161 0001:000090f2   166 0001:000090f8   167 0001:00009108   169 0001:0000910f
   171 0001:00009119   173 0001:0000911f   177 0001:0000913e   179 0001:00009148
   180 0001:0000914b   184 0001:00009150   185 0001:00009153   186 0001:00009163
   187 0001:00009173   188 0001:00009183   189 0001:00009193   190 0001:000091a3
   193 0001:000091b0   194 0001:000091b3   195 0001:000091c3   196 0001:000091d3
   202 0001:000091e0   207 0001:0000920e   209 0001:0000921e   210 0001:0000922e
   212 0001:00009237   213 0001:00009252   217 0001:0000926b   220 0001:00009298
   221 0001:000092a9   223 0001:000092bf   224 0001:000092ca   227 0001:000092d1
   232 0001:000092ec   233 0001:00009306   234 0001:00009320   238 0001:0000932d
   240 0001:00009341   241 0001:00009363   242 0001:00009374   245 0001:00009389
   248 0001:00009394   251 0001:000093a4   254 0001:000093af   255 0001:00009425
   256 0001:00009430   257 0001:00009441   258 0001:0000944c   262 0001:00009464
   263 0001:000094cd   264 0001:000094e3   265 0001:000094ee   269 0001:000094fb
   270 0001:0000950c   272 0001:0000951b   273 0001:00009530   275 0001:00009549
   276 0001:00009554   277 0001:00009566   278 0001:0000957f   279 0001:00009597
   280 0001:0000959f   281 0001:000095aa   282 0001:000095b5   283 0001:000095c0
   285 0001:000095cb   286 0001:000095eb   291 0001:00009608   295 0001:00009613
   298 0001:0000962f   299 0001:00009647   300 0001:0000965d   303 0001:0000967a
   305 0001:00009685   307 0001:0000968a   310 0001:000096b0   312 0001:000096b9
   313 0001:000096cb   314 0001:000096dd   315 0001:000096fb   316 0001:0000972b
   317 0001:0000973a   318 0001:00009747   319 0001:0000974f   320 0001:0000978c
   321 0001:000097c6   322 0001:000097ce   329 0001:000097e0   330 0001:0000980e
   332 0001:00009821   334 0001:0000983a   337 0001:00009855   338 0001:00009863
   339 0001:00009871   340 0001:00009879   341 0001:00009888   342 0001:000098a1
   345 0001:000098ba   346 0001:000098da   347 0001:000098ec   349 0001:000098ee
   351 0001:000098f9   364 0001:00009920   365 0001:00009927   366 0001:00009930
   369 0001:00009940   370 0001:00009947   371 0001:0000994f   372 0001:00009957
   373 0001:0000995f   374 0001:00009970   377 0001:00009980   380 0001:0000999e
   381 0001:000099ae   382 0001:000099b4   385 0001:000099b9   386 0001:000099c9
   387 0001:000099d4   390 0001:000099e4   391 0001:000099eb   392 0001:000099fd
   393 0001:00009a16   396 0001:00009a28   397 0001:00009a2e   400 0001:00009a36
   401 0001:00009a4e   402 0001:00009a66   403 0001:00009a7e   404 0001:00009a96
   405 0001:00009aa4   408 0001:00009ad0   409 0001:00009ad7   410 0001:00009ae4
   413 0001:00009af0   415 0001:00009af9   416 0001:00009b09   417 0001:00009b0f
   420 0001:00009b11   423 0001:00009b1c   426 0001:00009b28   427 0001:00009b2e
   430 0001:00009b35   432 0001:00009b37   433 0001:00009b47   434 0001:00009b52
   435 0001:00009b58   436 0001:00009b60   437 0001:00009b62   441 0001:00009b6a
   442 0001:00009b70   443 0001:00009b7a   444 0001:00009b7c   446 0001:00009b86
   449 0001:00009b90   450 0001:00009b97   451 0001:00009ba4   453 0001:00009bb0
   454 0001:00009bb7   455 0001:00009bc1   456 0001:00009bc8   458 0001:00009bd0
   459 0001:00009bd7   460 0001:00009be4   463 0001:00009bf0   464 0001:00009bf7
   465 0001:00009c01   466 0001:00009c08   470 0001:00009c10   471 0001:00009c17
   472 0001:00009c25   473 0001:00009c27   474 0001:00009c31   476 0001:00009c3b
   480 0001:00009c40   481 0001:00009c47   482 0001:00009c55   483 0001:00009c57
   484 0001:00009c61   486 0001:00009c6b   491 0001:00009c70   494 0001:00009c79
   495 0001:00009c86   496 0001:00009c95   500 0001:00009c9d   501 0001:00009cad
   502 0001:00009cb3   506 0001:00009cbb   507 0001:00009cc2   509 0001:00009cd0
   510 0001:00009cf3   511 0001:00009cfc   514 0001:00009cfe   515 0001:00009d0d
   516 0001:00009d16   517 0001:00009d18   520 0001:00009d1f   523 0001:00009d2b
   524 0001:00009d3b   525 0001:00009d4a   526 0001:00009d5a   527 0001:00009d6a
   528 0001:00009d79   531 0001:00009d8e   532 0001:00009d97   533 0001:00009da1
   534 0001:00009da3   537 0001:00009dad   538 0001:00009db4   540 0001:00009dcc
   541 0001:00009dfa   542 0001:00009e26   543 0001:00009e3b   544 0001:00009e44
   546 0001:00009e49   547 0001:00009e58   549 0001:00009e65   550 0001:00009e68
   560 0001:00009e70   561 0001:00009e79   562 0001:00009e89   564 0001:00009e99
   566 0001:00009ea1   567 0001:00009eb3   568 0001:00009ec5   569 0001:00009ecf
   571 0001:00009ed9   573 0001:00009edb   574 0001:00009eed   575 0001:00009eff
   576 0001:00009f09   579 0001:00009f13   587 0001:00009f20   589 0001:00009f3a
   590 0001:00009f53   594 0001:00009f6c   595 0001:00009f7f   596 0001:00009f89
   599 0001:00009f97   600 0001:00009fa1   601 0001:00009fb0   602 0001:00009fb9
   603 0001:00009fc3   604 0001:00009fcd   606 0001:00009fd6   607 0001:00009fdc
   609 0001:00009ff0   610 0001:00009ff2   611 0001:00009ff9   613 0001:0000a00b
   616 0001:0000a010   617 0001:0000a01a   618 0001:0000a029   619 0001:0000a032
   620 0001:0000a03c   621 0001:0000a046   622 0001:0000a04f   623 0001:0000a056
   624 0001:0000a065   625 0001:0000a06f   626 0001:0000a073   627 0001:0000a07a
   629 0001:0000a08c   630 0001:0000a093   632 0001:0000a09a   633 0001:0000a0a0
   635 0001:0000a0b4   636 0001:0000a0b6   637 0001:0000a0bd   640 0001:0000a0cf
   641 0001:0000a0d5   644 0001:0000a0df   645 0001:0000a0e2   649 0001:0000a100
   653 0001:0000a119   654 0001:0000a123   655 0001:0000a132   657 0001:0000a13b
   659 0001:0000a14d   660 0001:0000a150   667 0001:0000a160   670 0001:0000a17a
   673 0001:0000a193   674 0001:0000a1a6   675 0001:0000a1b0   676 0001:0000a1be
   678 0001:0000a1c5   679 0001:0000a1cf   680 0001:0000a1de   681 0001:0000a1e7
   682 0001:0000a1f1   683 0001:0000a1f8   686 0001:0000a1ff   687 0001:0000a205
   688 0001:0000a216   689 0001:0000a218   692 0001:0000a22a   693 0001:0000a230
   694 0001:0000a237   695 0001:0000a239   697 0001:0000a24d   699 0001:0000a25f
   701 0001:0000a262   707 0001:0000a280   711 0001:0000a299   712 0001:0000a2a3
   713 0001:0000a2b2   714 0001:0000a2bb   715 0001:0000a2c5   716 0001:0000a2cb
   718 0001:0000a2df   719 0001:0000a2e1   721 0001:0000a2e8   723 0001:0000a2fa
   724 0001:0000a2fd   728 0001:0000a310   729 0001:0000a317   730 0001:0000a323
   737 0001:0000a330   741 0001:0000a339   742 0001:0000a33f   745 0001:0000a345
   746 0001:0000a357   749 0001:0000a35f   750 0001:0000a36a   753 0001:0000a377
   754 0001:0000a37c   757 0001:0000a390   758 0001:0000a397   759 0001:0000a399
   766 0001:0000a3a0   770 0001:0000a3a9   772 0001:0000a3b0   773 0001:0000a3bf
   775 0001:0000a3d2   777 0001:0000a3da   778 0001:0000a3ea   779 0001:0000a3f0
   780 0001:0000a3f7   781 0001:0000a403   783 0001:0000a40f   784 0001:0000a411
   791 0001:0000a420   793 0001:0000a43e   794 0001:0000a44d   795 0001:0000a45d
   796 0001:0000a471   797 0001:0000a47e   798 0001:0000a484   801 0001:0000a498
   805 0001:0000a4a9   807 0001:0000a4b5   809 0001:0000a4c1   810 0001:0000a4cf
   811 0001:0000a4e3   812 0001:0000a4e5   814 0001:0000a4f9   815 0001:0000a508
   822 0001:0000a519   823 0001:0000a521   824 0001:0000a52b   826 0001:0000a538
   828 0001:0000a55a   836 0001:0000a580   837 0001:0000a587   838 0001:0000a595
   840 0001:0000a5a4   841 0001:0000a5b0   850 0001:0000a5c0   851 0001:0000a5c7
   852 0001:0000a5d5   854 0001:0000a5dd   855 0001:0000a5df   865 0001:0000a5f0
   866 0001:0000a60e   869 0001:0000a61b   871 0001:0000a628   872 0001:0000a636
   873 0001:0000a644   874 0001:0000a646   876 0001:0000a65d   879 0001:0000a66f
   882 0001:0000a679   883 0001:0000a68f   884 0001:0000a6a5   885 0001:0000a6be
   888 0001:0000a6dc   890 0001:0000a6e6   893 0001:0000a6f0   896 0001:0000a6fd
   898 0001:0000a712   899 0001:0000a720   900 0001:0000a753   901 0001:0000a76f
   904 0001:0000a781   907 0001:0000a78b   908 0001:0000a7a1   909 0001:0000a7b7
   910 0001:0000a7d0   913 0001:0000a7ea   915 0001:0000a7f4   919 0001:0000a813
   921 0001:0000a81c   922 0001:0000a828   926 0001:0000a832   928 0001:0000a83b
   929 0001:0000a847   932 0001:0000a851   934 0001:0000a85e   936 0001:0000a86e
   937 0001:0000a879   941 0001:0000a882   942 0001:0000a88d   944 0001:0000a8ac
   946 0001:0000a8b4   948 0001:0000a8bf   949 0001:0000a8d5   950 0001:0000a8d9
   951 0001:0000a8de   953 0001:0000a8ec   954 0001:0000a902   955 0001:0000a906
   956 0001:0000a90b   958 0001:0000a919   959 0001:0000a92b   960 0001:0000a92f
   961 0001:0000a931   963 0001:0000a940   964 0001:0000a956   965 0001:0000a95a
   966 0001:0000a95c   968 0001:0000a96b   969 0001:0000a981   970 0001:0000a985
   972 0001:0000a987   973 0001:0000a9a2   976 0001:0000a9a6   978 0001:0000a9af
   979 0001:0000a9bf   981 0001:0000a9d1   982 0001:0000a9da   983 0001:0000a9f3
   987 0001:0000aa0f   991 0001:0000aa18   992 0001:0000aa1e   993 0001:0000aa28
   995 0001:0000aa2a   996 0001:0000aa34  1001 0001:0000aa3c  1002 0001:0000aa3e
  1010 0001:0000aa50  1011 0001:0000aa57  1013 0001:0000aa63  1014 0001:0000aa73
  1016 0001:0000aa83  1018 0001:0000aa8f  1019 0001:0000aa94  1022 0001:0000aa99
  1026 0001:0000aaa1  1029 0001:0000aab0  1030 0001:0000aab7  1031 0001:0000aac5
  1035 0001:0000aad0  1037 0001:0000aad7  1039 0001:0000aaf2  1040 0001:0000aafe
  1042 0001:0000ab02  1043 0001:0000ab12  1044 0001:0000ab14  1050 0001:0000ab20
  1051 0001:0000ab45  1052 0001:0000ab55  1056 0001:0000abaa  1057 0001:0000abba
  1060 0001:0000abc0  1061 0001:0000abcb  1063 0001:0000abd1  1064 0001:0000abe1
  1070 0001:0000abf7  1071 0001:0000ac07  1074 0001:0000ac0d  1075 0001:0000ac18
  1076 0001:0000ac1e  1077 0001:0000ac2c  1078 0001:0000ac2e  1082 0001:0000ac3c
  1084 0001:0000ac42  1085 0001:0000ac52  1086 0001:0000ac62  1088 0001:0000ac6e
  1089 0001:0000ac7a  1090 0001:0000ac88  1091 0001:0000ac8a  1096 0001:0000ac98
  1097 0001:0000aca8  1099 0001:0000acba  1100 0001:0000acc5  1101 0001:0000accb
  1102 0001:0000acd9  1103 0001:0000acdb  1104 0001:0000aceb  1107 0001:0000ad01
  1109 0001:0000ad98  1110 0001:0000ae02  1114 0001:0000ae20  1115 0001:0000ae29
  1116 0001:0000ae2f  1117 0001:0000ae3d  1120 0001:0000ae48  1121 0001:0000ae59
  1123 0001:0000ae61  1124 0001:0000ae6b  1125 0001:0000ae76  1128 0001:0000ae7d
  1129 0001:0000ae7f  1153 0001:0000ae90  1155 0001:0000ae99  1157 0001:0000aebc
  1159 0001:0000aed1  1161 0001:0000aee2  1162 0001:0000aeec  1163 0001:0000aef6
  1165 0001:0000af0e  1166 0001:0000af18  1169 0001:0000af22  1171 0001:0000af38
  1172 0001:0000af4e  1174 0001:0000af64  1175 0001:0000af6e  1178 0001:0000af78
  1179 0001:0000af83  1180 0001:0000af8d  1182 0001:0000af98  1183 0001:0000afae
  1185 0001:0000afc6  1186 0001:0000afd0  1189 0001:0000afda  1191 0001:0000afdc
  1192 0001:0000afe6  1195 0001:0000b006  1196 0001:0000b014  1197 0001:0000b023
  1200 0001:0000b036  1201 0001:0000b058  1204 0001:0000b071  1205 0001:0000b07e
  1207 0001:0000b08e  1209 0001:0000b0e8  1210 0001:0000b0ed  1213 0001:0000b100
  1217 0001:0000b109  1218 0001:0000b119  1219 0001:0000b11f  1222 0001:0000b124
  1223 0001:0000b135  1224 0001:0000b14f  1227 0001:0000b170  1229 0001:0000b176
  1230 0001:0000b183  1231 0001:0000b195  1233 0001:0000b19d  1235 0001:0000b19f
  1236 0001:0000b1b0  1237 0001:0000b1c2  1242 0001:0000b1da  1243 0001:0000b1e2
  1246 0001:0000b1f0  1247 0001:0000b1f7  1248 0001:0000b204  1251 0001:0000b210
  1254 0001:0000b219  1255 0001:0000b229  1256 0001:0000b22f  1259 0001:0000b234
  1260 0001:0000b23f  1261 0001:0000b245  1263 0001:0000b24a  1265 0001:0000b256
  1268 0001:0000b26b  1269 0001:0000b27b  1270 0001:0000b281  1273 0001:0000b283
  1277 0001:0000b28b  1278 0001:0000b292  1280 0001:0000b2ad  1281 0001:0000b2bd
  1282 0001:0000b2c6  1285 0001:0000b2c8  1286 0001:0000b2d9  1287 0001:0000b2eb
  1290 0001:0000b2f0  1291 0001:0000b2f7  1292 0001:0000b304  1295 0001:0000b310
  1296 0001:0000b319  1297 0001:0000b329  1298 0001:0000b32f  1301 0001:0000b334
  1304 0001:0000b341  1305 0001:0000b34c  1306 0001:0000b352  1309 0001:0000b357
  1310 0001:0000b363  1314 0001:0000b36b  1315 0001:0000b37c  1316 0001:0000b388
  1317 0001:0000b38a  1320 0001:0000b3a5  1321 0001:0000b3ab  1323 0001:0000b3bd
  1324 0001:0000b3c5  1325 0001:0000b3d1  1327 0001:0000b3e4  1330 0001:0000b3ec
  1333 0001:0000b3f0  1335 0001:0000b3f9  1336 0001:0000b409  1337 0001:0000b40f
  1340 0001:0000b414  1341 0001:0000b425  1342 0001:0000b431  1345 0001:0000b433
  1348 0001:0000b445  1349 0001:0000b455  1350 0001:0000b45b  1353 0001:0000b45d
  1354 0001:0000b46e  1355 0001:0000b47a  1356 0001:0000b47c  1359 0001:0000b497
  1360 0001:0000b49d  1361 0001:0000b4af  1364 0001:0000b4c0  1368 0001:0000b4c9
  1369 0001:0000b4d9  1372 0001:0000b4ea  1375 0001:0000b4fc  1378 0001:0000b50e
  1379 0001:0000b516  1380 0001:0000b522  1382 0001:0000b535  1384 0001:0000b53d
  1387 0001:0000b550  1391 0001:0000b559  1392 0001:0000b569  1393 0001:0000b56f
  1394 0001:0000b574  1396 0001:0000b580  1397 0001:0000b590  1398 0001:0000b596
  1399 0001:0000b59b  1402 0001:0000b5a7  1403 0001:0000b5b7  1405 0001:0000b5bd
  1406 0001:0000b5c3  1407 0001:0000b5cd  1408 0001:0000b5cf  1414 0001:0000b5d9
  1416 0001:0000b5df  1417 0001:0000b5ec  1418 0001:0000b5f9  1419 0001:0000b607
  1420 0001:0000b612  1422 0001:0000b61d  1425 0001:0000b61f  1426 0001:0000b628
  1427 0001:0000b635  1428 0001:0000b63e  1431 0001:0000b64b  1432 0001:0000b662
  1433 0001:0000b671  1434 0001:0000b680  1435 0001:0000b688  1439 0001:0000b691
  1440 0001:0000b69d  1442 0001:0000b6a9  1452 0001:0000b6b0  1453 0001:0000b6b9
  1457 0001:0000b6c1  1459 0001:0000b6d7  1460 0001:0000b6ec  1461 0001:0000b6f8
  1462 0001:0000b70d  1463 0001:0000b71a  1467 0001:0000b71f  1468 0001:0000b72d
  1485 0001:0000b740  1488 0001:0000b749  1489 0001:0000b75c  1490 0001:0000b761
  1491 0001:0000b774  1493 0001:0000b779  1495 0001:0000b77b  1504 0001:0000b780
  1507 0001:0000b789  1508 0001:0000b798  1509 0001:0000b79e  1512 0001:0000b7a2
  1513 0001:0000b7b3  1514 0001:0000b7c8  1515 0001:0000b7ce  1517 0001:0000b7e0
  1519 0001:0000b7e2  1527 0001:0000b7f0  1529 0001:0000b7f9  1530 0001:0000b80a
  1531 0001:0000b81f  1532 0001:0000b825  1533 0001:0000b834  1534 0001:0000b836
  1536 0001:0000b83a  1537 0001:0000b83d  1545 0001:0000b850  1547 0001:0000b859
  1550 0001:0000b86b  1551 0001:0000b880  1552 0001:0000b88c  1558 0001:0000b8a0
  1560 0001:0000b8a9  1562 0001:0000b8b4  1565 0001:0000b8c0  1567 0001:0000b8d5
  1568 0001:0000b8f2  1571 0001:0000b8f4  1572 0001:0000b909  1573 0001:0000b919
  1576 0001:0000b920  1577 0001:0000b927  1578 0001:0000b934  1582 0001:0000b940
  1583 0001:0000b949  1584 0001:0000b959  1585 0001:0000b96b  1592 0001:0000b970
  1595 0001:0000b979  1597 0001:0000b992  1598 0001:0000b99f  1600 0001:0000b9a6
  1601 0001:0000b9c1  1604 0001:0000b9c8  1606 0001:0000b9d6  1607 0001:0000b9ed
  1608 0001:0000b9f0  1620 0001:0000ba00  1625 0001:0000ba09  1626 0001:0000ba18
  1628 0001:0000ba1d  1629 0001:0000ba35  1631 0001:0000ba3a  1632 0001:0000ba55
  1633 0001:0000ba5b  1636 0001:0000ba5d  1638 0001:0000ba65  1639 0001:0000ba80
  1643 0001:0000ba8c  1645 0001:0000ba8e  1646 0001:0000baa9  1649 0001:0000bab5
  1652 0001:0000babe  1654 0001:0000bac7  1657 0001:0000bad0  1661 0001:0000baf1
  1664 0001:0000bb01  1665 0001:0000bb11  1667 0001:0000bb18  1668 0001:0000bb23
  1670 0001:0000bb48  1671 0001:0000bb51  1672 0001:0000bb67  1673 0001:0000bb80
  1674 0001:0000bb8b  1679 0001:0000bba0  1680 0001:0000bbaf  1683 0001:0000bbba
  1684 0001:0000bbcd  1685 0001:0000bbd3  1689 0001:0000bbe5  1690 0001:0000bbf7
  1692 0001:0000bbff  1693 0001:0000bc0e  1694 0001:0000bc23  1696 0001:0000bc3b
  1704 0001:0000bc60  1708 0001:0000bc81  1711 0001:0000bc91  1712 0001:0000bca1
  1714 0001:0000bca8  1715 0001:0000bcb3  1717 0001:0000bcd8  1718 0001:0000bce1
  1719 0001:0000bcf7  1720 0001:0000bd10  1721 0001:0000bd1b  1725 0001:0000bd30
  1726 0001:0000bd3f  1729 0001:0000bd4a  1730 0001:0000bd5d  1731 0001:0000bd63
  1735 0001:0000bd75  1736 0001:0000bd87  1738 0001:0000bd8f  1739 0001:0000bd9e
  1740 0001:0000bdb3  1742 0001:0000bdcb  1749 0001:0000bdf0  1751 0001:0000be14
  1753 0001:0000be1f  1754 0001:0000be33  1757 0001:0000be41  1760 0001:0000be4c
  1761 0001:0000be57  1767 0001:0000be80  1771 0001:0000be9e  1774 0001:0000beae
  1775 0001:0000bebe  1777 0001:0000bec5  1779 0001:0000beed  1780 0001:0000bef6
  1781 0001:0000bf0c  1782 0001:0000bf22  1786 0001:0000bf34  1789 0001:0000bf46
  1790 0001:0000bf54  1791 0001:0000bf5a  1792 0001:0000bf6b  1793 0001:0000bf6d
  1795 0001:0000bf7e  1801 0001:0000bfa0  1802 0001:0000bfa9  1803 0001:0000bfb9
  1804 0001:0000bfc7  1805 0001:0000bfd1  1809 0001:0000bfe0  1810 0001:0000bffe
  1813 0001:0000c00e  1814 0001:0000c01e  1815 0001:0000c024  1818 0001:0000c039
  1819 0001:0000c044  1820 0001:0000c04e  1823 0001:0000c060  1825 0001:0000c06b
  1827 0001:0000c071  1828 0001:0000c078  1830 0001:0000c092  1832 0001:0000c094
  1833 0001:0000c09b  1838 0001:0000c0ad  1839 0001:0000c0b9  1845 0001:0000c0e0
  1849 0001:0000c0fe  1850 0001:0000c10a  1851 0001:0000c15b  1852 0001:0000c17c
  1853 0001:0000c18d  1854 0001:0000c18f  1856 0001:0000c194  1857 0001:0000c19a
  1859 0001:0000c19f  1860 0001:0000c1af  1861 0001:0000c1b6  1863 0001:0000c1da
  1865 0001:0000c1ee  1866 0001:0000c1f7  1868 0001:0000c1f9  1869 0001:0000c202
  1870 0001:0000c209  1874 0001:0000c20b  1875 0001:0000c24d  1876 0001:0000c264
  1877 0001:0000c26f  1879 0001:0000c289  1880 0001:0000c2a9  1881 0001:0000c2b7
  1882 0001:0000c2d5  1883 0001:0000c2d7  1884 0001:0000c2f4  1887 0001:0000c306
  1889 0001:0000c310  1890 0001:0000c316  1891 0001:0000c31f  1892 0001:0000c321
  1894 0001:0000c328  1895 0001:0000c350  1896 0001:0000c356  1898 0001:0000c368
  1899 0001:0000c37a  1900 0001:0000c38b  1904 0001:0000c3b6  1905 0001:0000c3d1
  1939 0001:0000c3f0  1940 0001:0000c40e  1941 0001:0000c419  1944 0001:0000c429
  1945 0001:0000c435  1946 0001:0000c44a  1947 0001:0000c450  1950 0001:0000c471
  1951 0001:0000c482  1953 0001:0000c48a  1954 0001:0000c497  1955 0001:0000c4a5
  1957 0001:0000c4b3  1959 0001:0000c4b5  1960 0001:0000c4c1  1961 0001:0000c4da
  1962 0001:0000c4e6  1963 0001:0000c4f4  1967 0001:0000c506  1968 0001:0000c512
  1969 0001:0000c52a  1972 0001:0000c53c  1973 0001:0000c544  1976 0001:0000c570
  1977 0001:0000c577  1978 0001:0000c57f  1979 0001:0000c584  1985 0001:0000c590
  1988 0001:0000c599  1993 0001:0000c5ad  1994 0001:0000c5b9  1996 0001:0000c5c9
  1997 0001:0000c5da  2000 0001:0000c5e8  2001 0001:0000c605  2002 0001:0000c607
  2006 0001:0000c610  2009 0001:0000c619  2010 0001:0000c625  2011 0001:0000c635
  2012 0001:0000c637  2016 0001:0000c640  2017 0001:0000c65e  2018 0001:0000c664
  2019 0001:0000c66b  2021 0001:0000c676  2022 0001:0000c684  2026 0001:0000c69c
  2028 0001:0000c6a7  2031 0001:0000c6b7  2032 0001:0000c6c6  2034 0001:0000c6e4
  2035 0001:0000c6f4  2038 0001:0000c6fc  2039 0001:0000c70f  2040 0001:0000c721
  2041 0001:0000c723  2044 0001:0000c72d  2045 0001:0000c739  2049 0001:0000c750
  2050 0001:0000c759  2054 0001:0000c78f  2055 0001:0000c79f  2056 0001:0000c7bb
  2057 0001:0000c7c5  2058 0001:0000c7d3  2066 0001:0000c7e0  2071 0001:0000c7e9
  2073 0001:0000c7f4  2074 0001:0000c7fd  2076 0001:0000c801  2077 0001:0000c803
  2080 0001:0000c807  2082 0001:0000c80d  2084 0001:0000c815  2086 0001:0000c82b
  2088 0001:0000c82d  2089 0001:0000c834  2092 0001:0000c84a  2093 0001:0000c857
  2094 0001:0000c893  2095 0001:0000c8c6  2099 0001:0000c8d0  2100 0001:0000c8ee
  2101 0001:0000c8fa  2103 0001:0000c8ff  2105 0001:0000c90b  2106 0001:0000c95e
  2108 0001:0000c986  2109 0001:0000c999  2113 0001:0000c9b0  2115 0001:0000c9b7
  2116 0001:0000c9cd  2117 0001:0000c9e3  2119 0001:0000c9f9  2120 0001:0000c9fb
  2124 0001:0000ca10  2126 0001:0000ca17  2127 0001:0000ca2d  2128 0001:0000ca43
  2130 0001:0000ca59  2131 0001:0000ca5b  2135 0001:0000ca70  2136 0001:0000ca77
  2139 0001:0000ca83  2142 0001:0000ca90  2143 0001:0000ca92  2147 0001:0000caa0
  2149 0001:0000caa7  2153 0001:0000cab3  2157 0001:0000cac0  2160 0001:0000cac9
  2161 0001:0000cad1  2162 0001:0000cad7  2163 0001:0000cae1  2164 0001:0000cae3
  2167 0001:0000caed  2168 0001:0000caf3  2170 0001:0000cafd  2171 0001:0000cb12
  2174 0001:0000cb20  2175 0001:0000cb3e  2176 0001:0000cb4d  2178 0001:0000cb5a
  2181 0001:0000cb61  2183 0001:0000cb85  2185 0001:0000cb99  2186 0001:0000cbb5
  2187 0001:0000cbc4  2189 0001:0000cbc6  2190 0001:0000cbcf  2191 0001:0000cbd1
  2192 0001:0000cbdd  2195 0001:0000cbfe  2196 0001:0000cc10  2197 0001:0000cc16
  2200 0001:0000cc37  2201 0001:0000cc3d  2202 0001:0000cc4c  2203 0001:0000cc4e
  2206 0001:0000cc5d  2208 0001:0000cc63  2209 0001:0000cc6b  2210 0001:0000cc72
  2211 0001:0000cc74  2215 0001:0000cc7b  2218 0001:0000cc81  2220 0001:0000cc87
  2221 0001:0000cc91  2222 0001:0000cc9b  2224 0001:0000ccad  2226 0001:0000ccaf
  2227 0001:0000ccb9  2228 0001:0000ccc3  2232 0001:0000ccd5  2233 0001:0000cce7
  2236 0001:0000ccef  2238 0001:0000ccff  2241 0001:0000cd30  2242 0001:0000cd5e
  2247 0001:0000cd70  2248 0001:0000cd90  2249 0001:0000cda8  2252 0001:0000cdba
  2255 0001:0000cdc0  2256 0001:0000cdda  2257 0001:0000cde3  2261 0001:0000cdf5
  2262 0001:0000ce0d  2263 0001:0000ce18  2266 0001:0000ce50  2268 0001:0000ce7e
  2269 0001:0000ce98  2270 0001:0000cea1  2275 0001:0000cea6  2276 0001:0000ceb6
  2277 0001:0000cebd  2280 0001:0000cee7  2281 0001:0000cefa  2282 0001:0000cf06
  2283 0001:0000cf29  2284 0001:0000cf45  2286 0001:0000cf58  2288 0001:0000cf70
  2289 0001:0000cf77  2290 0001:0000cf80  2291 0001:0000cf88  2292 0001:0000cf8a
  2293 0001:0000cf9a  2297 0001:0000cfa0  2298 0001:0000cfbe  2299 0001:0000cfca
  2301 0001:0000cfcf  2303 0001:0000cfdb  2304 0001:0000d02c  2306 0001:0000d054
  2308 0001:0000d067  2312 0001:0000d080  2313 0001:0000d087  2315 0001:0000d093
  2317 0001:0000d0a0  2318 0001:0000d0a2  2322 0001:0000d0b0  2323 0001:0000d0ce
  2324 0001:0000d0da  2326 0001:0000d0df  2328 0001:0000d0ef  2329 0001:0000d140
  2330 0001:0000d168  2332 0001:0000d17b  2333 0001:0000d182  2334 0001:0000d194
  2336 0001:0000d1c0  2338 0001:0000d1d3  2342 0001:0000d1f0  2343 0001:0000d1f7
  2346 0001:0000d203  2348 0001:0000d210  2349 0001:0000d212  2353 0001:0000d220
  2354 0001:0000d23e  2356 0001:0000d24e  2357 0001:0000d29f  2358 0001:0000d2c5
  2360 0001:0000d2d8  2361 0001:0000d2df  2362 0001:0000d2f1  2364 0001:0000d31d
  2366 0001:0000d330  2369 0001:0000d340  2371 0001:0000d359  2372 0001:0000d368
  2375 0001:0000d36f  2376 0001:0000d388  2377 0001:0000d3a1  2382 0001:0000d3ba
  2383 0001:0000d3cc  2386 0001:0000d3e8  2387 0001:0000d409  2389 0001:0000d418
  2390 0001:0000d42b  2391 0001:0000d43b  2396 0001:0000d442  2397 0001:0000d452
  2398 0001:0000d46d  2399 0001:0000d4a3  2400 0001:0000d4be  2401 0001:0000d4d9
  2402 0001:0000d4f4  2403 0001:0000d50f  2404 0001:0000d52a  2405 0001:0000d545
  2406 0001:0000d560  2407 0001:0000d594  2408 0001:0000d5af  2409 0001:0000d5c5
  2411 0001:0000d5d5  2412 0001:0000d5d7  2415 0001:0000d5f0  2417 0001:0000d5f9
  2418 0001:0000d60f  2419 0001:0000d625  2422 0001:0000d63b  2423 0001:0000d65f
  2426 0001:0000d666  2428 0001:0000d672  2429 0001:0000d67f  2434 0001:0000d68a
  2438 0001:0000d697  2439 0001:0000d6a4  2440 0001:0000d6b7  2441 0001:0000d6cf
  2442 0001:0000d6ff  2443 0001:0000d717  2446 0001:0000d72a  2447 0001:0000d737
  2448 0001:0000d739  2452 0001:0000d740  2453 0001:0000d747  2456 0001:0000d753
  2458 0001:0000d760  2459 0001:0000d762  2463 0001:0000d770  2464 0001:0000d78e
  2466 0001:0000d79e  2467 0001:0000d7ef  2468 0001:0000d815  2470 0001:0000d828
  2471 0001:0000d82f  2472 0001:0000d841  2474 0001:0000d86d  2476 0001:0000d880
  2479 0001:0000d890  2480 0001:0000d897  2483 0001:0000d8a3  2485 0001:0000d8b0
  2486 0001:0000d8b2  2490 0001:0000d8c0  2492 0001:0000d8e4  2493 0001:0000d8fa
  2494 0001:0000d908  2496 0001:0000d90e  2497 0001:0000d91b  2500 0001:0000d926
  2501 0001:0000d93f  2502 0001:0000d951  2505 0001:0000d95f  2507 0001:0000d965
  2508 0001:0000d974  2510 0001:0000d97f  2513 0001:0000d9a0  2515 0001:0000d9a9
  2516 0001:0000d9b5  2517 0001:0000d9bb  2519 0001:0000d9c0  2520 0001:0000d9c3
  2523 0001:0000d9d0  2524 0001:0000d9d7  2525 0001:0000d9ed  2526 0001:0000da03
  2527 0001:0000da05  2538 0001:0000da10  2539 0001:0000da17  2542 0001:0000da27
  2543 0001:0000da3b  2544 0001:0000da43

Line numbers for .\Debug\SppConsole.obj(c:\code\smartpropoplus\34x\sppconsole\sppconsole.cpp) segment .text

    26 0001:00008ac0    26 0001:00008ad0    37 0001:00008ae0    39 0001:00008afa
    50 0001:00008b10    63 0001:00008b34    64 0001:00008b41    67 0001:00008b4c
    69 0001:00008b5a    70 0001:00008b6e    71 0001:00008b7d    72 0001:00008b8c
    86 0001:00008b9a    87 0001:00008bbc    90 0001:00008bd0    94 0001:00008bd9
    96 0001:00008be2    97 0001:00008bf2    99 0001:00008bf6   100 0001:00008c22
   102 0001:00008c26   103 0001:00008c28   107 0001:00008c30   108 0001:00008c54
   109 0001:00008c68   110 0001:00008c73    44 0001:0001c1f0

Line numbers for .\Debug\ScanInputs.obj(c:\program files\microsoft visual studio .net 2003\vc7\atlmfc\include\cstringt.h) segment .text

  2014 0001:00008a10  2015 0001:00008a32  2017 0001:00008a4c  2019 0001:00008a81
  2020 0001:00008aaa

Line numbers for .\Debug\ScanInputs.obj(c:\code\smartpropoplus\34x\sppconsole\scaninputs.cpp) segment .text

    12 0001:00007e40    12 0001:00007e50    12 0001:00007e60    15 0001:00007e70
    16 0001:00007ebc    17 0001:00007ec8    18 0001:00007ed2    25 0001:00007edc
    26 0001:00007ef3    27 0001:00007f0a    28 0001:00007f21    31 0001:00007f38
    32 0001:00007f4f    33 0001:00007f66    34 0001:00007f7d    35 0001:00007f94
    36 0001:00007fab    37 0001:00007fc2    40 0001:00007fe0    41 0001:0000800c
    44 0001:00008040    45 0001:00008047    46 0001:00008068    49 0001:00008070
    49 0001:00008080    60 0001:00008090    62 0001:00008097    63 0001:000080af
    64 0001:000080c7    65 0001:000080df    66 0001:000080f7    68 0001:0000810f
    70 0001:0000811d    71 0001:0000812b    74 0001:00008130    75 0001:00008139
    78 0001:00008143    81 0001:00008156    84 0001:0000816e    85 0001:0000817f
    86 0001:00008190    89 0001:000081ae    90 0001:000081bf    91 0001:000081d0
    93 0001:000081ee    95 0001:000081f9    96 0001:0000820a    98 0001:0000821e
   100 0001:00008233   102 0001:0000823d   103 0001:00008250   104 0001:00008268
   107 0001:0000826d   108 0001:00008289   109 0001:00008297   111 0001:0000829c
   112 0001:000082b8   113 0001:000082c6   117 0001:000082cb   118 0001:000082de
   119 0001:000082e8   121 0001:00008300   125 0001:00008310   126 0001:0000833f
   128 0001:0000834f   129 0001:00008361   130 0001:0000838b   134 0001:000083a0
   135 0001:000083a7   136 0001:000083ae   139 0001:000083cc   140 0001:000083d8
   141 0001:000083e2   142 0001:000083ec   143 0001:000083f5   144 0001:000083ff
   145 0001:00008409   146 0001:00008413   147 0001:0000841d   148 0001:00008427
   149 0001:00008430   150 0001:0000843a   151 0001:00008444   154 0001:0000844e
   155 0001:0000845e   156 0001:00008464   159 0001:00008479   160 0001:00008498
   161 0001:0000849e   162 0001:000084b0   164 0001:000084bf   166 0001:000084ec
   169 0001:00008520   170 0001:0000853e   173 0001:00008575   174 0001:00008587
   175 0001:000085a2   176 0001:000085b8   179 0001:000085d3   180 0001:000085f1
   181 0001:00008600   184 0001:00008643   185 0001:00008651   186 0001:00008665
   187 0001:00008679   190 0001:000086c0   191 0001:000086c9   195 0001:000086d0
   196 0001:000086e1   198 0001:000086f2   200 0001:00008710   202 0001:0000871b
   204 0001:00008733   205 0001:00008748   206 0001:0000875c   207 0001:00008768
   208 0001:00008784   209 0001:0000878d   210 0001:0000878f   211 0001:000087ab
   212 0001:000087b9   214 0001:000087be   215 0001:000087c1   218 0001:000087d0
   219 0001:000087ee   222 0001:00008818   225 0001:0000882e   226 0001:00008848
   227 0001:00008857   230 0001:0000889a   231 0001:000088a8   232 0001:000088bc
   233 0001:000088d0   237 0001:00008910   238 0001:00008919   242 0001:00008929
   243 0001:0000893b   245 0001:00008947   246 0001:00008953   247 0001:0000895c
   249 0001:00008965   250 0001:00008971   251 0001:0000897a   253 0001:00008983
   254 0001:00008991   261 0001:000089a0   264 0001:000089a7   266 0001:000089b5
   267 0001:000089bd   268 0001:000089c7   271 0001:000089ce   272 0001:000089d0

Line numbers for .\Debug\LogRawPulse.obj(c:\code\smartpropoplus\34x\sppconsole\lograwpulse.cpp) segment .text

     7 0001:00007bd0     8 0001:00007bea     9 0001:00007bf7    10 0001:00007c04
    11 0001:00007c11    12 0001:00007c25    15 0001:00007c30    16 0001:00007c40
    19 0001:00007c50    20 0001:00007c59    21 0001:00007c9d    22 0001:00007ce1
    23 0001:00007d25    26 0001:00007d30    27 0001:00007d37    28 0001:00007d4f
    31 0001:00007d60    32 0001:00007d67    33 0001:00007d7f    35 0001:00007d90
    36 0001:00007d97    37 0001:00007daf    40 0001:00007dc0    41 0001:00007dd0
    42 0001:00007df0

Line numbers for .\Debug\LogPulses.obj(c:\code\smartpropoplus\34x\sppconsole\logpulses.cpp) segment .text

     7 0001:00007970     8 0001:0000798a     9 0001:00007997    10 0001:000079a4
    11 0001:000079b1    14 0001:000079c0    15 0001:000079d0    18 0001:000079e0
    19 0001:000079e9    20 0001:00007a2d    21 0001:00007a71    22 0001:00007ab5
    25 0001:00007ac0    26 0001:00007ac7    27 0001:00007adf    30 0001:00007af0
    31 0001:00007af7    32 0001:00007b0f    34 0001:00007b20    35 0001:00007b27
    36 0001:00007b3f    39 0001:00007b50    40 0001:00007b60    41 0001:00007b80

Line numbers for .\Debug\LogFmsConn.obj(c:\code\smartpropoplus\34x\sppconsole\logfmsconn.cpp) segment .text

     7 0001:00007710     8 0001:0000772a     9 0001:00007737    10 0001:00007744
    11 0001:00007751    12 0001:00007765    15 0001:00007770    16 0001:00007780
    19 0001:00007790    20 0001:00007799    21 0001:000077dd    22 0001:00007821
    23 0001:00007865    26 0001:00007870    27 0001:00007877    28 0001:0000788f
    31 0001:000078a0    32 0001:000078a7    33 0001:000078bf    35 0001:000078d0
    36 0001:000078d7    37 0001:000078ef    40 0001:00007900    41 0001:00007920

Line numbers for .\Debug\LogAudioHdrs.obj(c:\code\smartpropoplus\34x\sppconsole\logaudiohdrs.cpp) segment .text

     7 0001:000074b0     8 0001:000074ca     9 0001:000074d7    10 0001:000074e4
    11 0001:000074f1    14 0001:00007500    15 0001:00007510    18 0001:00007520
    19 0001:00007529    20 0001:0000756d    21 0001:000075b1    22 0001:000075f5
    25 0001:00007600    26 0001:00007607    27 0001:0000761f    30 0001:00007630
    31 0001:00007637    32 0001:0000764f    34 0001:00007660    35 0001:00007667
    36 0001:0000767f    39 0001:00007690    40 0001:000076a0    41 0001:000076c0

Line numbers for .\Debug\DynamicLED.obj(c:\code\smartpropoplus\34x\sppconsole\dynamicled.cpp) segment .text

    19 0001:00006920    21 0001:0000699b    22 0001:000069a8    23 0001:000069b5
    24 0001:000069c2    25 0001:000069cc    26 0001:000069d9    27 0001:000069e3
    30 0001:00006a00    31 0001:00006a2e    32 0001:00006a65    34 0001:00006ad0
    34 0001:00006ae0    52 0001:00006af0    53 0001:00006b0e    57 0001:00006b1a
    58 0001:00006b26    60 0001:00006b32    61 0001:00006b87    63 0001:00006b8f
    65 0001:00006b97    71 0001:00006bb0    72 0001:00006bd8    74 0001:00006beb
    75 0001:00006bfd    76 0001:00006c0c    83 0001:00006c30    84 0001:00006c39
    87 0001:00006c45    88 0001:00006c4d    91 0001:00006c59    92 0001:00006c8c
    94 0001:00006cc1    95 0001:00006ccd   103 0001:00006ce0   104 0001:00006ce9
   106 0001:00006cf5   107 0001:00006d07   110 0001:00006d14   113 0001:00006d22
   114 0001:00006d2a   117 0001:00006d36   118 0001:00006d69   121 0001:00006d9e
   127 0001:00006db0   128 0001:00006db7   129 0001:00006dc1   134 0001:00006dd0
   135 0001:00006dd7   136 0001:00006de1   143 0001:00006df0   146 0001:00006df7
   147 0001:00006e00   148 0001:00006e08   149 0001:00006e21   151 0001:00006e23
   152 0001:00006e41   153 0001:00006e5d   160 0001:00006e70   161 0001:00006e79
   162 0001:00006e82   165 0001:00006e89   168 0001:00006e95   169 0001:00006eb4
   170 0001:00006ed5   171 0001:00006eea   173 0001:00006ef9   178 0001:00006f05
   179 0001:00006f17   181 0001:00006f29   183 0001:00006f35   188 0001:00006f37
   189 0001:00006f49   191 0001:00006f5b   194 0001:00006f67   195 0001:00006f6a
   201 0001:00006f70   205 0001:00006f77   206 0001:00006f8b   207 0001:00006f9f
   208 0001:00006fb3   212 0001:00006fc7   216 0001:00006fd6   217 0001:00006fea
   222 0001:00006ffa   223 0001:0000700e   225 0001:0000701e   229 0001:00007032
   230 0001:00007046   232 0001:00007056   233 0001:0000706a   235 0001:0000707a
   239 0001:0000708e   240 0001:000070a2   242 0001:000070b2   243 0001:000070c6
   245 0001:000070d6   249 0001:000070e7   250 0001:000070fb   252 0001:0000710b
   253 0001:0000711f   256 0001:0000712f   262 0001:00007140   263 0001:0000715e
   264 0001:00007167   270 0001:0000716c   271 0001:0000717b   272 0001:0000718c
   274 0001:0000719b   277 0001:000071af   278 0001:000071b7   279 0001:000071c8
   280 0001:000071d7   283 0001:000071eb   284 0001:000071f3   285 0001:00007204
   288 0001:00007213   289 0001:00007223   290 0001:00007248   292 0001:00007263
   293 0001:00007286   295 0001:000072c2   296 0001:000072ce   297 0001:000072db
   300 0001:000072ea   301 0001:00007311   308 0001:00007340   309 0001:0000735e
   310 0001:00007367   313 0001:0000736c   318 0001:00007387   319 0001:00007396
   320 0001:000073a7   322 0001:000073b6   323 0001:000073cd   324 0001:000073e0
   326 0001:000073f3   329 0001:000073fb   330 0001:0000740c   332 0001:0000741b
   333 0001:00007432   334 0001:00007445   335 0001:00007458

Line numbers for .\Debug\DefVolumeDlg.obj(c:\code\smartpropoplus\34x\sppconsole\defvolumedlg.cpp) segment .text

    23 0001:00005fc0    27 0001:00006086    28 0001:00006093    29 0001:000060a0
    30 0001:000060ad    31 0001:000060ba    35 0001:000060e0    36 0001:000060e7
    38 0001:000060f3    39 0001:00006108    40 0001:0000611f    41 0001:00006137
    42 0001:0000614f    43 0001:00006166    44 0001:0000617e    45 0001:00006196
    47 0001:000061ad    50 0001:000061c0    50 0001:000061d0    68 0001:000061e0
    71 0001:000061fe    73 0001:0000620e    75 0001:0000621e    76 0001:00006229
    79 0001:0000623f    81 0001:00006248    82 0001:00006260    83 0001:0000626c
    86 0001:00006271    88 0001:0000627a    89 0001:00006292    90 0001:0000629e
    93 0001:000062a0    95 0001:000062a9    96 0001:000062c1    97 0001:000062cd
   100 0001:000062cf   102 0001:000062d8   103 0001:000062f0   107 0001:000062fc
   108 0001:00006310   112 0001:00006330   113 0001:00006343   117 0001:0000634b
   118 0001:0000635b   119 0001:0000636b   120 0001:0000637b   122 0001:0000638b
   125 0001:00006393   126 0001:000063ab   127 0001:000063c3   128 0001:000063db
   129 0001:000063f0   130 0001:00006418   131 0001:00006440   132 0001:00006468
   135 0001:00006490   136 0001:000064a0   137 0001:000064b0   138 0001:000064c0
   141 0001:000064cd   143 0001:000064d2   159 0001:000064e0   160 0001:000064fe
   163 0001:0000650e   164 0001:0000651a   167 0001:00006539   168 0001:00006545
   170 0001:00006552   171 0001:0000655f   175 0001:0000657e   176 0001:0000659a
   178 0001:000065a0   179 0001:000065a6   180 0001:000065ad   181 0001:000065b3
   184 0001:000065ba   186 0001:000065c2   187 0001:000065d8   188 0001:000065ea
   192 0001:000065f8   194 0001:00006600   195 0001:00006606   198 0001:00006612
   199 0001:0000662b   203 0001:00006640   204 0001:00006647   205 0001:00006675
   209 0001:00006680   210 0001:00006687   211 0001:000066b5   215 0001:000066c0
   216 0001:000066c7   217 0001:000066f5   221 0001:00006700   222 0001:00006707
   223 0001:00006733   226 0001:00006740   227 0001:00006747   228 0001:0000675d
   229 0001:00006773   230 0001:00006789   231 0001:0000679f   234 0001:000067b0
   237 0001:000067b7   238 0001:000067ce   239 0001:000067e5   240 0001:000067fc
   243 0001:00006813   244 0001:0000681b

Line numbers for .\Debug\AudioInput.obj(c:\program files\microsoft visual studio .net 2003\vc7\include\new.h) segment .text

   109 0001:00004cb0

Line numbers for .\Debug\AudioInput.obj(c:\program files\microsoft visual studio .net 2003\vc7\atlmfc\include\afxtempl.h) segment .text

   349 0001:00003550   350 0001:00003568   351 0001:00003572   352 0001:00003590
   272 0001:000035a0   284 0001:000035c0   287 0001:000035e0   288 0001:000035e7
   289 0001:0000360c   290 0001:0000361d   291 0001:0000362b   292 0001:00003630
   334 0001:00003640   335 0001:00003652   336 0001:00003662   589 0001:00003670
   590 0001:00003679   591 0001:0000368c   592 0001:000036a6   593 0001:000036c0
   595 0001:000036e2   596 0001:000036fc   599 0001:00003701   600 0001:00003712
   601 0001:0000372c   602 0001:0000372e   604 0001:00003734   605 0001:00003764
   606 0001:00003773   356 0001:00003780   357 0001:000037ae   359 0001:000037c1
   361 0001:000037ca   362 0001:000037e7   363 0001:000037e9   365 0001:000037fe
   629 0001:00003820   630 0001:00003829   632 0001:0000383c   633 0001:00003848
   635 0001:00003854   637 0001:00003863   639 0001:00003865   640 0001:00003870
   642 0001:0000387e   643 0001:00003895   648 0001:000038a0   649 0001:000038a7
   651 0001:000038b3   652 0001:000038da   654 0001:000038e6   655 0001:000038f3
   658 0001:0000390a   659 0001:00003917   663 0001:00003920   664 0001:00003927
   666 0001:0000392f   668 0001:00003938   669 0001:00003955   671 0001:00003972
   673 0001:00003977   674 0001:00003994   675 0001:000039b1   676 0001:000039d3
   678 0001:00003a03   349 0001:00003a10   350 0001:00003a28   351 0001:00003a32
   352 0001:00003a50   272 0001:00003a60   284 0001:00003a80   287 0001:00003aa0
   288 0001:00003aa7   289 0001:00003acc   290 0001:00003add   291 0001:00003aeb
   292 0001:00003af0   334 0001:00003b00   335 0001:00003b12   336 0001:00003b22
   589 0001:00003b30   590 0001:00003b39   591 0001:00003b4c   592 0001:00003b66
   593 0001:00003b80   595 0001:00003ba2   596 0001:00003bbc   599 0001:00003bc1
   600 0001:00003bd2   601 0001:00003bec   602 0001:00003bee   604 0001:00003bf4
   605 0001:00003c24   606 0001:00003c33   356 0001:00003c40   357 0001:00003c6e
   359 0001:00003c81   361 0001:00003c8a   362 0001:00003ca7   363 0001:00003ca9
   365 0001:00003cbe   629 0001:00003ce0   630 0001:00003ce9   632 0001:00003cfc
   633 0001:00003d08   635 0001:00003d14   637 0001:00003d23   639 0001:00003d25
   640 0001:00003d30   642 0001:00003d3e   643 0001:00003d55   648 0001:00003d60
   649 0001:00003d67   651 0001:00003d73   652 0001:00003d9a   654 0001:00003da6
   655 0001:00003db3   658 0001:00003dca   659 0001:00003dd7   663 0001:00003de0
   664 0001:00003de7   666 0001:00003def   668 0001:00003df8   669 0001:00003e15
   671 0001:00003e32   673 0001:00003e37   674 0001:00003e54   675 0001:00003e71
   676 0001:00003e93   678 0001:00003ec3   349 0001:00003ed0   350 0001:00003ee8
   351 0001:00003ef2   352 0001:00003f10   272 0001:00003f20   284 0001:00003f40
   287 0001:00003f60   288 0001:00003f67   289 0001:00003f8c   290 0001:00003f9d
   291 0001:00003fab   292 0001:00003fb0   334 0001:00003fc0   335 0001:00003fd2
   336 0001:00003fe2   589 0001:00003ff0   590 0001:00003ff9   591 0001:0000400c
   592 0001:00004026   593 0001:00004040   595 0001:00004062   596 0001:0000407c
   599 0001:00004081   600 0001:00004092   601 0001:000040ac   602 0001:000040ae
   604 0001:000040b4   605 0001:000040e4   606 0001:000040f3   356 0001:00004100
   357 0001:0000412e   359 0001:00004141   361 0001:0000414a   362 0001:00004167
   363 0001:00004169   365 0001:0000417e   629 0001:000041a0   630 0001:000041a9
   632 0001:000041bc   633 0001:000041c8   635 0001:000041d4   637 0001:000041e3
   639 0001:000041e5   640 0001:000041f0   642 0001:000041fe   643 0001:00004215
   648 0001:00004220   649 0001:00004227   651 0001:00004233   652 0001:0000425a
   654 0001:00004266   655 0001:00004273   658 0001:0000428a   659 0001:00004297
   663 0001:000042a0   664 0001:000042a7   666 0001:000042af   668 0001:000042b8
   669 0001:000042d5   671 0001:000042f2   673 0001:000042f7   674 0001:00004314
   675 0001:00004331   676 0001:00004353   678 0001:00004383   349 0001:00004390
   350 0001:000043a8   351 0001:000043b2   352 0001:000043d0   272 0001:000043e0
   275 0001:00004400   284 0001:00004420   287 0001:00004440   288 0001:00004447
   289 0001:0000446c   290 0001:0000447d   291 0001:0000448b   292 0001:00004490
   303 0001:000044a0   304 0001:000044a7   305 0001:000044cc   306 0001:000044dd
   307 0001:000044fc   308 0001:000044fe   309 0001:00004503   334 0001:00004510
   335 0001:00004522   336 0001:00004544   629 0001:00004550   630 0001:00004559
   632 0001:0000456c   633 0001:00004578   635 0001:00004584   637 0001:00004593
   639 0001:00004595   640 0001:000045a0   642 0001:000045ae   643 0001:000045c5
   648 0001:000045d0   649 0001:000045d7   651 0001:000045e3   652 0001:0000460a
   654 0001:00004616   655 0001:00004623   658 0001:0000463a   659 0001:00004647
   663 0001:00004650   664 0001:00004657   666 0001:0000465f   668 0001:00004668
   669 0001:00004685   671 0001:000046a2   673 0001:000046a7   674 0001:000046c4
   675 0001:000046e1   676 0001:00004703   678 0001:00004733   356 0001:00004800
   357 0001:0000482e   359 0001:00004841   361 0001:0000484a   362 0001:00004867
   363 0001:00004869   365 0001:0000487e   369 0001:000048a0   370 0001:000048a9
   371 0001:000048bc   373 0001:000048d6   374 0001:000048dc   376 0001:000048e1
   377 0001:000048e7   379 0001:000048f0   382 0001:000048f6   384 0001:000048ff
   385 0001:0000491c   386 0001:0000491e   387 0001:00004933   389 0001:0000493d
   391 0001:00004951   396 0001:00004963   398 0001:00004980   399 0001:000049a2
   400 0001:000049c7   401 0001:000049df   404 0001:000049f9   406 0001:00004a15
   407 0001:00004a1e   409 0001:00004a27   412 0001:00004a3b   415 0001:00004a46
   416 0001:00004a6d   419 0001:00004a8d   422 0001:00004ab2   425 0001:00004abf
   426 0001:00004adf   428 0001:00004ae1   430 0001:00004aea   433 0001:00004aef
   434 0001:00004af8   438 0001:00004afe   439 0001:00004b10   442 0001:00004b43
   443 0001:00004b51   444 0001:00004b5d   445 0001:00004b5f   447 0001:00004b65
   449 0001:00004b84   450 0001:00004b8f   453 0001:00004b94   455 0001:00004bb1
   458 0001:00004bc9   461 0001:00004be6   462 0001:00004c05   463 0001:00004c29
   466 0001:00004c49   470 0001:00004c6b   471 0001:00004c80   472 0001:00004c89
   473 0001:00004c92   475 0001:00004c9b   533 0001:00004cc0   534 0001:00004cc7
   535 0001:00004cda   537 0001:00004cf4   538 0001:00004cfa   540 0001:00004cff
   541 0001:00004d0a   542 0001:00004d1b   543 0001:00004d2a    69 0001:00004d30
    70 0001:00004d36    74 0001:00004d63    79 0001:00004d6f    80 0001:00004d75
    81 0001:00004d7b    85 0001:00004d81    86 0001:00004d9f    87 0001:00004db2
    88 0001:00004dbb    89 0001:00004dc7    91 0001:00004dc9    96 0001:00004dcb
    97 0001:00004dd1    98 0001:00004dd7   102 0001:00004ddd   103 0001:00004dfb
   104 0001:00004e0e   105 0001:00004e17   106 0001:00004e23   108 0001:00004e25
   137 0001:00004e30   138 0001:00004e33   145 0001:00004e63   369 0001:00004e70
   370 0001:00004e79   371 0001:00004e8c   373 0001:00004ea6   374 0001:00004eac
   376 0001:00004eb1   377 0001:00004eb7   379 0001:00004ec0   382 0001:00004ec6
   384 0001:00004ecf   385 0001:00004eec   386 0001:00004eee   387 0001:00004f03
   389 0001:00004f0d   391 0001:00004f21   396 0001:00004f33   398 0001:00004f50
   399 0001:00004f72   400 0001:00004f97   401 0001:00004faf   404 0001:00004fc9
   406 0001:00004fe5   407 0001:00004fee   409 0001:00004ff7   412 0001:0000500b
   415 0001:00005016   416 0001:0000503d   419 0001:0000505d   422 0001:00005082
   425 0001:0000508f   426 0001:000050af   428 0001:000050b1   430 0001:000050ba
   433 0001:000050bf   434 0001:000050c8   438 0001:000050ce   439 0001:000050e0
   442 0001:00005113   443 0001:00005121   444 0001:0000512d   445 0001:0000512f
   447 0001:00005135   449 0001:00005154   450 0001:0000515f   453 0001:00005164
   455 0001:00005181   458 0001:00005199   461 0001:000051b6   462 0001:000051d5
   463 0001:000051f9   466 0001:00005219   470 0001:0000523b   471 0001:00005250
   472 0001:00005259   473 0001:00005262   475 0001:0000526b   533 0001:00005280
   534 0001:00005287   535 0001:0000529a   537 0001:000052b4   538 0001:000052ba
   540 0001:000052bf   541 0001:000052ca   542 0001:000052db   543 0001:000052ea
    69 0001:000052f0    70 0001:000052f6    74 0001:00005323    79 0001:0000532f
    80 0001:00005335    81 0001:0000533b    85 0001:00005341    86 0001:0000535f
    87 0001:00005372    88 0001:0000537b    89 0001:00005387    91 0001:00005389
    96 0001:0000538b    97 0001:00005391    98 0001:00005397   102 0001:0000539d
   103 0001:000053bb   104 0001:000053ce   105 0001:000053d7   106 0001:000053e3
   108 0001:000053e5   137 0001:000053f0   138 0001:000053f3   145 0001:00005423
   369 0001:00005430   370 0001:00005439   371 0001:0000544c   373 0001:00005466
   374 0001:0000546c   376 0001:00005471   377 0001:00005477   379 0001:00005480
   382 0001:00005486   384 0001:0000548f   385 0001:000054ac   386 0001:000054ae
   387 0001:000054c3   389 0001:000054cd   391 0001:000054e1   396 0001:000054f3
   398 0001:00005510   399 0001:00005532   400 0001:00005557   401 0001:0000556f
   404 0001:00005589   406 0001:000055a5   407 0001:000055ae   409 0001:000055b7
   412 0001:000055cb   415 0001:000055d6   416 0001:000055fd   419 0001:0000561d
   422 0001:00005642   425 0001:0000564f   426 0001:0000566f   428 0001:00005671
   430 0001:0000567a   433 0001:0000567f   434 0001:00005688   438 0001:0000568e
   439 0001:000056a0   442 0001:000056d3   443 0001:000056e1   444 0001:000056ed
   445 0001:000056ef   447 0001:000056f5   449 0001:00005714   450 0001:0000571f
   453 0001:00005724   455 0001:00005741   458 0001:00005759   461 0001:00005776
   462 0001:00005795   463 0001:000057b9   466 0001:000057d9   470 0001:000057fb
   471 0001:00005810   472 0001:00005819   473 0001:00005822   475 0001:0000582b
   533 0001:00005840   534 0001:00005847   535 0001:0000585a   537 0001:00005874
   538 0001:0000587a   540 0001:0000587f   541 0001:0000588a   542 0001:0000589b
   543 0001:000058aa    69 0001:000058b0    70 0001:000058b6    74 0001:000058e3
    79 0001:000058ef    80 0001:000058f5    81 0001:000058fb    85 0001:00005901
    86 0001:0000591f    87 0001:00005932    88 0001:0000593b    89 0001:00005947
    91 0001:00005949    96 0001:0000594b    97 0001:00005951    98 0001:00005957
   102 0001:0000595d   103 0001:0000597b   104 0001:0000598e   105 0001:00005997
   106 0001:000059a3   108 0001:000059a5   137 0001:000059b0   138 0001:000059b3
   145 0001:000059e3   369 0001:000059f0   370 0001:000059f9   371 0001:00005a0c
   373 0001:00005a26   374 0001:00005a2c   376 0001:00005a31   377 0001:00005a37
   379 0001:00005a40   382 0001:00005a46   384 0001:00005a4f   385 0001:00005a6c
   386 0001:00005a6e   387 0001:00005a83   389 0001:00005a8d   391 0001:00005aa1
   396 0001:00005ab3   398 0001:00005ad0   399 0001:00005af2   400 0001:00005b17
   401 0001:00005b2f   404 0001:00005b49   406 0001:00005b65   407 0001:00005b6e
   409 0001:00005b77   412 0001:00005b8b   415 0001:00005b96   416 0001:00005bbd
   419 0001:00005bdd   422 0001:00005c06   425 0001:00005c13   426 0001:00005c33
   428 0001:00005c35   430 0001:00005c3e   433 0001:00005c43   434 0001:00005c4c
   438 0001:00005c52   439 0001:00005c64   442 0001:00005c97   443 0001:00005ca5
   444 0001:00005cb1   445 0001:00005cb3   447 0001:00005cb9   449 0001:00005cd8
   450 0001:00005ce3   453 0001:00005ce8   455 0001:00005d05   458 0001:00005d1d
   461 0001:00005d3a   462 0001:00005d59   463 0001:00005d7d   466 0001:00005d9d
   470 0001:00005dc1   471 0001:00005dd6   472 0001:00005ddf   473 0001:00005de8
   475 0001:00005df1   533 0001:00005e00   534 0001:00005e07   535 0001:00005e1a
   537 0001:00005e34   538 0001:00005e3a   540 0001:00005e3f   541 0001:00005e4a
   542 0001:00005e5b   543 0001:00005e7a    69 0001:00005e80    70 0001:00005e86
    74 0001:00005eb3    79 0001:00005ebf    80 0001:00005ec5    81 0001:00005ecb
    85 0001:00005ed1    86 0001:00005eef    87 0001:00005f02    88 0001:00005f0b
    89 0001:00005f17    91 0001:00005f19    96 0001:00005f1b    97 0001:00005f21
    98 0001:00005f27   102 0001:00005f2d   103 0001:00005f4b   104 0001:00005f5e
   105 0001:00005f67   106 0001:00005f73   108 0001:00005f75   137 0001:00005f80
   138 0001:00005f83   145 0001:00005fb3

Line numbers for .\Debug\AudioInput.obj(c:\code\smartpropoplus\34x\sppconsole\audioinput.cpp) segment .text

    23 0001:00000400    24 0001:00000404    29 0001:00000421    31 0001:00000425
    33 0001:00000427    37 0001:00000430    42 0001:00000436    43 0001:0000043d
    44 0001:00000443    45 0001:0000044a    46 0001:00000451    48 0001:00000457
    50 0001:0000046a    51 0001:0000046d    59 0001:00000480    66 0001:00000493
    67 0001:000004b0    68 0001:000004bd    71 0001:000004cd    72 0001:000004d7
    73 0001:000004e1    74 0001:000004ea    75 0001:000004f4    76 0001:000004fe
    77 0001:00000508    78 0001:00000514    80 0001:0000052d    82 0001:00000533
    91 0001:00000550    98 0001:00000563    99 0001:00000580   100 0001:0000058d
   103 0001:0000059d   104 0001:000005a7   105 0001:000005b0   106 0001:000005ba
   107 0001:000005c4   108 0001:000005ce   109 0001:000005da   110 0001:000005f3
   111 0001:000005fc   112 0001:00000602   113 0001:00000604   115 0001:0000060a
   116 0001:0000060c   120 0001:00000620   123 0001:00000638   126 0001:00000651
   128 0001:0000065b   129 0001:00000665   130 0001:0000066e   131 0001:00000687
   132 0001:00000690   133 0001:00000698   135 0001:000006b4   138 0001:000006e1
   139 0001:000006f7   140 0001:000006f9   141 0001:0000073a   144 0001:00000748
   145 0001:00000789   148 0001:00000797   150 0001:000007cd   151 0001:000007dd
   153 0001:000007f3   154 0001:000007f5   156 0001:000007fa   157 0001:00000800
   166 0001:00000810   170 0001:00000816   171 0001:0000081d   172 0001:00000823
   173 0001:0000082a   174 0001:00000830   175 0001:00000837   176 0001:0000083d
   178 0001:00000850   180 0001:00000853   186 0001:00000860   190 0001:00000866
   191 0001:0000086d   192 0001:00000873   193 0001:0000087a   194 0001:00000880
   195 0001:00000887   196 0001:0000088d   198 0001:000008a0   200 0001:000008a3
   205 0001:000008b0   210 0001:000008c3   211 0001:000008cd   212 0001:000008d6
   213 0001:000008ec   214 0001:000008f2   218 0001:000008f7   219 0001:00000901
   220 0001:0000090a   221 0001:00000916   222 0001:00000920   224 0001:00000929
   226 0001:0000093f   227 0001:00000945   228 0001:00000950   230 0001:00000953
   238 0001:00000970   242 0001:00000976   243 0001:0000097d   244 0001:00000983
   245 0001:0000098a   246 0001:00000990   247 0001:00000997   248 0001:0000099d
   250 0001:000009b0   251 0001:000009b3   260 0001:000009c0   264 0001:000009c6
   265 0001:000009cd   266 0001:000009d3   267 0001:000009da   268 0001:000009e0
   269 0001:000009e7   270 0001:000009ed   272 0001:00000a00   274 0001:00000a03
   283 0001:00000a10   291 0001:00000a23   292 0001:00000a40   293 0001:00000a50
   296 0001:00000a63   297 0001:00000a6d   298 0001:00000a76   299 0001:00000a80
   300 0001:00000a8a   301 0001:00000a94   302 0001:00000aa0   303 0001:00000ab9
   306 0001:00000ac5   307 0001:00000b1d   308 0001:00000b27   309 0001:00000b29
   313 0001:00000b40   320 0001:00000b53   321 0001:00000b70   322 0001:00000b81
   325 0001:00000b95   326 0001:00000b9b   327 0001:00000ba2   328 0001:00000ba4
   329 0001:00000baa   332 0001:00000bb1   333 0001:00000bcf   336 0001:00000bd9
   337 0001:00000bf2   338 0001:00000c0e   340 0001:00000c2d   341 0001:00000c33
   353 0001:00000c50   356 0001:00000c89   359 0001:00000c93   360 0001:00000c9c
   361 0001:00000ca2   365 0001:00000ca7   367 0001:00000cc5   368 0001:00000d12
   369 0001:00000d21   370 0001:00000d30   371 0001:00000d32   372 0001:00000d5c
   374 0001:00000d61   377 0001:00000d80   379 0001:00000dae   381 0001:00000dbd
   382 0001:00000dcf   383 0001:00000df9   384 0001:00000e08   387 0001:00000e0a
   388 0001:00000e15   391 0001:00000e40   392 0001:00000e47   393 0001:00000e52
   399 0001:00000e60   400 0001:00000e67   401 0001:00000e7a   403 0001:00000e92
   404 0001:00000e94   410 0001:00000ea0   411 0001:00000ea9   413 0001:00000ebc
   414 0001:00000ed0   417 0001:00000ede   418 0001:00000ee0   421 0001:00000ef0
   422 0001:00000ef9   424 0001:00000f0c   425 0001:00000f20   428 0001:00000f25
   429 0001:00000f27   435 0001:00000f30   439 0001:00000f39   440 0001:00000f42
   441 0001:00000f48   443 0001:00000f4a   445 0001:00000f64   446 0001:00000f78
   447 0001:00000f80   448 0001:00000f82   459 0001:00000f90   467 0001:00000f99
   468 0001:00000f9f   469 0001:00000fa5   470 0001:00000fac   471 0001:00000fb2
   472 0001:00000fca   473 0001:00000fd5   476 0001:00000fdb   477 0001:00000ff4
   478 0001:00001000   481 0001:00001008   482 0001:0000101e   483 0001:00001024
   486 0001:00001029   489 0001:00001033   490 0001:0000103e   492 0001:00001058
   493 0001:0000106c   494 0001:00001077   495 0001:0000107f   496 0001:00001084
   498 0001:00001086   499 0001:00001088   503 0001:00001090   506 0001:00001099
   507 0001:000010a4   509 0001:000010be   510 0001:000010d2   511 0001:000010dd
   512 0001:000010f1   513 0001:000010f6   515 0001:000010f8   516 0001:000010fa
   518 0001:00001100   521 0001:00001109   522 0001:00001114   524 0001:0000112e
   525 0001:00001142   526 0001:0000114d   527 0001:00001161   528 0001:0000116b
   530 0001:0000116d   531 0001:0000116f   534 0001:00001180   535 0001:00001189
   536 0001:00001194   538 0001:000011a2   539 0001:000011ab   543 0001:000011af
   544 0001:000011b9   546 0001:000011bb   550 0001:000011d0   551 0001:000011d7
   552 0001:000011dd   565 0001:000011f0   566 0001:0000123f   567 0001:00001253
   570 0001:00001270   572 0001:0000129e   575 0001:000012a6   577 0001:000012b5
   578 0001:000012c7   579 0001:000012f1   580 0001:00001300   581 0001:00001302
   584 0001:0000130d   586 0001:0000131c   587 0001:0000132e   588 0001:00001358
   589 0001:00001367   591 0001:00001369   592 0001:00001374   594 0001:00001389
   595 0001:00001394   598 0001:000013d0   603 0001:00001422   604 0001:0000142b
   605 0001:00001435   606 0001:0000143c   610 0001:00001447   611 0001:00001469
   612 0001:00001471   613 0001:0000148d   616 0001:00001495   617 0001:000014ab
   620 0001:000014b3   623 0001:000014c6   626 0001:000014d1   628 0001:000014dc
   629 0001:000014e3   636 0001:00001510   641 0001:00001519   644 0001:00001527
   646 0001:00001541   647 0001:00001555   648 0001:00001562   649 0001:0000156a
   651 0001:0000156c   654 0001:00001575   656 0001:0000158f   657 0001:000015a3
   660 0001:000015b3   661 0001:000015be   663 0001:000015c6   665 0001:000015c8
   674 0001:000015d0   680 0001:00001603   687 0001:0000161c   688 0001:0000163c
   689 0001:00001645   692 0001:0000164c   693 0001:00001662   694 0001:00001672
   696 0001:00001678   699 0001:00001682   702 0001:000016ac   703 0001:000016b8
   704 0001:000016d1   705 0001:000016da   708 0001:000016df   711 0001:000016fb
   714 0001:00001728   715 0001:0000173e   718 0001:00001740   719 0001:0000175f
   722 0001:00001761   723 0001:000017a2   726 0001:000017b0   727 0001:000017f7
   730 0001:00001805   732 0001:0000183f   733 0001:000018ea   734 0001:000018ff
   735 0001:00001904   737 0001:00001909   739 0001:0000190e   740 0001:0000191c
   748 0001:00001940   754 0001:00001973   762 0001:0000198c   763 0001:000019a9
   764 0001:000019af   767 0001:000019b6   768 0001:000019c9   769 0001:000019d6
   771 0001:000019dc   772 0001:000019e6   775 0001:000019f4   778 0001:00001a1e
   779 0001:00001a2a   780 0001:00001a40   781 0001:00001a46   784 0001:00001a4b
   785 0001:00001a61   788 0001:00001a63   791 0001:00001a7f   793 0001:00001a9e
   796 0001:00001acb   798 0001:00001ae4   799 0001:00001aeb   800 0001:00001b04
   804 0001:00001b2b   806 0001:00001b44   807 0001:00001b4b   808 0001:00001b61
   811 0001:00001b88   813 0001:00001b8d   815 0001:00001ba7   816 0001:00001c37
   819 0001:00001c4c   821 0001:00001c51   822 0001:00001c5f   825 0001:00001c80
   828 0001:00001c89   829 0001:00001c97   831 0001:00001cb1   832 0001:00001cc5
   834 0001:00001cd2   835 0001:00001cda   837 0001:00001cde   838 0001:00001ce0
   839 0001:00001ce2   843 0001:00001cf0   844 0001:00001cf7   845 0001:00001d0d
   847 0001:00001d11   848 0001:00001d27   851 0001:00001d30   852 0001:00001d37
   853 0001:00001d4d   854 0001:00001d52   855 0001:00001d68   858 0001:00001d70
   860 0001:00001d79   861 0001:00001d87   862 0001:00001d8f   864 0001:00001d93
   865 0001:00001da7   867 0001:00001dad   868 0001:00001dba   871 0001:00001dbe
   872 0001:00001dc0   876 0001:00001dd0   877 0001:00001dd7   878 0001:00001ddd
   881 0001:00001df0   886 0001:00001e0e   891 0001:00001e27   894 0001:00001e30
   895 0001:00001e4c   896 0001:00001e5c   898 0001:00001e62   901 0001:00001e6c
   904 0001:00001e96   905 0001:00001ea2   906 0001:00001ec1   907 0001:00001eca
   910 0001:00001ecf   913 0001:00001ef1   916 0001:00001f1e   917 0001:00001f34
   920 0001:00001f36   921 0001:00001f57   924 0001:00001f59   925 0001:00001fa0
   928 0001:00001fae   929 0001:00001ff5   932 0001:00002002   934 0001:00002038
   936 0001:00002048   937 0001:00002053   939 0001:00002057   941 0001:00002059
   943 0001:0000205e   944 0001:00002063   945 0001:00002065   954 0001:00002080
   956 0001:00002089   958 0001:0000208d   960 0001:0000209b   962 0001:000020b5
   963 0001:000020c9   964 0001:000020d6   965 0001:000020e9   967 0001:000020eb
   969 0001:000020f4   971 0001:0000210e   972 0001:00002122   973 0001:0000212d
   974 0001:0000212f   975 0001:0000213f   976 0001:00002147   979 0001:00002149
   980 0001:0000214c   988 0001:00002160   990 0001:00002169   991 0001:0000217f
   994 0001:00002183   995 0001:00002197   997 0001:000021a2   998 0001:000021b6
  1004 0001:000021c0  1006 0001:000021c9  1007 0001:000021df  1010 0001:000021e1
  1011 0001:000021f5  1013 0001:000021fb  1014 0001:00002203  1016 0001:0000220b
  1024 0001:00002220  1025 0001:00002229  1027 0001:00002230  1028 0001:0000223e
  1030 0001:00002258  1031 0001:0000226c  1032 0001:00002274  1033 0001:0000227c
  1034 0001:0000228b  1035 0001:00002296  1037 0001:00002298  1039 0001:000022a4
  1040 0001:000022a6  1048 0001:000022b0  1053 0001:000022ce  1059 0001:000022e7
  1060 0001:00002303  1061 0001:00002311  1063 0001:00002317  1066 0001:00002321
  1069 0001:0000234b  1070 0001:00002357  1071 0001:00002376  1072 0001:0000237f
  1075 0001:00002384  1078 0001:000023a6  1081 0001:000023d3  1082 0001:000023e9
  1085 0001:000023eb  1086 0001:0000240a  1089 0001:0000240c  1090 0001:00002453
  1093 0001:00002461  1094 0001:000024a8  1097 0001:000024b6  1099 0001:000024ec
  1100 0001:00002501  1101 0001:00002512  1102 0001:00002514  1103 0001:00002525
  1104 0001:00002527  1105 0001:00002568  1107 0001:0000256d  1109 0001:00002572
  1117 0001:00002590  1119 0001:00002599  1120 0001:000025af  1123 0001:000025b3
  1124 0001:000025c7  1126 0001:000025d2  1127 0001:000025de  1128 0001:000025ea
  1131 0001:000025fa  1133 0001:00002603  1134 0001:00002605  1148 0001:00002610
  1150 0001:00002619  1151 0001:00002628  1154 0001:0000262c  1155 0001:0000263a
  1158 0001:00002654  1159 0001:00002668  1160 0001:0000266e  1162 0001:00002670
  1163 0001:00002678  1164 0001:00002680  1166 0001:00002682  1167 0001:0000268e
  1169 0001:00002698  1171 0001:0000269a  1172 0001:0000269d  1183 0001:000026b0
  1184 0001:000026c2  1185 0001:000026dc  1188 0001:000026f0  1189 0001:00002702
  1190 0001:00002710  1191 0001:0000271b  1192 0001:00002749  1193 0001:00002759
  1196 0001:00002760  1198 0001:0000278a  1199 0001:00002797  1200 0001:000027a3
  1201 0001:000027af  1202 0001:000027c5  1203 0001:000027d1  1204 0001:000027de
  1205 0001:000027e4  1206 0001:000027ee  1207 0001:000027f0  1210 0001:000027fa
  1216 0001:00002813  1219 0001:00002837  1220 0001:0000283d  1222 0001:00002863
  1223 0001:00002893  1224 0001:0000289e  1225 0001:000028aa  1228 0001:000028ac
  1230 0001:000028d4  1236 0001:000028f0  1237 0001:0000290e  1244 0001:00002927
  1245 0001:00002951  1246 0001:00002957  1249 0001:0000295c  1251 0001:00002982
  1252 0001:000029af  1253 0001:000029b7  1254 0001:000029bc  1257 0001:000029be
  1258 0001:000029c3  1261 0001:000029e0  1265 0001:00002a13  1266 0001:00002a76
  1270 0001:00002a81  1271 0001:00002a9d  1272 0001:00002ab1  1276 0001:00002ab7
  1278 0001:00002ac1  1280 0001:00002aeb  1281 0001:00002af7  1282 0001:00002b16
  1283 0001:00002b1f  1285 0001:00002b24  1286 0001:00002b3a  1289 0001:00002b3c
  1290 0001:00002b48  1291 0001:00002b52  1292 0001:00002b5c  1294 0001:00002b66
  1297 0001:00002b85  1298 0001:00002b91  1299 0001:00002bb0  1300 0001:00002bb9
  1303 0001:00002bbe  1305 0001:00002bc9  1306 0001:00002bd8  1309 0001:00002bda
  1310 0001:00002bf3  1312 0001:00002c15  1315 0001:00002c42  1316 0001:00002c5b
  1325 0001:00002c5d  1327 0001:00002cc3  1328 0001:00002ce9  1329 0001:00002d05
  1330 0001:00002d14  1331 0001:00002d41  1332 0001:00002d67  1333 0001:00002d82
  1334 0001:00002d91  1335 0001:00002da0  1338 0001:00002da2  1339 0001:00002da7
  1341 0001:00002db6  1343 0001:00002dc4  1344 0001:00002dcd  1345 0001:00002dcf
  1346 0001:00002dd9  1347 0001:00002de3  1349 0001:00002df2  1350 0001:00002df7
  1353 0001:00002dfc  1354 0001:00002e02  1357 0001:00002e20  1358 0001:00002e27
  1359 0001:00002e2d  1362 0001:00002e40  1363 0001:00002e47  1364 0001:00002e4d
  1367 0001:00002e60  1368 0001:00002e67  1369 0001:00002e6d  1375 0001:00002e80
  1376 0001:00002e89  1379 0001:00002e97  1381 0001:00002eb1  1382 0001:00002ed1
  1383 0001:00002ee8  1384 0001:00002eea  1387 0001:00002ef0  1388 0001:00002f0e
  1391 0001:00002f27  1394 0001:00002f2e  1397 0001:00002f58  1398 0001:00002f5e
  1401 0001:00002f63  1402 0001:00002f89  1404 0001:00002fbe  1405 0001:00002fc1
  1408 0001:00002fd0  1410 0001:00002fee  1413 0001:00003003  1419 0001:0000301c
  1422 0001:00003046  1423 0001:0000304c  1426 0001:0000304e  1428 0001:00003074
  1429 0001:000030a1  1430 0001:000030a7  1431 0001:000030b3  1432 0001:000030b5
  1439 0001:000030d0  1442 0001:000030d9  1445 0001:000030e7  1447 0001:00003105
  1448 0001:00003125  1449 0001:0000313c  1451 0001:00003153  1454 0001:0000315b
  1455 0001:00003161  1457 0001:00003186  1459 0001:0000318b  1460 0001:0000318e
  1464 0001:000031a0  1465 0001:000031a7  1466 0001:000031ba  1469 0001:000031c0
  1470 0001:000031c7  1471 0001:000031d0  1475 0001:000031e0  1477 0001:000031fe
  1480 0001:00003217  1483 0001:0000321e  1486 0001:00003248  1487 0001:0000324e
  1490 0001:00003253  1492 0001:00003279  1493 0001:000032aa  1494 0001:000032c0
  1496 0001:000032c2  1498 0001:000032c5  1509 0001:000032e0  1510 0001:000032f2
  1511 0001:00003317  1514 0001:00003320  1515 0001:00003330  1516 0001:00003339
  1517 0001:00003342  1518 0001:0000334b  1519 0001:00003354  1520 0001:0000335d
  1521 0001:00003366  1525 0001:00003370  1526 0001:00003380  1530 0001:00003390
  1531 0001:00003399  1532 0001:000033a2  1534 0001:000033ab  1535 0001:000033c5
  1537 0001:000033df  1541 0001:000033f0  1542 0001:000033f7  1543 0001:00003411
  1547 0001:00003420  1548 0001:00003427  1549 0001:00003441  1554 0001:00003450
  1555 0001:00003457  1556 0001:0000345d  1560 0001:00003470  1561 0001:00003477
  1562 0001:0000347d

Line numbers for .\Debug\AboutDlg.obj(c:\program files\microsoft visual studio .net 2003\vc7\atlmfc\include\atlconv.h) segment .text

   134 0001:000002c0   138 0001:000002d3   139 0001:000002dd   140 0001:000002ea
   143 0001:000002fc   145 0001:00000306   147 0001:00000308   149 0001:00000312
   151 0001:00000323   152 0001:00000329    91 0001:00000340    92 0001:00000343
    93 0001:00000351   101 0001:00000360   102 0001:00000370   104 0001:00000377
   110 0001:00000380   112 0001:00000399   113 0001:0000039f   115 0001:000003a9
   116 0001:000003b2   117 0001:000003cb   120 0001:000003cd   121 0001:000003d3
   123 0001:000003dc   124 0001:000003df   127 0001:000003f0   128 0001:000003f3
   129 0001:000003f8

Line numbers for .\Debug\AboutDlg.obj(c:\code\smartpropoplus\34x\sppconsole\aboutdlg.cpp) segment .text

    21 0001:00000000    24 0001:00000048    28 0001:00000070    29 0001:00000077
    32 0001:00000083    35 0001:00000090    35 0001:000000a0    43 0001:000000b0
    46 0001:000000ce    47 0001:000000e2    48 0001:000000f2    51 0001:00000121
    53 0001:00000131    55 0001:00000141    56 0001:00000148    57 0001:0000014f
    59 0001:00000156    61 0001:00000168    62 0001:0000018a    64 0001:0000019c
    65 0001:000001a4    67 0001:000001cb

Line numbers for ../smartpropoplus/debug\smartpropoplus.lib(c:\code\smartpropoplus\34x\smartpropoplus\smartpropoplus.c) segment .text

     8 0001:00010130    14 0001:00010143    15 0001:0001014f    16 0001:00010170
    17 0001:00010190    18 0001:000101a9    21 0001:000101c0    22 0001:000101c3
    23 0001:000101d3    26 0001:000101e0    27 0001:000101e3    28 0001:000101f3
    54 0001:00010200    55 0001:00010203    56 0001:0001020f    92 0001:00010220
    94 0001:00010223    95 0001:0001022f   101 0001:00010240   103 0001:00010243
   104 0001:0001024f   110 0001:00010260   112 0001:00010263   113 0001:0001026f
   121 0001:00010280   128 0001:00010283   129 0001:0001028f   135 0001:000102a0
   136 0001:000102a3   137 0001:000102a8   141 0001:000102b0   142 0001:000102b6
   143 0001:000102bd   145 0001:00010318   147 0001:00010324   148 0001:0001033e
   149 0001:00010349   150 0001:00010352   152 0001:00010354   153 0001:00010359
   157 0001:00010360   162 0001:00010366   163 0001:00010384   165 0001:0001038a
   166 0001:00010394   169 0001:00010398   170 0001:000103a2   171 0001:000103a7
   178 0001:000103b0   182 0001:000103b4   183 0001:000103c8   186 0001:000103cd
   187 0001:000103d6   188 0001:000103dd   189 0001:000103e8   190 0001:000103ef
   191 0001:000103fa   192 0001:00010401   193 0001:0001040c   194 0001:00010413
   195 0001:00010415   198 0001:0001041c   200 0001:0001042c   201 0001:0001042f
   207 0001:00010440   208 0001:00010443   209 0001:00010453   212 0001:00010460
   219 0001:00010464   221 0001:0001046c   223 0001:0001046f   226 0001:00010480
   227 0001:00010483   229 0001:0001048f   232 0001:000104a0   233 0001:000104a3
   234 0001:000104a8   237 0001:000104b0   238 0001:000104b3   239 0001:000104bf
   242 0001:000104d0   246 0001:000104d6   248 0001:000104de   252 0001:000104e4
   253 0001:000104ec   256 0001:000104f1   257 0001:000104f3   260 0001:00010500
   261 0001:00010503   262 0001:0001050f   265 0001:00010520   266 0001:00010523
   267 0001:0001053b   269 0001:00010540   270 0001:00010543   272 0001:0001054f
   275 0001:00010560   276 0001:00010563   277 0001:00010573   285 0001:00010580
   286 0001:00010583   287 0001:00010588   290 0001:00010590   291 0001:00010593
   292 0001:0001059f   295 0001:000105b0   296 0001:000105b3   297 0001:000105c3
   308 0001:000105d0   310 0001:000105e4   314 0001:000105fe   315 0001:00010604
   318 0001:0001060b   319 0001:00010621   320 0001:00010627   323 0001:0001062e
   324 0001:00010647   325 0001:0001065e   326 0001:00010667   327 0001:0001066c
   330 0001:00010679   331 0001:00010692   332 0001:000106a9   333 0001:000106b2
   334 0001:000106b9   337 0001:000106c6   338 0001:000106cb

Line numbers for ../smartpropoplus/debug\smartpropoplus.lib(c:\code\smartpropoplus\34x\sppregistry\sppregistry.c) segment .text

    15 0001:000106e0    19 0001:000106e6    24 0001:000106ed    25 0001:000106f6
    26 0001:000106fd    27 0001:00010708    28 0001:0001070f    29 0001:0001071a
    30 0001:00010721    31 0001:0001072c    32 0001:00010733    33 0001:00010735
    36 0001:0001073c    37 0001:00010757    38 0001:0001075d    41 0001:00010761
    42 0001:0001077e    43 0001:00010784    44 0001:0001078b    45 0001:0001078d
    47 0001:00010794    48 0001:0001079e    49 0001:000107a1    59 0001:000107b0
    63 0001:000107b6    68 0001:000107bd    69 0001:000107c6    70 0001:000107cd
    71 0001:000107d8    72 0001:000107df    73 0001:000107ea    74 0001:000107f1
    75 0001:000107fc    76 0001:00010803    77 0001:00010805    80 0001:0001080c
    81 0001:0001082a    82 0001:00010830    85 0001:00010834    86 0001:0001084f
    87 0001:00010855    88 0001:0001085c    89 0001:0001085e    91 0001:00010865
    92 0001:0001086f    93 0001:00010872    98 0001:00010880   105 0001:00010886
   106 0001:0001088f   108 0001:00010894   109 0001:0001089d   112 0001:000108a2
   113 0001:000108bd   114 0001:000108c3   117 0001:000108c7   118 0001:000108ce
   119 0001:000108ec   120 0001:000108f2   122 0001:000108f6   123 0001:00010900
   124 0001:00010903   127 0001:00010910   134 0001:00010916   135 0001:0001091f
   137 0001:00010924   138 0001:0001092d   141 0001:00010932   142 0001:0001094d
   143 0001:00010953   146 0001:00010957   147 0001:0001095e   148 0001:0001097c
   149 0001:00010982   151 0001:00010989   152 0001:00010993   153 0001:00010996
   158 0001:000109a0   162 0001:000109a6   163 0001:000109cc   165 0001:000109d2
   166 0001:000109dc   168 0001:000109e0   169 0001:000109ea   170 0001:000109ef
   175 0001:00010a00   179 0001:00010a06   180 0001:00010a2c   181 0001:00010a32
   182 0001:00010a36   183 0001:00010a40   184 0001:00010a45   189 0001:00010a50
   193 0001:00010a56   194 0001:00010a5d   197 0001:00010a64   198 0001:00010a8a
   200 0001:00010a90   201 0001:00010a9a   205 0001:00010a9e   206 0001:00010aba
   208 0001:00010ad6   210 0001:00010adb   211 0001:00010ae5   212 0001:00010aea
   216 0001:00010af0   219 0001:00010af6   220 0001:00010b51   223 0001:00010b58
   224 0001:00010b7e   225 0001:00010b84   228 0001:00010b8b   230 0001:00010b97
   231 0001:00010bcf   232 0001:00010bd8   235 0001:00010bda   237 0001:00010c03
   238 0001:00010c0d   239 0001:00010c12   243 0001:00010c20   248 0001:00010c26
   249 0001:00010c2f   251 0001:00010c34   252 0001:00010c3d   255 0001:00010c42
   256 0001:00010c60   257 0001:00010c66   260 0001:00010c68   261 0001:00010c81
   262 0001:00010c87   264 0001:00010c89   265 0001:00010c93   269 0001:00010ca0
   274 0001:00010ca6   275 0001:00010caf   277 0001:00010cb4   278 0001:00010cbd
   281 0001:00010cc2   282 0001:00010ce0   283 0001:00010ce6   286 0001:00010ce8
   287 0001:00010d01   288 0001:00010d07   290 0001:00010d09   291 0001:00010d13
   296 0001:00010d20   299 0001:00010d34   303 0001:00010d4f   304 0001:00010d58
   306 0001:00010d5d   307 0001:00010d66   310 0001:00010d6b   311 0001:00010d86
   312 0001:00010d8c   315 0001:00010d90   316 0001:00010d9a   317 0001:00010dbe
   318 0001:00010dcd   320 0001:00010dd1   321 0001:00010de0   330 0001:00010df0
   333 0001:00010df6   335 0001:00010dfd   336 0001:00010e05   337 0001:00010e0b
   341 0001:00010e0f   342 0001:00010e2a   343 0001:00010e30   346 0001:00010e34
   347 0001:00010e51   348 0001:00010e5d   349 0001:00010e63   351 0001:00010e67
   352 0001:00010e71   353 0001:00010e76   356 0001:00010e80   359 0001:00010e86
   360 0001:00010e8d   364 0001:00010e94   365 0001:00010eaf   366 0001:00010eb5
   369 0001:00010ebc   370 0001:00010eda   371 0001:00010ee0   372 0001:00010ee9
   373 0001:00010eeb   375 0001:00010ef4   376 0001:00010f12   377 0001:00010f18
   378 0001:00010f21   379 0001:00010f23   381 0001:00010f2c   382 0001:00010f4a
   383 0001:00010f50   384 0001:00010f59   385 0001:00010f5b   387 0001:00010f64
   388 0001:00010f82   389 0001:00010f88   390 0001:00010f91   391 0001:00010f93
   393 0001:00010f9c   395 0001:00010f9f   399 0001:00010fb0   404 0001:00010fb6
   405 0001:00010fbf   407 0001:00010fc4   408 0001:00010fcd   411 0001:00010fd2
   412 0001:00010ff0   413 0001:00010ff6   416 0001:00010ff8   418 0001:0001101f
   419 0001:00011029   423 0001:00011030   428 0001:00011036   429 0001:0001103f
   431 0001:00011044   432 0001:0001104d   434 0001:00011052   435 0001:0001105b
   439 0001:00011060   440 0001:0001107e   441 0001:00011084   444 0001:00011086
   446 0001:0001109e   447 0001:000110a8   454 0001:000110b0   457 0001:000110b6
   458 0001:00011111   461 0001:00011118   462 0001:00011121   463 0001:00011129
   464 0001:00011147   465 0001:0001114d   468 0001:00011155   470 0001:00011161
   472 0001:0001117b   473 0001:00011184   479 0001:00011186   480 0001:000111a5
   481 0001:000111ab   484 0001:000111b0   486 0001:000111e3   487 0001:000111ed
   488 0001:000111f0   494 0001:00011200   499 0001:00011206   500 0001:0001120f
   501 0001:00011211   502 0001:0001122f   503 0001:00011235   506 0001:00011237
   507 0001:00011253   508 0001:0001125d   516 0001:00011270   521 0001:00011276
   522 0001:0001127f   523 0001:00011281   524 0001:0001129f   525 0001:000112a5
   528 0001:000112a7   529 0001:000112c3   530 0001:000112cd   535 0001:000112e0
   539 0001:000112e6   540 0001:000112ef   542 0001:000112f3   543 0001:000112fc
   546 0001:00011300   547 0001:0001131b   549 0001:00011321   550 0001:0001132b
   554 0001:0001132f   555 0001:00011349   557 0001:00011353   559 0001:00011359
   560 0001:00011363   563 0001:00011367   565 0001:0001136c   574 0001:00011370
   577 0001:00011376   603 0001:0001137d   604 0001:00011386   606 0001:0001138b
   607 0001:00011394   609 0001:00011399   619 0001:000113a2   620 0001:000113c0
   626 0001:000113c6   630 0001:000113ce   631 0001:000113ea   637 0001:000113f0
   641 0001:000113f5   652 0001:000113ff   653 0001:0001141a   659 0001:00011420
   665 0001:00011425   666 0001:0001142c   667 0001:0001144a   668 0001:00011454
   682 0001:0001145a   683 0001:00011460   685 0001:00011465   686 0001:00011468
   696 0001:00011470   705 0001:00011484   706 0001:00011495   707 0001:0001149f
   712 0001:000114ba   713 0001:000114c9   715 0001:000114ce   716 0001:000114dd
   719 0001:000114e2   720 0001:000114ed   721 0001:000114fc   722 0001:00011501
   723 0001:00011512   726 0001:00011517   727 0001:00011532   728 0001:00011538
   731 0001:0001153f   732 0001:00011549   733 0001:0001156d   738 0001:00011591
   739 0001:000115af   740 0001:000115b5   741 0001:000115bc   742 0001:000115f1
   743 0001:000115f7   746 0001:000115fe   747 0001:0001160d   749 0001:00011634
   750 0001:0001164d   752 0001:0001166e   753 0001:00011674   756 0001:00011679
   757 0001:00011688   758 0001:00011697   761 0001:000116cb   763 0001:000116e7
   764 0001:000116fd   765 0001:0001171b   766 0001:00011738   767 0001:0001174d
   768 0001:0001176f   769 0001:0001177b   771 0001:0001178a   773 0001:0001178f
   776 0001:0001179f   777 0001:000117ac   778 0001:000117b4   779 0001:000117c0
   780 0001:000117cc   782 0001:000117d8   783 0001:000117e5   784 0001:000117e8
   788 0001:00011800   792 0001:00011806   793 0001:00011824   795 0001:0001182a
   796 0001:00011834   799 0001:00011838   800 0001:00011842   802 0001:00011847
   812 0001:00011850   815 0001:00011864   818 0001:000118e6   820 0001:00011901
   821 0001:0001191f   823 0001:00011925   824 0001:00011932   826 0001:0001193a
   827 0001:0001196f   829 0001:00011975   830 0001:00011982   834 0001:00011987
   835 0001:0001198e   836 0001:0001199d   838 0001:000119ac   839 0001:000119d1
   841 0001:000119d7   842 0001:000119e4   844 0001:000119e8   845 0001:000119f1
   847 0001:000119f3   848 0001:00011a00   849 0001:00011a05   856 0001:00011a20
   859 0001:00011a34   862 0001:00011ab6   864 0001:00011ad1   865 0001:00011af2
   867 0001:00011af8   868 0001:00011b05   870 0001:00011b0d   871 0001:00011b42
   873 0001:00011b48   874 0001:00011b55   878 0001:00011b5d   879 0001:00011b64
   880 0001:00011b73   882 0001:00011b86   883 0001:00011bab   884 0001:00011bb1
   885 0001:00011bf8   886 0001:00011c01   888 0001:00011c06   889 0001:00011c13
   890 0001:00011c18   894 0001:00011c30   898 0001:00011c36   899 0001:00011c54
   900 0001:00011c5a   902 0001:00011c5e   903 0001:00011c68   905 0001:00011c6d
   909 0001:00011c80   914 0001:00011c86   915 0001:00011c8f   916 0001:00011c94
   917 0001:00011cb2   918 0001:00011cb8   921 0001:00011cbd   922 0001:00011ce7
   924 0001:00011cf1   925 0001:00011cf3   929 0001:00011d00   932 0001:00011d14
   936 0001:00011d2f   937 0001:00011d38   939 0001:00011d3d   940 0001:00011d46
   943 0001:00011d4b   944 0001:00011d66   945 0001:00011d6c   948 0001:00011d70
   949 0001:00011d7a   950 0001:00011d9e   951 0001:00011dad   953 0001:00011db1
   954 0001:00011dc0   957 0001:00011dd0   962 0001:00011dd6   963 0001:00011ddf
   966 0001:00011de3   967 0001:00011dfe   968 0001:00011e04   971 0001:00011e08
   972 0001:00011e0f   973 0001:00011e2d   974 0001:00011e4b   975 0001:00011e57
   977 0001:00011e5b   978 0001:00011e60   981 0001:00011e70   986 0001:00011e76
   987 0001:00011e7f   988 0001:00011e81   989 0001:00011e9f   990 0001:00011ea5
   993 0001:00011ea7   994 0001:00011ec3   995 0001:00011edf   996 0001:00011ee9
   999 0001:00011ef0  1006 0001:00011ef6  1007 0001:00011eff  1009 0001:00011f04
  1010 0001:00011f0d  1013 0001:00011f12  1014 0001:00011f2d  1015 0001:00011f33
  1018 0001:00011f37  1019 0001:00011f3e  1020 0001:00011f5c  1021 0001:00011f62
  1023 0001:00011f67  1025 0001:00011f71  1026 0001:00011f74  1029 0001:00011f80
  1034 0001:00011f86  1035 0001:00011f8f  1036 0001:00011f91  1037 0001:00011faf
  1038 0001:00011fb5  1041 0001:00011fb7  1042 0001:00011fd3  1043 0001:00011fdd
  1059 0001:00011ff0  1062 0001:00012004  1070 0001:0001201e  1071 0001:0001202a
  1074 0001:00012034  1075 0001:0001203d  1077 0001:00012042  1078 0001:0001204b
  1081 0001:00012050  1082 0001:0001206e  1083 0001:00012074  1086 0001:0001207b
  1087 0001:00012084  1088 0001:000120ab  1089 0001:000120b1  1092 0001:000120b8
  1093 0001:000120c3  1099 0001:000120cd  1100 0001:000120f5  1101 0001:00012114
  1102 0001:00012128  1105 0001:0001213b  1106 0001:00012152  1107 0001:0001215b
  1109 0001:00012160  1110 0001:0001216d  1112 0001:00012172  1115 0001:00012190
  1118 0001:000121a4  1122 0001:000121be  1123 0001:000121dc  1124 0001:000121e2
  1127 0001:000121e6  1128 0001:000121ef  1129 0001:00012213  1130 0001:00012219
  1132 0001:0001221d  1133 0001:00012222

Line numbers for \Code\SmartPropoPlus\34x\FilterIf\Debug\FilterIf.lib(c:\program files\microsoft visual studio .net 2003\vc7\include\tchar.h) segment .text

   854 0001:000127a0

Line numbers for \Code\SmartPropoPlus\34x\FilterIf\Debug\FilterIf.lib(c:\code\smartpropoplus\34x\filterif\filterif.cpp) segment .text

    11 0001:00012320    14 0001:00012352    17 0001:00012360    18 0001:0001236e
    21 0001:00012380    23 0001:0001239f    24 0001:000123bd    25 0001:000123c6
    28 0001:000123cd    29 0001:000123eb    30 0001:000123f1    33 0001:000123f5
    34 0001:00012407    35 0001:00012413    39 0001:00012417    40 0001:00012435
    41 0001:0001243b    42 0001:0001243f    43 0001:00012450    44 0001:00012452
    47 0001:00012470    48 0001:0001247e    49 0001:00012483    52 0001:00012490
    54 0001:000124ae    55 0001:000124b6    56 0001:000124cc    61 0001:000124d4
    62 0001:000124f2    63 0001:000124f8    64 0001:00012500    66 0001:0001251c
    67 0001:0001252f    69 0001:00012543    70 0001:0001255f    72 0001:00012564
    73 0001:00012566    74 0001:00012582    75 0001:00012585    78 0001:000125a0
    80 0001:000125b8    81 0001:000125d6    82 0001:000125dc    84 0001:000125e0
    85 0001:000125f0    88 0001:00012610    90 0001:00012628    91 0001:00012646
    92 0001:0001264c    93 0001:00012651    94 0001:00012657    95 0001:0001265e
    96 0001:00012660    98 0001:00012667    99 0001:00012677   102 0001:00012690
   104 0001:000126a8   105 0001:000126c6   106 0001:000126cc   108 0001:000126d0
   109 0001:000126e8   112 0001:00012700   115 0001:00012720   116 0001:0001272b
   119 0001:00012730   120 0001:00012736   121 0001:0001273e   124 0001:00012755
   125 0001:0001275f   126 0001:00012765

Line numbers for C:\Program Files\Microsoft Visual Studio .NET 2003\Vc7\atlmfc\lib\mfcs71d.lib(f:\vs70builds\6030\vc\mfcatl\ship\atlmfc\src\mfc\appmodul.cpp) segment .text

    22 0001:0001b580    24 0001:0001b583    25 0001:0001b598    31 0001:0001b5a0
    32 0001:0001b5a4    33 0001:0001b5ac    34 0001:0001b5b5    37 0001:0001b5cf
    41 0001:0001b5db    42 0001:0001b5e1    44 0001:0001b5ec    45 0001:0001b5f1
    66 0001:0001c730

Line numbers for C:\Program Files\Microsoft Visual Studio .NET 2003\Vc7\atlmfc\lib\mfcs71d.lib(f:\vs70builds\6030\vc\mfcatl\ship\atlmfc\include\atlbase.h) segment .text

  2620 0001:0001c230

Line numbers for C:\Program Files\Microsoft Visual Studio .NET 2003\Vc7\atlmfc\lib\mfcs71d.lib(f:\vs70builds\6030\vc\mfcatl\ship\atlmfc\include\atlconv.h) segment .text

   573 0001:00013330   574 0001:00013334   575 0001:0001335c   576 0001:00013384
   577 0001:00013390   581 0001:00013394   582 0001:0001339a   583 0001:000133bb
   585 0001:000133c1   586 0001:000133e7   588 0001:000133eb   589 0001:000133ee
   554 0001:00013780   555 0001:00013784   556 0001:000137ac   557 0001:000137d4
   558 0001:000137e0   562 0001:000137e4   563 0001:000137ec   564 0001:00013809
   566 0001:0001380f   567 0001:00013835   569 0001:00013839   570 0001:0001383c
   419 0001:00013970   420 0001:00013982   421 0001:00013994   442 0001:000139a0
   443 0001:000139a9   445 0001:000139af   446 0001:000139b8   448 0001:000139ba
   449 0001:000139ca   451 0001:000139d2   453 0001:000139db   454 0001:000139ed
   456 0001:000139f5   460 0001:000139ff   462 0001:00013a25   464 0001:00013a2a

Line numbers for C:\Program Files\Microsoft Visual Studio .NET 2003\Vc7\atlmfc\lib\mfcs71d.lib(f:\vs70builds\6030\vc\mfcatl\ship\atlmfc\include\cstringt.h) segment .text

   183 0001:00012ef0   185 0001:00012ef3   187 0001:00012f0b   188 0001:00012f1d
   159 0001:00012f30   162 0001:00012f58   163 0001:00012f6a   165 0001:00012f7d
   166 0001:00012f96   167 0001:00012f9c   169 0001:00012fd2   170 0001:00012fe3
   172 0001:00013005   173 0001:0001302b   174 0001:00013031   175 0001:00013069
   176 0001:00013096   178 0001:000130bd   179 0001:000130f0   216 0001:00013110
   217 0001:00013113   219 0001:0001312b   220 0001:00013149   192 0001:00013150
   193 0001:0001316b   195 0001:00013197   196 0001:0001319e   198 0001:000131a8
   199 0001:00013230   200 0001:00013236   203 0001:00013240   204 0001:00013247
   206 0001:00013251   207 0001:000132d9   208 0001:000132df   211 0001:000132e9
   212 0001:0001331c   240 0001:00013400   241 0001:00013403   243 0001:0001341b
   244 0001:00013435   224 0001:00013440   226 0001:00013468   228 0001:0001347a
   229 0001:0001349e   230 0001:000134b0   232 0001:000134dd   233 0001:000134e3
   235 0001:000134ed   236 0001:00013530   254 0001:00013550   255 0001:00013553
   257 0001:0001356b   258 0001:00013579   247 0001:00013580   248 0001:00013586
   250 0001:000135a3   251 0001:0001364f   273 0001:00013660   274 0001:00013663
   276 0001:0001367b   277 0001:00013685   261 0001:00013690   262 0001:00013696
   265 0001:000136b3   266 0001:00013708   267 0001:00013712   269 0001:00013773
   270 0001:00013776   292 0001:00013850   293 0001:00013853   295 0001:0001386b
   296 0001:00013875   280 0001:00013880   281 0001:00013886   284 0001:000138a3
   285 0001:000138f8   286 0001:00013902   288 0001:00013963   289 0001:00013966

Line numbers for C:\Program Files\Microsoft Visual Studio .NET 2003\Vc7\lib\msvcrtd.lib(F:\VS70Builds\3077\vc\crtbld\crt\src\intel\chkstk.asm) segment .text

    69 0001:00013ac0    65 0001:00013ac0    70 0001:00013ac5    72 0001:00013ac7
    73 0001:00013ac9    74 0001:00013acb    75 0001:00013ace    76 0001:00013ad0
    77 0001:00013ad1    78 0001:00013ad3    79 0001:00013ad4    82 0001:00013ad5
    83 0001:00013ad6    88 0001:00013ada    89 0001:00013ae0    91 0001:00013ae5
    93 0001:00013ae7    94 0001:00013aec    97 0001:00013aee    98 0001:00013af0
   100 0001:00013af2   102 0001:00013af4   104 0001:00013af6   105 0001:00013af8
   107 0001:00013afb   109 0001:00013afc

Line numbers for C:\Program Files\Microsoft Visual Studio .NET 2003\Vc7\lib\msvcrtd.lib(f:\vs70builds\3077\vc\crtbld\crt\src\atonexit.c) segment .text

    76 0001:00013d10    81 0001:00013d14    90 0001:00013d4b    95 0001:00013d50
    96 0001:00013d53    97 0001:00013d66

Line numbers for C:\Program Files\Microsoft Visual Studio .NET 2003\Vc7\lib\msvcrtd.lib(f:\vs70builds\3077\vc\crtbld\crt\src\crtexe.c) segment .text

   202 0001:00013e70   214 0001:00013e96   222 0001:00013e9d   229 0001:00013ea5
   234 0001:00013eac   244 0001:00013eb7   249 0001:00013ecb   250 0001:00013ed9
   257 0001:00013ee7   264 0001:00013ef4   275 0001:00013ef9   282 0001:00013efe
   283 0001:00013f07   286 0001:00013f15   305 0001:00013f1a   308 0001:00013f2c
   324 0001:00013f39   327 0001:00013f42   329 0001:00013f68   330 0001:00013f71
   336 0001:00013f7b   349 0001:00013f8d   353 0001:00013f98   358 0001:00013fb3
   360 0001:00013fca   361 0001:00013fde   362 0001:00013fe4   366 0001:00013fed
   367 0001:00013ff6   372 0001:00013ff8   373 0001:0001400d   374 0001:00014016
   376 0001:00014018   377 0001:0001401f   390 0001:00014029   403 0001:00014068
   404 0001:0001406e   406 0001:0001407b   409 0001:0001408a   415 0001:000140ae
   417 0001:000140ba   418 0001:000140c0   420 0001:000140cd   424 0001:000140da
   425 0001:000140e0   448 0001:00014100   454 0001:00014106   455 0001:00014111
   456 0001:0001411f   459 0001:00014126   460 0001:00014132   461 0001:0001413d
   463 0001:00014141   464 0001:0001414a   468 0001:00014167   469 0001:00014170
   472 0001:00014174   475 0001:00014187   477 0001:0001418d   478 0001:00014196
   481 0001:0001419a   485 0001:000141ab   486 0001:000141ad

Line numbers for C:\Program Files\Microsoft Visual Studio .NET 2003\Vc7\lib\msvcrtd.lib(f:\vs70builds\3077\vc\crtbld\crt\src\dllargv.c) segment .text

    48 0001:000144c0    49 0001:000144c3    50 0001:000144c5

Line numbers for C:\Program Files\Microsoft Visual Studio .NET 2003\Vc7\lib\msvcrtd.lib(f:\vs70builds\3077\vc\crtbld\crt\src\merr.c) segment .text

    32 0001:000144b0    33 0001:000144b3    34 0001:000144b5

Line numbers for C:\Program Files\Microsoft Visual Studio .NET 2003\Vc7\lib\msvcrtd.lib(f:\vs70builds\3077\vc\crtbld\crt\src\ti_inst.cpp) segment .text

    17 0001:0001b600    18 0001:0001b610    21 0001:0001b690    22 0001:0001b697
    23 0001:0001b69a

Line numbers for C:\Program Files\Microsoft Visual Studio .NET 2003\Vc7\lib\msvcrtd.lib(f:\vs70builds\3077\vc\crtbld\crt\src\intel\fp8.c) segment .text

    18 0001:00014490    19 0001:00014493    20 0001:000144a5

Line numbers for C:\Program Files\Microsoft Visual Studio .NET 2003\Vc7\lib\msvcrtd.lib(f:\vs70builds\3077\vc\crtbld\crt\src\secchk.c) segment .text

   103 0001:00013a40   100 0001:00013a40   104 0001:00013a46   105 0001:00013a48
   107 0001:00013a49   114 0001:00013a50   116 0001:00013a76   117 0001:00013a7d
   119 0001:00013a92   123 0001:00013aa2   124 0001:00013aaa

Line numbers for C:\Program Files\Microsoft Visual Studio .NET 2003\Vc7\lib\msvcrtd.lib(f:\vs70builds\3077\vc\crtbld\crt\src\seccinit.c) segment .text

    49 0001:000142b0    58 0001:000142b6    59 0001:000142cb    67 0001:000142cd
    69 0001:000142d7    70 0001:000142dd    75 0001:000142e6    76 0001:000142f2
    77 0001:000142fe    79 0001:0001430a    81 0001:00014314    82 0001:0001431d
    93 0001:00014326    94 0001:00014340

Line numbers for C:\Program Files\Microsoft Visual Studio .NET 2003\Vc7\atlmfc\lib\atlsd.lib(f:\vs70builds\6030\vc\mfcatl\ship\atlmfc\include\atlbase.h) segment .text

  2620 0001:0001c6f0

Line numbers for C:\Program Files\Microsoft Visual Studio .NET 2003\Vc7\atlmfc\lib\atlsd.lib(f:\vs70builds\6030\vc\mfcatl\ship\atlmfc\include\atlsimpcoll.h) segment .text

   139 0001:0001ad90   140 0001:0001ad99   143 0001:0001ada7   144 0001:0001adca
   145 0001:0001ade2   146 0001:0001ade8   147 0001:0001adec   148 0001:0001adf5
   150 0001:0001adfd   151 0001:0001ae10   152 0001:0001ae1f   153 0001:0001ae24
   135 0001:0001ae30   136 0001:0001ae37   137 0001:0001ae3d   139 0001:0001ae50
   140 0001:0001ae59   143 0001:0001ae67   144 0001:0001ae8a   145 0001:0001aea2
   146 0001:0001aea8   147 0001:0001aeac   148 0001:0001aeb5   150 0001:0001aebd
   151 0001:0001aed0   152 0001:0001aedf   153 0001:0001aee4   162 0001:0001aef0
   163 0001:0001aef7   164 0001:0001af29   165 0001:0001af3a   167 0001:0001af3e
   168 0001:0001af4c   169 0001:0001af7f   170 0001:0001af8e   171 0001:0001af93
   194 0001:0001afa0   195 0001:0001afa7   196 0001:0001afd9   198 0001:0001afea
   200 0001:0001aff6   201 0001:0001b001   246 0001:0001b010   247 0001:0001b019
   248 0001:0001b050   246 0001:0001b060   247 0001:0001b069   248 0001:0001b0a0
   230 0001:0001b0b0   231 0001:0001b0cd   230 0001:0001b0e0   231 0001:0001b0f1
   233 0001:0001b100   235 0001:0001b103   236 0001:0001b106   233 0001:0001b110
   235 0001:0001b113   236 0001:0001b116

Line numbers for C:\Program Files\Microsoft Visual Studio .NET 2003\Vc7\atlmfc\lib\atlsd.lib(f:\vs70builds\6030\vc\mfcatl\ship\atlmfc\src\atl\atls\atltracemodulemanager.h) segment .text

   158 0001:0001ab60   163 0001:0001ab90   159 0001:0001abb0   165 0001:0001abe0
   162 0001:0001ac00   166 0001:0001ac20    66 0001:0001ac40    67 0001:0001ac49
    69 0001:0001ac52    71 0001:0001ac56    72 0001:0001ac66    75 0001:0001ac6c
    78 0001:0001ac70    79 0001:0001ac72    83 0001:0001ac80    84 0001:0001ac87
    85 0001:0001acab    86 0001:0001acb4   167 0001:0001acc0    91 0001:0001acf0
    92 0001:0001acf9    93 0001:0001ad09    96 0001:0001ad18   100 0001:0001ad1c
   102 0001:0001ad24   104 0001:0001ad26   108 0001:0001ad30   109 0001:0001ad39
   110 0001:0001ad49   113 0001:0001ad4f   115 0001:0001ad59   168 0001:0001ad60

Line numbers for C:\Program Files\Microsoft Visual Studio .NET 2003\Vc7\atlmfc\lib\atlsd.lib(f:\vs70builds\6030\vc\mfcatl\ship\atlmfc\src\atl\atls\allocate.cpp) segment .text

    22 0001:00019cb0    24 0001:00019cd6    26 0001:00019ce0    28 0001:00019d10
    29 0001:00019d17    31 0001:00019d1e    35 0001:00019d2b    36 0001:00019d40
    38 0001:00019d46    40 0001:00019d50    41 0001:00019d5a    42 0001:00019d61
    48 0001:00019d66    49 0001:00019d85    50 0001:00019d8e    51 0001:00019d93
    54 0001:00019d9c    55 0001:00019dba    56 0001:00019dc3    59 0001:00019dc8
    61 0001:00019dd2    63 0001:00019ddf    69 0001:00019deb    72 0001:00019e48
    76 0001:00019e4d    77 0001:00019e58    79 0001:00019e69    80 0001:00019e76
    82 0001:00019e82    87 0001:00019e87    88 0001:00019e8d    89 0001:00019e96
    91 0001:00019ea1    92 0001:00019ebd    94 0001:00019ebf    95 0001:00019efd
    96 0001:00019f0c    98 0001:00019f1c    99 0001:00019f25   103 0001:00019f3d
   107 0001:00019f43   108 0001:00019f52   109 0001:00019f76   112 0001:00019f80
   114 0001:00019f8b   116 0001:00019f94   117 0001:00019fa1   120 0001:00019fab
   122 0001:00019fb4   123 0001:00019fc1   127 0001:00019fcc   128 0001:00019fd2
   131 0001:00019ff0   132 0001:0001a016   134 0001:0001a020   136 0001:0001a027
   137 0001:0001a03b   138 0001:0001a044   141 0001:0001a046   142 0001:0001a064
   143 0001:0001a06d   145 0001:0001a06f   146 0001:0001a07b   149 0001:0001a086
   150 0001:0001a090   152 0001:0001a099   156 0001:0001a0ae   158 0001:0001a0b9
   160 0001:0001a0c2   161 0001:0001a0cf   163 0001:0001a0d9   165 0001:0001a0e2
   166 0001:0001a0ef   169 0001:0001a0f9   172 0001:0001a104   173 0001:0001a10a
   176 0001:0001a120   177 0001:0001a127   179 0001:0001a132   180 0001:0001a149
   181 0001:0001a156   183 0001:0001a160   184 0001:0001a16d   186 0001:0001a177
   188 0001:0001a17e   191 0001:0001a190   192 0001:0001a199   194 0001:0001a19f
   196 0001:0001a1a3   197 0001:0001a1d4   199 0001:0001a1e4   200 0001:0001a1f3
   203 0001:0001a201   204 0001:0001a203   244 0001:0001a210   245 0001:0001a219
   246 0001:0001a229   248 0001:0001a22d   249 0001:0001a264   250 0001:0001a26b
   252 0001:0001a271   253 0001:0001a285   255 0001:0001a29b   256 0001:0001a29e
   259 0001:0001a2b0   260 0001:0001a2b9   261 0001:0001a2c0   262 0001:0001a2cf
   263 0001:0001a2f6   265 0001:0001a2fc   268 0001:0001a30b   269 0001:0001a30e
   272 0001:0001a320   273 0001:0001a329   274 0001:0001a330   275 0001:0001a338
   277 0001:0001a33e   278 0001:0001a34d   279 0001:0001a353   280 0001:0001a355
   281 0001:0001a35e   282 0001:0001a367   283 0001:0001a369   284 0001:0001a36c
   287 0001:0001a380   288 0001:0001a387   289 0001:0001a3b1   290 0001:0001a3bc
   295 0001:0001a3c0   296 0001:0001a3c9   297 0001:0001a3cf   298 0001:0001a3f1
   300 0001:0001a415   301 0001:0001a41d   304 0001:0001a421   305 0001:0001a425
   308 0001:0001a430   311 0001:0001a439   312 0001:0001a444   313 0001:0001a46b
   314 0001:0001a472   316 0001:0001a47c   318 0001:0001a4a9   319 0001:0001a4b8
   320 0001:0001a4df   321 0001:0001a4f0   323 0001:0001a4f8   324 0001:0001a504
   325 0001:0001a50d   326 0001:0001a524   328 0001:0001a52a   329 0001:0001a52f
   331 0001:0001a539   332 0001:0001a540   333 0001:0001a54f   334 0001:0001a564
   335 0001:0001a579   337 0001:0001a591   338 0001:0001a5a0   339 0001:0001a5ce
   340 0001:0001a5d0   342 0001:0001a5da   344 0001:0001a5df   345 0001:0001a5e2
   350 0001:0001a5f0   351 0001:0001a5f9   352 0001:0001a600   353 0001:0001a60b
   354 0001:0001a632   355 0001:0001a641   357 0001:0001a64b   359 0001:0001a659
   361 0001:0001a663   363 0001:0001a690   364 0001:0001a69f   365 0001:0001a6c6
   366 0001:0001a6d1   368 0001:0001a6d9   369 0001:0001a6ef   370 0001:0001a6fa
   371 0001:0001a70b   372 0001:0001a713   373 0001:0001a720   375 0001:0001a726
   377 0001:0001a72b   379 0001:0001a735   380 0001:0001a73c   381 0001:0001a756
   382 0001:0001a76b   383 0001:0001a780   385 0001:0001a798   386 0001:0001a7a7
   387 0001:0001a7d5   388 0001:0001a7d7   390 0001:0001a7e1   392 0001:0001a7e6
   395 0001:0001a7f4   397 0001:0001a7fe   398 0001:0001a801   401 0001:0001a810
   402 0001:0001a819   403 0001:0001a828   405 0001:0001a82e   406 0001:0001a836
   408 0001:0001a83c   409 0001:0001a84b   411 0001:0001a851   412 0001:0001a85f
   414 0001:0001a863   415 0001:0001a86c   416 0001:0001a879   417 0001:0001a881
   418 0001:0001a889   420 0001:0001a88b   421 0001:0001a899   423 0001:0001a89d
   424 0001:0001a89f   427 0001:0001a8b0   428 0001:0001a8b7   429 0001:0001a8c1
   432 0001:0001a8d0   433 0001:0001a8d9   435 0001:0001a8e4   438 0001:0001a8ec
   439 0001:0001a8f7   441 0001:0001a915   442 0001:0001a924   443 0001:0001a935
   446 0001:0001a941   447 0001:0001a94a   448 0001:0001a958   450 0001:0001a961
   451 0001:0001a969   452 0001:0001a96d   453 0001:0001a974   455 0001:0001a986
   456 0001:0001a995   457 0001:0001a9a0   459 0001:0001a9a8   461 0001:0001a9b9
   462 0001:0001a9bd   464 0001:0001a9c5   466 0001:0001a9c7   467 0001:0001a9dc
   468 0001:0001a9e5   471 0001:0001a9ee   473 0001:0001a9f6   475 0001:0001a9fa
   476 0001:0001a9ff   478 0001:0001aa07   480 0001:0001aa21   481 0001:0001aa38
   482 0001:0001aa4a   483 0001:0001aa5d   484 0001:0001aa5f   486 0001:0001aa6d
   488 0001:0001aa6f   491 0001:0001aa7b   493 0001:0001aa80   494 0001:0001aa87
   497 0001:0001aa90   498 0001:0001aa99   500 0001:0001aaa8   502 0001:0001aac7
   503 0001:0001aae4   504 0001:0001aaea   505 0001:0001aaf8   506 0001:0001aafa
   508 0001:0001ab1c   509 0001:0001ab39   510 0001:0001ab3f   511 0001:0001ab47
   512 0001:0001ab49   514 0001:0001ab50

Line numbers for C:\Program Files\Microsoft Visual Studio .NET 2003\Vc7\atlmfc\lib\atlsd.lib(f:\vs70builds\6030\vc\mfcatl\ship\atlmfc\include\atlbase.h) segment .text

  2620 0001:0001c6d0

Line numbers for C:\Program Files\Microsoft Visual Studio .NET 2003\Vc7\atlmfc\lib\atlsd.lib(f:\vs70builds\6030\vc\mfcatl\ship\atlmfc\include\atlsimpcoll.h) segment .text

    97 0001:000199a0   100 0001:000199d0   101 0001:000199d7   102 0001:000199df
   135 0001:000199f0   136 0001:000199f7   137 0001:000199fd   139 0001:00019a10
   140 0001:00019a19   143 0001:00019a27   144 0001:00019a4a   145 0001:00019a62
   146 0001:00019a68   147 0001:00019a6c   148 0001:00019a75   150 0001:00019a7d
   151 0001:00019a90   152 0001:00019a9f   153 0001:00019aa4   162 0001:00019ab0
   163 0001:00019ab7   164 0001:00019ae9   165 0001:00019afa   167 0001:00019afe
   168 0001:00019b0c   169 0001:00019b3f   170 0001:00019b4e   171 0001:00019b53
   194 0001:00019b60   195 0001:00019b67   196 0001:00019b99   198 0001:00019baa
   200 0001:00019bb6   201 0001:00019bc1   173 0001:00019bd0   174 0001:00019bd9
   176 0001:00019be1   177 0001:00019bfe   178 0001:00019c00   179 0001:00019c0e
   181 0001:00019c17   182 0001:00019c21   183 0001:00019c2b   246 0001:00019c30
   247 0001:00019c39   248 0001:00019c70   230 0001:00019c80   231 0001:00019c91
   233 0001:00019ca0   235 0001:00019ca3   236 0001:00019ca6

Line numbers for C:\Program Files\Microsoft Visual Studio .NET 2003\Vc7\atlmfc\lib\atlsd.lib(f:\vs70builds\6030\vc\mfcatl\ship\atlmfc\src\atl\atls\atlbase.cpp) segment .text

    29 0001:00019510    30 0001:00019534    32 0001:00019540    34 0001:0001955f
    36 0001:00019569    37 0001:0001957f    38 0001:00019589    39 0001:00019596
    41 0001:0001959f    43 0001:000195a8    46 0001:000195b2    49 0001:000195bd
    51 0001:000195d8    55 0001:000195e2    56 0001:000195ef    58 0001:000195fc
    60 0001:0001960e    61 0001:0001963b    62 0001:0001965d    64 0001:00019664
    67 0001:00019680    68 0001:00019687    69 0001:00019692    72 0001:000196a0
    73 0001:000196a9    74 0001:000196ba    76 0001:000196c6    77 0001:000196f0
    78 0001:00019712    80 0001:00019723    81 0001:00019746    84 0001:00019750
    85 0001:00019759    86 0001:0001976a    88 0001:00019776    89 0001:000197a0
    90 0001:000197c2    92 0001:000197d3    94 0001:000197f5    96 0001:0001980b
    97 0001:0001981a    99 0001:0001982b   100 0001:0001982d   101 0001:0001983c
   103 0001:00019850   104 0001:00019859   105 0001:0001986a   107 0001:00019876
   108 0001:000198a0   109 0001:000198c2   111 0001:000198d6   113 0001:000198ec
   116 0001:00019900   118 0001:00019910   121 0001:00019926   122 0001:00019945
   126 0001:0001c6b0

Line numbers for C:\Program Files\Microsoft Visual Studio .NET 2003\Vc7\atlmfc\lib\atlsd.lib(f:\vs70builds\6030\vc\mfcatl\ship\atlmfc\include\atlbase.h) segment .text

  2620 0001:0001c670

Line numbers for C:\Program Files\Microsoft Visual Studio .NET 2003\Vc7\atlmfc\lib\atlsd.lib(f:\vs70builds\6030\vc\mfcatl\ship\atlmfc\include\atlsimpcoll.h) segment .text

   135 0001:000181e0   136 0001:000181e7   137 0001:000181ed   194 0001:00018200
   195 0001:00018207   196 0001:00018239   198 0001:0001824a   200 0001:00018256
   201 0001:00018261

Line numbers for C:\Program Files\Microsoft Visual Studio .NET 2003\Vc7\atlmfc\lib\atlsd.lib(f:\vs70builds\6030\vc\mfcatl\ship\atlmfc\src\atl\atls\atltracemodulemanager.h) segment .text

   124 0001:00018110    25 0001:00018160    26 0001:00018180   161 0001:000181a0
   144 0001:000181c0

Line numbers for C:\Program Files\Microsoft Visual Studio .NET 2003\Vc7\atlmfc\lib\atlsd.lib(f:\vs70builds\6030\vc\mfcatl\ship\atlmfc\src\atl\atls\allocate.h) segment .text

    55 0001:000180f0

Line numbers for C:\Program Files\Microsoft Visual Studio .NET 2003\Vc7\atlmfc\lib\atlsd.lib(f:\vs70builds\6030\vc\mfcatl\ship\atlmfc\src\atl\atls\atldebugapi.cpp) segment .text

    25 0001:00016f50    27 0001:00016f54    29 0001:00016f67    31 0001:00016f6d
    32 0001:00016f77    34 0001:00016f81    39 0001:00016f90    40 0001:00016f96
    41 0001:00016fa7    42 0001:00016fb8    43 0001:00016fdc    45 0001:00016fe2
    46 0001:00016fee    49 0001:00016ff3    50 0001:00016ff9    53 0001:00017000
    54 0001:00017004    55 0001:0001700d    57 0001:0001701b    59 0001:00017020
    60 0001:00017025    63 0001:00017030    64 0001:00017036    65 0001:00017053
    66 0001:00017059    67 0001:0001705d    68 0001:000170ba    71 0001:000170d0
    72 0001:000170d6    73 0001:000170dc    75 0001:000170e0    77 0001:000170e9
    78 0001:000170fe    80 0001:00017103    81 0001:00017109    86 0001:00017110
    87 0001:00017116    89 0001:0001711c    91 0001:00017122    95 0001:00017129
    96 0001:00017134    97 0001:00017158    99 0001:0001715e   100 0001:0001716a
   101 0001:0001717c   102 0001:0001718e   105 0001:000171a0   106 0001:000171a5
   109 0001:000171b0   110 0001:000171b6   112 0001:000171bc   114 0001:000171c2
   118 0001:000171c9   120 0001:000171d2   121 0001:000171e1   122 0001:00017205
   124 0001:0001720b   127 0001:00017225   128 0001:00017232   130 0001:00017234
   131 0001:00017241   133 0001:00017243   134 0001:00017250   136 0001:00017252
   139 0001:00017277   142 0001:00017283   143 0001:00017288   147 0001:00017290
   148 0001:00017296   150 0001:0001729c   152 0001:000172a2   156 0001:000172a9
   157 0001:000172b2   158 0001:000172c1   160 0001:000172c7   163 0001:000172e1
   164 0001:000172eb   166 0001:000172ed   167 0001:000172f7   169 0001:000172f9
   170 0001:00017303   172 0001:00017305   175 0001:0001732a   177 0001:00017332
   178 0001:00017337   182 0001:00017340   183 0001:00017346   185 0001:0001734c
   187 0001:00017352   191 0001:00017359   192 0001:00017364   193 0001:0001738b
   195 0001:00017391   196 0001:00017397   197 0001:000173a5   198 0001:000173ab
   199 0001:000173ba   200 0001:000173c0   201 0001:000173cf   202 0001:000173d5
   205 0001:000173e4   206 0001:000173e9   209 0001:000173f0   210 0001:000173f6
   212 0001:000173fc   214 0001:00017402   218 0001:00017409   219 0001:00017412
   220 0001:00017421   221 0001:00017448   223 0001:00017452   225 0001:00017458
   228 0001:00017466   230 0001:0001746c   233 0001:0001748c   234 0001:00017495
   236 0001:00017497   237 0001:000174a0   239 0001:000174a2   240 0001:000174ab
   242 0001:000174ad   247 0001:000174d2   248 0001:000174d7   252 0001:000174e0
   253 0001:000174e6   255 0001:000174ec   257 0001:000174f2   261 0001:000174f9
   262 0001:00017502   263 0001:00017511   264 0001:00017538   266 0001:0001753e
   268 0001:00017544   271 0001:0001754e   273 0001:00017554   276 0001:00017571
   277 0001:0001757a   279 0001:0001757c   280 0001:00017585   282 0001:00017587
   288 0001:00017590   289 0001:00017595   292 0001:000175a0   293 0001:000175a3
   294 0001:000175b2   295 0001:000175b4   296 0001:000175c4   299 0001:000175d0
   300 0001:000175d6   301 0001:000175f3   302 0001:00017602   303 0001:00017604
   304 0001:00017664   308 0001:00017670   310 0001:00017684   312 0001:0001768b
   313 0001:000176a4   315 0001:000176ae   317 0001:000176d2   319 0001:000176e7
   320 0001:0001771c   321 0001:00017725   322 0001:0001772f   323 0001:00017731
   326 0001:00017743   328 0001:0001775e   329 0001:00017794   330 0001:0001779d
   331 0001:000177a7   332 0001:000177a9   335 0001:000177bb   336 0001:000177e5
   338 0001:000177e9   339 0001:000177ef   340 0001:00017809   341 0001:0001780b
   343 0001:00017818   347 0001:00017830   349 0001:00017844   350 0001:0001784b
   351 0001:00017855   352 0001:0001786f   354 0001:00017879   356 0001:0001789d
   358 0001:000178b2   359 0001:000178e7   360 0001:000178f0   361 0001:000178fa
   362 0001:000178fc   365 0001:0001790e   367 0001:00017929   368 0001:0001795f
   369 0001:00017968   370 0001:00017972   371 0001:00017974   374 0001:00017986
   375 0001:000179b0   377 0001:000179b6   378 0001:000179bc   379 0001:000179d6
   380 0001:000179d8   383 0001:000179e5   386 0001:00017a00   387 0001:00017a10
   390 0001:00017a3d   391 0001:00017a5c   392 0001:00017a60   394 0001:00017a73
   395 0001:00017a9b   398 0001:00017a9f   399 0001:00017aa2   402 0001:00017ac0
   403 0001:00017ac6   404 0001:00017acc   405 0001:00017ad6   406 0001:00017afe
   409 0001:00017b10   410 0001:00017b14   411 0001:00017b1a   412 0001:00017b22
   415 0001:00017b30   416 0001:00017b36   418 0001:00017b5d   419 0001:00017b63
   420 0001:00017b8f   421 0001:00017b9a   423 0001:00017bc1   425 0001:00017bcb
   426 0001:00017be0   427 0001:00017bf9   428 0001:00017c0a   429 0001:00017c1c
   430 0001:00017c2f   431 0001:00017c42   432 0001:00017c55   434 0001:00017c66
   435 0001:00017c6b   438 0001:00017c80   439 0001:00017c86   440 0001:00017cad
   441 0001:00017cb3   443 0001:00017cb8   444 0001:00017cbe   446 0001:00017cea
   447 0001:00017cfb   448 0001:00017d0d   449 0001:00017d13   451 0001:00017d18
   452 0001:00017d2d   453 0001:00017d4a   454 0001:00017d59   455 0001:00017d6b
   456 0001:00017d77   460 0001:00017d8f   461 0001:00017d9c   463 0001:00017d9e
   464 0001:00017dab   466 0001:00017dad   469 0001:00017dba   472 0001:00017dc0
   473 0001:00017dc6   475 0001:00017ded   476 0001:00017df3   478 0001:00017e1f
   479 0001:00017e28   480 0001:00017e37   481 0001:00017e3d   483 0001:00017e42
   485 0001:00017e53   486 0001:00017e5b   488 0001:00017e75   489 0001:00017e7b
   490 0001:00017e80   491 0001:00017e89   492 0001:00017e9b   494 0001:00017e9d
   495 0001:00017ea3   497 0001:00017ea8   498 0001:00017ebd   499 0001:00017ecb
   500 0001:00017eda   503 0001:00017ef7   504 0001:00017f04   506 0001:00017f06
   507 0001:00017f13   509 0001:00017f15   510 0001:00017f22   512 0001:00017f24
   515 0001:00017f49   522 0001:00017f50   523 0001:00017f56   525 0001:00017f5a
   526 0001:00017f87   527 0001:00017f90   529 0001:00017f99   530 0001:00017fa6
   531 0001:00017fcd   533 0001:00017fe1   534 0001:00018008   536 0001:00018012
   538 0001:0001801f   539 0001:00018033   541 0001:0001803d   542 0001:00018041
   547 0001:00018045   549 0001:00018076   551 0001:0001807a   553 0001:0001807c
   555 0001:0001809f   557 0001:000180a3   558 0001:000180a5   560 0001:000180b8
   563 0001:000180bc   565 0001:000180c4   566 0001:000180da   571 0001:000180de
   572 0001:000180e0

Line numbers for C:\Program Files\Microsoft Visual Studio .NET 2003\Vc7\atlmfc\lib\atlsd.lib(f:\vs70builds\6030\vc\mfcatl\ship\atlmfc\include\atlbase.h) segment .text

   191 0001:000192b0   192 0001:000192b3   193 0001:000192bc   194 0001:000192c0
   195 0001:000192cd   197 0001:000192e0   198 0001:000192e6   199 0001:000192ed
   200 0001:000192f6   201 0001:000192fa   202 0001:00019313   203 0001:00019319
   204 0001:0001933b   205 0001:00019341   206 0001:0001934d   207 0001:00019350
   745 0001:00019360   754 0001:00019364   756 0001:000193a0   288 0001:000193b0
   289 0001:000193c8   293 0001:000193d0   294 0001:000193db   296 0001:000193e1
   299 0001:000193ea   303 0001:00019400   304 0001:00019407   306 0001:00019412
   308 0001:0001941a   328 0001:00019420   329 0001:00019427   330 0001:00019453
   331 0001:0001945d   332 0001:00019464   312 0001:00019490   315 0001:00019499
   316 0001:000194c5   317 0001:000194d2   319 0001:000194d8   321 0001:000194dd
   323 0001:000194e4   324 0001:000194e6  2620 0001:0001c690

Line numbers for C:\Program Files\Microsoft Visual Studio .NET 2003\Vc7\atlmfc\lib\atlsd.lib(f:\vs70builds\6030\vc\mfcatl\ship\atlmfc\include\atlcore.h) segment .text

   129 0001:00019210   130 0001:00019239   131 0001:00019240   133 0001:00019247
   136 0001:0001925a   138 0001:0001926d   139 0001:00019276   140 0001:0001927d
   141 0001:0001927f   143 0001:0001928d   144 0001:00019290   124 0001:00019470
   125 0001:00019477   126 0001:00019481   127 0001:00019483   119 0001:000194f0
   120 0001:000194f7   121 0001:00019501   122 0001:00019503

Line numbers for C:\Program Files\Microsoft Visual Studio .NET 2003\Vc7\atlmfc\lib\atlsd.lib(f:\vs70builds\6030\vc\mfcatl\ship\atlmfc\include\atlcomcli.h) segment .text

   248 0001:00019030   250 0001:0001903f   126 0001:00019050   127 0001:00019057
   128 0001:0001905f   129 0001:0001906f   142 0001:00019080   143 0001:00019087
   144 0001:000190b0   145 0001:000190b3   147 0001:000190c0   148 0001:000190c7
   149 0001:000190f0   150 0001:000190f5   248 0001:00019100   250 0001:0001910f
   126 0001:00019120   127 0001:00019127   128 0001:0001912f   129 0001:0001913f
   142 0001:00019150   143 0001:00019157   144 0001:00019180   145 0001:00019183
   147 0001:00019190   148 0001:00019197   149 0001:000191c0   150 0001:000191c5
   107 0001:000191d0   109 0001:000191d7   110 0001:000191e0   107 0001:000191f0
   109 0001:000191f7   110 0001:00019200

Line numbers for C:\Program Files\Microsoft Visual Studio .NET 2003\Vc7\atlmfc\lib\atlsd.lib(f:\vs70builds\6030\devtools\common\win32sdk\include\guiddef.h) segment .text

   151 0001:00018fd0   156 0001:00018fd4   157 0001:0001901d

Line numbers for C:\Program Files\Microsoft Visual Studio .NET 2003\Vc7\atlmfc\lib\atlsd.lib(f:\vs70builds\6030\vc\mfcatl\ship\atlmfc\src\atl\atls\atlfuncs.cpp) segment .text

    31 0001:00018f80    28 0001:00018f80    32 0001:00018f84    33 0001:00018f87
    34 0001:00018f8b    35 0001:00018f8e

Line numbers for C:\Program Files\Microsoft Visual Studio .NET 2003\Vc7\atlmfc\lib\atlsd.lib(f:\vs70builds\6030\vc\mfcatl\ship\atlmfc\include\atlbase.inl) segment .text

    27 0001:00018270    28 0001:00018276    29 0001:0001827c    31 0001:00018286
    32 0001:0001828e    33 0001:00018296    34 0001:000182b2    35 0001:000182b8
    36 0001:000182df    37 0001:000182e5    38 0001:00018307    39 0001:00018320
    42 0001:00018330    43 0001:00018336    44 0001:0001833c    46 0001:00018346
    47 0001:0001834e    48 0001:00018356    49 0001:00018372    50 0001:00018378
    51 0001:0001839f    52 0001:000183a5    53 0001:000183c3    54 0001:000183dc
    62 0001:000183f0    63 0001:000183f6    66 0001:000183fc    67 0001:0001840a
    68 0001:00018422    69 0001:0001842c    71 0001:00018438    72 0001:0001843a
    75 0001:00018440    76 0001:00018444    77 0001:00018468    78 0001:0001846e
    80 0001:00018475    81 0001:00018486    84 0001:0001848c    85 0001:000184a9
    87 0001:000184af    88 0001:000184bf    91 0001:000184c8    92 0001:000184cb
    95 0001:000184e0    96 0001:000184e6    97 0001:0001850a    98 0001:00018510
   100 0001:00018517   101 0001:00018520   102 0001:00018527   105 0001:0001852d
   106 0001:0001853b   107 0001:00018553   109 0001:00018568   110 0001:0001856b
   116 0001:00018580   117 0001:00018586   118 0001:000185aa   119 0001:000185b0
   120 0001:000185ba   121 0001:000185c2   123 0001:000185cc   124 0001:000185d2
   125 0001:000185dc   127 0001:000185e5   129 0001:000185ec   131 0001:0001860f
   133 0001:0001861b   134 0001:00018623   136 0001:0001864a   138 0001:00018657
   139 0001:00018668   140 0001:00018673   142 0001:00018679   143 0001:000186a6
   144 0001:000186cb   146 0001:000186d5   147 0001:000186de   148 0001:000186fa
   149 0001:00018702   150 0001:0001870b   151 0001:00018727   154 0001:00018729
   156 0001:0001872e   157 0001:0001873c   158 0001:00018743   159 0001:00018746
   162 0001:00018750   163 0001:00018756   164 0001:0001877d   165 0001:00018783
   167 0001:0001878a   168 0001:00018791   170 0001:000187b6   171 0001:000187be
   172 0001:000187d4   173 0001:000187d6   174 0001:000187d9   177 0001:000187e0
   178 0001:000187e6   179 0001:0001880d   180 0001:00018813   182 0001:0001881a
   183 0001:00018821   185 0001:00018846   186 0001:0001884e   187 0001:0001885c
   188 0001:0001885e   189 0001:00018861   192 0001:00018870   196 0001:00018876
   198 0001:00018883   200 0001:0001889b   201 0001:000188a1   203 0001:000188ab
   204 0001:000188b1   207 0001:000188b6   210 0001:000188d0   213 0001:000188dd
   214 0001:000188e3   215 0001:000188f6   216 0001:000188f8   218 0001:0001890b
   220 0001:00018911   222 0001:0001891b   223 0001:00018921   224 0001:0001892b
   225 0001:0001892d   228 0001:00018937   229 0001:00018947   230 0001:0001894e
   231 0001:00018953   232 0001:00018958   233 0001:0001895a   240 0001:00018960
   241 0001:00018966   242 0001:0001898d   244 0001:000189b4   245 0001:000189c0
   248 0001:000189ca   249 0001:000189f4   250 0001:000189fa   251 0001:00018a04
   252 0001:00018a0d   254 0001:00018a1a   255 0001:00018a26   256 0001:00018a32
   257 0001:00018a3a   259 0001:00018a41   261 0001:00018a4e   262 0001:00018a5c
   264 0001:00018a7c   266 0001:00018a85   267 0001:00018aac   268 0001:00018ab8
   269 0001:00018ac4   270 0001:00018acc   275 0001:00018ad0   276 0001:00018aec
   277 0001:00018afe   280 0001:00018b03   281 0001:00018b0c   282 0001:00018b11
   283 0001:00018b16   286 0001:00018b20   287 0001:00018b23   288 0001:00018b28
   294 0001:00018b30   295 0001:00018b36   296 0001:00018b3c   298 0001:00018b48
   299 0001:00018b75   300 0001:00018b81   302 0001:00018b8d   303 0001:00018b95
   304 0001:00018ba1   305 0001:00018bb2   307 0001:00018bbe   308 0001:00018beb
   309 0001:00018c10   311 0001:00018c1a   312 0001:00018c26   313 0001:00018c2f
   316 0001:00018c40   317 0001:00018c46   318 0001:00018c4c   320 0001:00018c53
   321 0001:00018c5a   322 0001:00018c6b   324 0001:00018c77   325 0001:00018ca4
   326 0001:00018cc9   328 0001:00018cdc   329 0001:00018ce5   331 0001:00018ceb
   332 0001:00018cf4   333 0001:00018cfb   335 0001:00018d01   337 0001:00018d0c
   338 0001:00018d12   339 0001:00018d1e   340 0001:00018d20   341 0001:00018d2c
   342 0001:00018d34   344 0001:00018d36   345 0001:00018d3c   346 0001:00018d45
   348 0001:00018d47   349 0001:00018d58   352 0001:00018d60   353 0001:00018d66
   354 0001:00018d6c   357 0001:00018d76   358 0001:00018d7e   360 0001:00018d85
   362 0001:00018d8f   363 0001:00018d9d   365 0001:00018da3   366 0001:00018dd0
   368 0001:00018df5   369 0001:00018df8   375 0001:00018e00   376 0001:00018e06
   377 0001:00018e0c   379 0001:00018e16   380 0001:00018e1d   381 0001:00018e24
   382 0001:00018e37   383 0001:00018e3d   384 0001:00018e44   386 0001:00018e49
   387 0001:00018e51   388 0001:00018e5a   389 0001:00018e6b   390 0001:00018e76
   392 0001:00018e7c   393 0001:00018e88   395 0001:00018e91   397 0001:00018e93
   398 0001:00018ea5   399 0001:00018ed2   401 0001:00018ef7   402 0001:00018eff
   403 0001:00018f02   406 0001:00018f10   407 0001:00018f16   408 0001:00018f1c
   410 0001:00018f28   411 0001:00018f31   412 0001:00018f38   414 0001:00018f3e
   415 0001:00018f4a   416 0001:00018f53   417 0001:00018f65   418 0001:00018f6b
   419 0001:00018f6d   420 0001:00018f77

Line numbers for C:\Program Files\Microsoft Visual Studio .NET 2003\Vc7\atlmfc\lib\atlsd.lib(f:\vs70builds\6030\vc\mfcatl\ship\atlmfc\include\atlbase.h) segment .text

  2620 0001:0001c650

Line numbers for C:\Program Files\Microsoft Visual Studio .NET 2003\Vc7\atlmfc\lib\atlsd.lib(f:\vs70builds\6030\vc\mfcatl\ship\atlmfc\include\atltrace.h) segment .text

   196 0001:00016eb0   197 0001:00016ec0   198 0001:00016ed3   199 0001:00016ee9
    82 0001:00016f00    84 0001:00016f07    85 0001:00016f20   131 0001:00016f30

Line numbers for C:\Program Files\Microsoft Visual Studio .NET 2003\Vc7\atlmfc\lib\atlsd.lib(f:\vs70builds\6030\vc\mfcatl\ship\atlmfc\src\atl\atls\atltrace.cpp) segment .text

    22 0001:0001c2f0    23 0001:0001c310    24 0001:0001c330    25 0001:0001c350
    26 0001:0001c370    27 0001:0001c390    28 0001:0001c3b0    29 0001:0001c3d0
    30 0001:0001c3f0    31 0001:0001c410    32 0001:0001c430    33 0001:0001c450
    34 0001:0001c470    35 0001:0001c490    36 0001:0001c4b0    37 0001:0001c4d0
    38 0001:0001c4f0    39 0001:0001c510    40 0001:0001c530    41 0001:0001c550
    42 0001:0001c570    43 0001:0001c590    44 0001:0001c5b0    47 0001:0001c5d0
    48 0001:0001c5f0    49 0001:0001c610    50 0001:0001c630

Line numbers for C:\Program Files\Microsoft Visual Studio .NET 2003\Vc7\atlmfc\lib\atlsd.lib(f:\vs70builds\6030\vc\mfcatl\ship\atlmfc\include\atlbase.h) segment .text

  2620 0001:0001c250

Line numbers for C:\Program Files\Microsoft Visual Studio .NET 2003\Vc7\atlmfc\lib\atlsd.lib(f:\vs70builds\6030\vc\mfcatl\ship\atlmfc\include\atltypes.inl) segment .text

    22 0001:00015780    24 0001:00015790    26 0001:000157c0    28 0001:000157e0
    30 0001:00015800    31 0001:00015807    32 0001:00015817    33 0001:00015826
    35 0001:00015830    37 0001:00015870    39 0001:000158b0    41 0001:000158e0
    43 0001:00015910    45 0001:00015930    47 0001:00015960    49 0001:00015990
    51 0001:000159c0    53 0001:000159f0    55 0001:00015a20    57 0001:00015a60
    61 0001:00015aa0    63 0001:00015ab0    65 0001:00015ae0    67 0001:00015b00
    69 0001:00015b20    70 0001:00015b27    71 0001:00015b37    72 0001:00015b46
    74 0001:00015b50    76 0001:00015b80    78 0001:00015bb0    80 0001:00015be0
    82 0001:00015c00    84 0001:00015c40    86 0001:00015c80    88 0001:00015cb0
    90 0001:00015ce0    92 0001:00015d10    94 0001:00015d40    96 0001:00015d70
    98 0001:00015da0   100 0001:00015dd0   102 0001:00015e00   104 0001:00015e30
   106 0001:00015e70   110 0001:00015eb0   112 0001:00015ec0   114 0001:00015f00
   116 0001:00015f20   118 0001:00015f40   120 0001:00015f80   121 0001:00015f98
   123 0001:00015fc0   125 0001:00015fe0   127 0001:00016000   129 0001:00016040
   131 0001:00016050   133 0001:00016070   135 0001:00016080   137 0001:000160a0
   139 0001:000160e0   141 0001:00016100   143 0001:00016130   145 0001:00016140
   147 0001:00016150   149 0001:00016170   151 0001:000161c0   153 0001:000161e0
   155 0001:00016210   157 0001:00016240   159 0001:00016260   161 0001:00016280
   163 0001:000162a0   165 0001:000162c0   167 0001:000162e0   169 0001:00016310
   171 0001:00016340   173 0001:00016360   175 0001:00016380   177 0001:000163a0
   179 0001:000163d0   181 0001:00016400   183 0001:00016430   185 0001:00016460
   187 0001:00016480   189 0001:000164a0   191 0001:000164c0   193 0001:000164e0
   195 0001:00016500   197 0001:00016520   199 0001:00016540   201 0001:00016560
   203 0001:00016590   205 0001:000165c0   207 0001:000165e0   209 0001:00016600
   211 0001:00016620   213 0001:00016680   215 0001:000166e0   217 0001:00016740
   219 0001:000167a0   221 0001:000167f0   223 0001:00016840   224 0001:00016863
   226 0001:00016890   227 0001:000168b3   229 0001:000168e0   232 0001:00016900
   234 0001:00016909   236 0001:00016916   237 0001:0001691e   238 0001:00016929
   240 0001:00016932   242 0001:00016940   243 0001:00016949   244 0001:00016955
   246 0001:0001695e   249 0001:00016970   250 0001:00016977   251 0001:00016998
   252 0001:000169bc   255 0001:000169d0   256 0001:000169d7   257 0001:000169f3
   258 0001:00016a11   261 0001:00016a20   262 0001:00016a27   263 0001:00016a48
   264 0001:00016a6c   267 0001:00016a80   268 0001:00016a87   269 0001:00016aa3
   270 0001:00016ac1   273 0001:00016ad0   278 0001:00016ad7   279 0001:00016b39

Line numbers for C:\Program Files\Microsoft Visual Studio .NET 2003\Vc7\atlmfc\lib\atlsd.lib(f:\vs70builds\6030\vc\mfcatl\ship\atlmfc\include\atlbase.h) segment .text

  2620 0001:0001c710

Line numbers for C:\Program Files\Microsoft Visual Studio .NET 2003\Vc7\atlmfc\lib\atlsd.lib(f:\vs70builds\6030\vc\mfcatl\ship\atlmfc\src\atl\atls\atltracemodulemanager.h) segment .text

    44 0001:0001b540    45 0001:0001b56e

Line numbers for C:\Program Files\Microsoft Visual Studio .NET 2003\Vc7\atlmfc\lib\atlsd.lib(f:\vs70builds\6030\vc\mfcatl\ship\atlmfc\src\atl\atls\atltracemodulemanager.cpp) segment .text

    21 0001:0001b120    22 0001:0001b147    23 0001:0001b150    24 0001:0001b15c
    27 0001:0001b170    28 0001:0001b18a    30 0001:0001b1a4    32 0001:0001b1b5
    34 0001:0001b1de    36 0001:0001b1fc    37 0001:0001b203    40 0001:0001b290
    41 0001:0001b292    43 0001:0001b2a8    45 0001:0001b2ae    46 0001:0001b2cc
    47 0001:0001b2ee    48 0001:0001b30e    49 0001:0001b31f    51 0001:0001b33d
    52 0001:0001b34c    53 0001:0001b359    54 0001:0001b365    59 0001:0001b380
    60 0001:0001b399    61 0001:0001b3a8    64 0001:0001b3b0    65 0001:0001b3b7
    66 0001:0001b3cc    67 0001:0001b3d5    72 0001:0001b3e0    73 0001:0001b40a
    76 0001:0001b420    78 0001:0001b429    82 0001:0001b44a    91 0001:0001b450
    92 0001:0001b4fd    94 0001:0001b509    95 0001:0001b513    98 0001:0001b520
    99 0001:0001b527   100 0001:0001b536

Line numbers for C:\Program Files\Microsoft Visual Studio .NET 2003\Vc7\atlmfc\lib\atlsd.lib(f:\vs70builds\6030\vc\mfcatl\ship\atlmfc\include\atlbase.h) segment .text

  2620 0001:0001c2d0

Line numbers for C:\Program Files\Microsoft Visual Studio .NET 2003\Vc7\atlmfc\lib\atlsd.lib(f:\vs70builds\6030\vc\mfcatl\ship\atlmfc\include\atltrace.h) segment .text

    70 0001:00016d10    71 0001:00016d2a    73 0001:00016d3f    76 0001:00016e90
    77 0001:00016e97    78 0001:00016ea3

Line numbers for C:\Program Files\Microsoft Visual Studio .NET 2003\Vc7\atlmfc\lib\atlsd.lib(f:\vs70builds\6030\vc\mfcatl\ship\atlmfc\include\atlexcept.h) segment .text

    40 0001:00016cf0    41 0001:00016cff

Line numbers for C:\Program Files\Microsoft Visual Studio .NET 2003\Vc7\atlmfc\lib\atlsd.lib(f:\vs70builds\6030\vc\mfcatl\ship\atlmfc\include\atlsimpcoll.h) segment .text

    97 0001:00016bc0    97 0001:00016bf0   100 0001:00016d90   101 0001:00016d97
   102 0001:00016d9f   100 0001:00016db0   101 0001:00016db7   102 0001:00016dbf
   173 0001:00016dd0   174 0001:00016dd9   176 0001:00016de1   177 0001:00016dfe
   178 0001:00016e00   179 0001:00016e0e   181 0001:00016e17   182 0001:00016e21
   183 0001:00016e2b   173 0001:00016e30   174 0001:00016e39   176 0001:00016e41
   177 0001:00016e5e   178 0001:00016e60   179 0001:00016e6e   181 0001:00016e77
   182 0001:00016e81   183 0001:00016e8b

Line numbers for C:\Program Files\Microsoft Visual Studio .NET 2003\Vc7\atlmfc\lib\atlsd.lib(f:\vs70builds\6030\vc\mfcatl\ship\atlmfc\src\atl\atls\allocate.h) segment .text

    42 0001:00016b40    43 0001:00016b7b    46 0001:00016d50    47 0001:00016d57
    48 0001:00016d61

Line numbers for C:\Program Files\Microsoft Visual Studio .NET 2003\Vc7\atlmfc\lib\atlsd.lib(f:\vs70builds\6030\vc\mfcatl\ship\atlmfc\src\atl\atls\externs.cpp) segment .text

    26 0001:00016c20    30 0001:00016c33    32 0001:00016c5e    34 0001:00016c6d
    37 0001:00016c96    39 0001:00016cb3    42 0001:00016cdc    43 0001:00016cde
    23 0001:0001c270    45 0001:0001c290    52 0001:0001c2a0
