 SppConsole

 Timestamp is 498761e0 (Mon Feb 02 23:13:04 2009)

 Preferred load address is 00400000

 Start         Length     Name                   Class
 0001:00000000 0001b15cH .text                   CODE
 0001:0001b160 000009a5H .text$x                 CODE
 0001:0001bb10 00000556H .text$yc                CODE
 0001:0001c070 000000dfH .text$yd                CODE
 0002:00000000 000008b8H .idata$5                DATA
 0002:000008c0 0000bfd8H .rdata                  DATA
 0002:0000c898 00000053H .rdata$debug            DATA
 0002:0000c8ec 00000044H .rdata$r                DATA
 0002:0000c930 00000120H .rdata$sxdata           DATA
 0002:0000ca50 00000004H .rtc$IAA                DATA
 0002:0000ca54 00000004H .rtc$IMZ                DATA
 0002:0000ca58 00000004H .rtc$IZZ                DATA
 0002:0000ca5c 00000004H .rtc$TAA                DATA
 0002:0000ca60 00000004H .rtc$TMZ                DATA
 0002:0000ca64 00000004H .rtc$TZZ                DATA
 0002:0000ca68 00000c38H .xdata$x                DATA
 0002:0000d6a0 00000004H ATL$__a                 DATA
 0002:0000d6a4 00000004H ATL$__z                 DATA
 0002:0000d6a8 000000f0H .idata$2                DATA
 0002:0000d798 00000014H .idata$3                DATA
 0002:0000d7ac 000008b8H .idata$4                DATA
 0002:0000e064 00000e44H .idata$6                DATA
 0002:0000eea8 00000000H .edata                  DATA
 0003:00000000 00000004H .CRT$XCA                DATA
 0003:00000004 00000004H .CRT$XCAA               DATA
 0003:00000008 0000000cH .CRT$XCC                DATA
 0003:00000014 00000074H .CRT$XCL                DATA
 0003:00000088 00000008H .CRT$XCU                DATA
 0003:00000090 00000004H .CRT$XCZ                DATA
 0003:00000094 00000004H .CRT$XIA                DATA
 0003:00000098 00000004H .CRT$XIZ                DATA
 0003:000000a0 00000fc0H .data                   DATA
 0003:00001060 000002ccH .bss                    DATA
 0004:00000000 00000550H .rsrc$01                DATA
 0004:00000550 00002908H .rsrc$02                DATA

  Address         Publics by Value              Rva+Base     Lib:Object

 0000:00000000       __except_list              00000000     <absolute>
 0000:00000048       ___safe_se_handler_count   00000048     <absolute>
 0000:00009876       __ldused                   00009876     <absolute>
 0000:00009876       __fltused                  00009876     <absolute>
 0000:00000000       ___ImageBase               00400000     <linker-defined>
 0001:00000000       ??0CAboutDlg@@QAE@PAVCWnd@@@Z 00401000 f   AboutDlg.obj
 0001:00000070       ?DoDataExchange@CAboutDlg@@MAEXPAVCDataExchange@@@Z 00401070 f   AboutDlg.obj
 0001:00000090       ?GetThisMessageMap@CAboutDlg@@KGPBUAFX_MSGMAP@@XZ 00401090 f   AboutDlg.obj
 0001:000000a0       ?GetMessageMap@CAboutDlg@@MBEPBUAFX_MSGMAP@@XZ 004010a0 f   AboutDlg.obj
 0001:000000b0       ?OnInitDialog@CAboutDlg@@MAEHXZ 004010b0 f   AboutDlg.obj
 0001:000001e0       ??_GCAboutDlg@@UAEPAXI@Z   004011e0 f i AboutDlg.obj
 0001:000001e0       ??_ECAboutDlg@@UAEPAXI@Z   004011e0 f i AboutDlg.obj
 0001:00000210       ??1CAboutDlg@@UAE@XZ       00401210 f i AboutDlg.obj
 0001:00000260       ??1CStaticLink@@UAE@XZ     00401260 f i AboutDlg.obj
 0001:000002c0       ?_AtlGetThreadACPThunk@ATL@@YGIXZ 004012c0 f i AboutDlg.obj
 0001:00000340       ?InterlockedExchangePointer@@YGPAXPAPAXPAX@Z 00401340 f i AboutDlg.obj
 0001:00000360       ?_AtlGetThreadACPFake@ATL@@YGIXZ 00401360 f i AboutDlg.obj
 0001:000003f0       ?_AtlGetThreadACPReal@ATL@@YGIXZ 004013f0 f i AboutDlg.obj
 0001:00000400       ?isSpk@@YA_NI@Z            00401400 f   AudioInput.obj
 0001:00000430       ?GetLineControlByID@@YAIPAUHMIXEROBJ__@@KPAUtagMIXERCONTROLA@@@Z 00401430 f   AudioInput.obj
 0001:00000480       ?Mute@@YAIPAUHMIXER__@@I_N@Z 00401480 f   AudioInput.obj
 0001:00000550       ?GetMuteValue@@YA_NPAUHMIXER__@@IPA_N@Z 00401550 f   AudioInput.obj
 0001:00000620       ?GetSelSrcLineID@@YAJPAUHMIXER__@@I@Z 00401620 f   AudioInput.obj
 0001:00000810       ?SetControlDetailList@@YAIPAUHMIXER__@@PAUtMIXERCONTROLDETAILS_BOOLEAN@@KI@Z 00401810 f   AudioInput.obj
 0001:00000860       ?SetControlDetailList@@YAIPAUHMIXER__@@PAUtMIXERCONTROLDETAILS_UNSIGNED@@KI@Z 00401860 f   AudioInput.obj
 0001:000008b0       ?GetLineControlList@@YAIPAUHMIXEROBJ__@@KPAUtagMIXERCONTROLA@@PAH@Z 004018b0 f   AudioInput.obj
 0001:00000970       ?GetControlDetailList@@YAIPAUHMIXER__@@PAUtagMIXERCONTROLDETAILS_LISTTEXTA@@KI@Z 00401970 f   AudioInput.obj
 0001:000009c0       ?GetControlDetailList@@YAIPAUHMIXER__@@PAUtMIXERCONTROLDETAILS_BOOLEAN@@KI@Z 004019c0 f   AudioInput.obj
 0001:00000a10       ?GetVolumeValue@@YA_NPAUHMIXER__@@IPAJ@Z 00401a10 f   AudioInput.obj
 0001:00000b40       ?SetVolumeValue@@YAHPAUHMIXER__@@IJ@Z 00401b40 f   AudioInput.obj
 0001:00000c50       ??0CAudioInput@@QAE@PAUHWND__@@@Z 00401c50 f   AudioInput.obj
 0001:00000d80       ??1CAudioInput@@UAE@XZ     00401d80 f   AudioInput.obj
 0001:00000e40       ?GetCountMixerDevice@CAudioInput@@QAEHXZ 00401e40 f   AudioInput.obj
 0001:00000e60       ?GetMixerDeviceName@CAudioInput@@QAEPBDH@Z 00401e60 f   AudioInput.obj
 0001:00000ea0       ?GetMixerDeviceInputLineName@CAudioInput@@QAEPBDHH@Z 00401ea0 f   AudioInput.obj
 0001:00000ef0       ?GetMixerDevice@CAudioInput@@QAEPAVCMixerDevice@1@H@Z 00401ef0 f   AudioInput.obj
 0001:00000f30       ?Restore@CAudioInput@@QAEXXZ 00401f30 f   AudioInput.obj
 0001:00000f90       ?GetPreferredMixerDeviceIndex@CAudioInput@@QAEHXZ 00401f90 f   AudioInput.obj
 0001:00001090       ?GetMixerDeviceIndex@CAudioInput@@QAEHPAD@Z 00402090 f   AudioInput.obj
 0001:00001100       ?GetMixerDeviceID@CAudioInput@@QAEHPAD@Z 00402100 f   AudioInput.obj
 0001:00001180       ?SetCurrentMixerDevice@CAudioInput@@QAE_NH@Z 00402180 f   AudioInput.obj
 0001:000011d0       ?GetCurrentMixerDevice@CAudioInput@@QAEHXZ 004021d0 f   AudioInput.obj
 0001:000011f0       ??0CMixerDevice@CAudioInput@@QAE@XZ 004021f0 f   AudioInput.obj
 0001:00001270       ??1CMixerDevice@CAudioInput@@UAE@XZ 00402270 f   AudioInput.obj
 0001:000013b0       ??0CMixerDevice@CAudioInput@@QAE@HPAUHWND__@@@Z 004023b0 f   AudioInput.obj
 0001:000014f0       ?AdjustInputVolume@CMixerDevice@CAudioInput@@QAEXK@Z 004024f0 f   AudioInput.obj
 0001:000015b0       ?CreateInputLineArray@CMixerDevice@CAudioInput@@IAEHXZ 004025b0 f   AudioInput.obj
 0001:00001920       ?CreatePhysicalDevArray@CMixerDevice@CAudioInput@@QAEHXZ 00402920 f   AudioInput.obj
 0001:00001c60       ?GetInputLineIndex@CMixerDevice@CAudioInput@@QAE_NIPAI@Z 00402c60 f   AudioInput.obj
 0001:00001cd0       ?GetInputLineName@CMixerDevice@CAudioInput@@QAEPBDH@Z 00402cd0 f   AudioInput.obj
 0001:00001d10       ?GetInputLineVolumeValue@CMixerDevice@CAudioInput@@QAEHH@Z 00402d10 f   AudioInput.obj
 0001:00001d50       ?GetInputLineSrcID@CMixerDevice@CAudioInput@@QAE_NPAII@Z 00402d50 f   AudioInput.obj
 0001:00001db0       ?GetName@CMixerDevice@CAudioInput@@QAEPBDXZ 00402db0 f   AudioInput.obj
 0001:00001dd0       ?GetSelectedInputLine@CMixerDevice@CAudioInput@@QAE_NPAI@Z 00402dd0 f   AudioInput.obj
 0001:00002060       ?MuteOutputLine@CMixerDevice@CAudioInput@@QAE_NK_N0@Z 00403060 f   AudioInput.obj
 0001:00002140       ?MuteSelectedInputLine@CMixerDevice@CAudioInput@@QAE_NI_N0@Z 00403140 f   AudioInput.obj
 0001:000021a0       ?RestoreSelectedInputLine@CMixerDevice@CAudioInput@@QAEXI@Z 004031a0 f   AudioInput.obj
 0001:00002200       ?Restore@CMixerDevice@CAudioInput@@QAEHXZ 00403200 f   AudioInput.obj
 0001:00002290       ?SelectInputLine@CMixerDevice@CAudioInput@@QAEXI@Z 00403290 f   AudioInput.obj
 0001:00002570       ?SetSelectedInputLine@CMixerDevice@CAudioInput@@QAE_NI@Z 00403570 f   AudioInput.obj
 0001:000025f0       ?SetSpeakers@CMixerDevice@CAudioInput@@QAEH_N0@Z 004035f0 f   AudioInput.obj
 0001:00002690       ??0CInputLine@CMixerDevice@CAudioInput@@QAE@XZ 00403690 f   AudioInput.obj
 0001:000026d0       ??1CInputLine@CMixerDevice@CAudioInput@@UAE@XZ 004036d0 f   AudioInput.obj
 0001:00002720       ??0CInputLine@CMixerDevice@CAudioInput@@QAE@PAUHMIXER__@@KPBDKJ@Z 00403720 f   AudioInput.obj
 0001:000028a0       ?GetVolumeValue@CInputLine@CMixerDevice@CAudioInput@@QAEHXZ 004038a0 f   AudioInput.obj
 0001:00002990       ?CreateArrayMuteCtrl@CInputLine@CMixerDevice@CAudioInput@@IAEPAV?$CArray@UsMuteLine@CInputLine@CMixerDevice@CAudioInput@@U1234@@@KPBD@Z 00403990 f   AudioInput.obj
 0001:00002dc0       ?GetName@CInputLine@CMixerDevice@CAudioInput@@QAEPBDXZ 00403dc0 f   AudioInput.obj
 0001:00002de0       ?GetSrcID@CInputLine@CMixerDevice@CAudioInput@@QAEKXZ 00403de0 f   AudioInput.obj
 0001:00002e00       ?isInitSelected@CInputLine@CMixerDevice@CAudioInput@@QAE_NXZ 00403e00 f   AudioInput.obj
 0001:00002e20       ?RestoreMute@CInputLine@CMixerDevice@CAudioInput@@QAEXXZ 00403e20 f   AudioInput.obj
 0001:00002e90       ?RestoreVolume@CInputLine@CMixerDevice@CAudioInput@@QAEHXZ 00403e90 f   AudioInput.obj
 0001:00002f70       ?SetDefaultVolume@CInputLine@CMixerDevice@CAudioInput@@QAEXXZ 00403f70 f   AudioInput.obj
 0001:00003070       ?SetMute@CInputLine@CMixerDevice@CAudioInput@@QAE_N_N0@Z 00404070 f   AudioInput.obj
 0001:00003140       ?SetName@CInputLine@CMixerDevice@CAudioInput@@QAEXPBD@Z 00404140 f   AudioInput.obj
 0001:00003160       ?SetSrcType@CInputLine@CMixerDevice@CAudioInput@@QAEXK@Z 00404160 f   AudioInput.obj
 0001:00003180       ?StoreDefaultVolume@CInputLine@CMixerDevice@CAudioInput@@QAEHXZ 00404180 f   AudioInput.obj
 0001:00003280       ??0CPhysicalDevice@CMixerDevice@CAudioInput@@QAE@XZ 00404280 f   AudioInput.obj
 0001:000032c0       ??0CPhysicalDevice@CMixerDevice@CAudioInput@@QAE@PAUHMIXER__@@KK_NKH@Z 004042c0 f   AudioInput.obj
 0001:00003310       ??1CPhysicalDevice@CMixerDevice@CAudioInput@@UAE@XZ 00404310 f   AudioInput.obj
 0001:00003330       ?restore@CPhysicalDevice@CMixerDevice@CAudioInput@@QAEXXZ 00404330 f   AudioInput.obj
 0001:00003390       ?SetMute@CPhysicalDevice@CMixerDevice@CAudioInput@@QAEX_N@Z 00404390 f   AudioInput.obj
 0001:000033c0       ?SetVolume@CPhysicalDevice@CMixerDevice@CAudioInput@@QAEXH@Z 004043c0 f   AudioInput.obj
 0001:000033f0       ?isValid@CMixerDevice@CAudioInput@@QAE_NXZ 004043f0 f   AudioInput.obj
 0001:00003410       ?GetID@CMixerDevice@CAudioInput@@QAEHXZ 00404410 f   AudioInput.obj
 0001:00003430       ??_ECAudioInput@@UAEPAXI@Z 00404430 f i AudioInput.obj
 0001:00003430       ??_GCAudioInput@@UAEPAXI@Z 00404430 f i AudioInput.obj
 0001:00003460       ??_GCMixerDevice@CAudioInput@@UAEPAXI@Z 00404460 f i AudioInput.obj
 0001:00003460       ??_ECMixerDevice@CAudioInput@@UAEPAXI@Z 00404460 f i AudioInput.obj
 0001:00003490       ??_ECInputLine@CMixerDevice@CAudioInput@@UAEPAXI@Z 00404490 f i AudioInput.obj
 0001:00003490       ??_GCInputLine@CMixerDevice@CAudioInput@@UAEPAXI@Z 00404490 f i AudioInput.obj
 0001:000034c0       ??_ECPhysicalDevice@CMixerDevice@CAudioInput@@UAEPAXI@Z 004044c0 f i AudioInput.obj
 0001:000034c0       ??_GCPhysicalDevice@CMixerDevice@CAudioInput@@UAEPAXI@Z 004044c0 f i AudioInput.obj
 0001:000034f0       ??0?$CArray@PAVCInputLine@CMixerDevice@CAudioInput@@PAV123@@@QAE@XZ 004044f0 f i AudioInput.obj
 0001:00003540       ?GetSize@?$CArray@PAVCInputLine@CMixerDevice@CAudioInput@@PAV123@@@QBEHXZ 00404540 f i AudioInput.obj
 0001:00003560       ?RemoveAll@?$CArray@PAVCInputLine@CMixerDevice@CAudioInput@@PAV123@@@QAEXXZ 00404560 f i AudioInput.obj
 0001:00003580       ?GetAt@?$CArray@PAVCInputLine@CMixerDevice@CAudioInput@@PAV123@@@QAEAAPAVCInputLine@CMixerDevice@CAudioInput@@H@Z 00404580 f i AudioInput.obj
 0001:000035e0       ?Add@?$CArray@PAVCInputLine@CMixerDevice@CAudioInput@@PAV123@@@QAEHPAVCInputLine@CMixerDevice@CAudioInput@@@Z 004045e0 f i AudioInput.obj
 0001:00003610       ?RemoveAt@?$CArray@PAVCInputLine@CMixerDevice@CAudioInput@@PAV123@@@QAEXHH@Z 00404610 f i AudioInput.obj
 0001:00003720       ??1?$CArray@PAVCInputLine@CMixerDevice@CAudioInput@@PAV123@@@UAE@XZ 00404720 f i AudioInput.obj
 0001:000037c0       ?Serialize@?$CArray@PAVCInputLine@CMixerDevice@CAudioInput@@PAV123@@@UAEXAAVCArchive@@@Z 004047c0 f i AudioInput.obj
 0001:00003840       ?Dump@?$CArray@PAVCInputLine@CMixerDevice@CAudioInput@@PAV123@@@UBEXAAVCDumpContext@@@Z 00404840 f i AudioInput.obj
 0001:000038c0       ?AssertValid@?$CArray@PAVCInputLine@CMixerDevice@CAudioInput@@PAV123@@@UBEXXZ 004048c0 f i AudioInput.obj
 0001:000039b0       ??0?$CArray@PAVCPhysicalDevice@CMixerDevice@CAudioInput@@PAV123@@@QAE@XZ 004049b0 f i AudioInput.obj
 0001:00003a00       ?GetSize@?$CArray@PAVCPhysicalDevice@CMixerDevice@CAudioInput@@PAV123@@@QBEHXZ 00404a00 f i AudioInput.obj
 0001:00003a20       ?RemoveAll@?$CArray@PAVCPhysicalDevice@CMixerDevice@CAudioInput@@PAV123@@@QAEXXZ 00404a20 f i AudioInput.obj
 0001:00003a40       ?GetAt@?$CArray@PAVCPhysicalDevice@CMixerDevice@CAudioInput@@PAV123@@@QAEAAPAVCPhysicalDevice@CMixerDevice@CAudioInput@@H@Z 00404a40 f i AudioInput.obj
 0001:00003aa0       ?Add@?$CArray@PAVCPhysicalDevice@CMixerDevice@CAudioInput@@PAV123@@@QAEHPAVCPhysicalDevice@CMixerDevice@CAudioInput@@@Z 00404aa0 f i AudioInput.obj
 0001:00003ad0       ?RemoveAt@?$CArray@PAVCPhysicalDevice@CMixerDevice@CAudioInput@@PAV123@@@QAEXHH@Z 00404ad0 f i AudioInput.obj
 0001:00003be0       ??1?$CArray@PAVCPhysicalDevice@CMixerDevice@CAudioInput@@PAV123@@@UAE@XZ 00404be0 f i AudioInput.obj
 0001:00003c80       ?Serialize@?$CArray@PAVCPhysicalDevice@CMixerDevice@CAudioInput@@PAV123@@@UAEXAAVCArchive@@@Z 00404c80 f i AudioInput.obj
 0001:00003d00       ?Dump@?$CArray@PAVCPhysicalDevice@CMixerDevice@CAudioInput@@PAV123@@@UBEXAAVCDumpContext@@@Z 00404d00 f i AudioInput.obj
 0001:00003d80       ?AssertValid@?$CArray@PAVCPhysicalDevice@CMixerDevice@CAudioInput@@PAV123@@@UBEXXZ 00404d80 f i AudioInput.obj
 0001:00003e70       ??0?$CArray@PAVCMixerDevice@CAudioInput@@PAV12@@@QAE@XZ 00404e70 f i AudioInput.obj
 0001:00003ec0       ?GetSize@?$CArray@PAVCMixerDevice@CAudioInput@@PAV12@@@QBEHXZ 00404ec0 f i AudioInput.obj
 0001:00003ee0       ?RemoveAll@?$CArray@PAVCMixerDevice@CAudioInput@@PAV12@@@QAEXXZ 00404ee0 f i AudioInput.obj
 0001:00003f00       ?GetAt@?$CArray@PAVCMixerDevice@CAudioInput@@PAV12@@@QAEAAPAVCMixerDevice@CAudioInput@@H@Z 00404f00 f i AudioInput.obj
 0001:00003f60       ?Add@?$CArray@PAVCMixerDevice@CAudioInput@@PAV12@@@QAEHPAVCMixerDevice@CAudioInput@@@Z 00404f60 f i AudioInput.obj
 0001:00003f90       ?RemoveAt@?$CArray@PAVCMixerDevice@CAudioInput@@PAV12@@@QAEXHH@Z 00404f90 f i AudioInput.obj
 0001:000040a0       ??1?$CArray@PAVCMixerDevice@CAudioInput@@PAV12@@@UAE@XZ 004050a0 f i AudioInput.obj
 0001:00004140       ?Serialize@?$CArray@PAVCMixerDevice@CAudioInput@@PAV12@@@UAEXAAVCArchive@@@Z 00405140 f i AudioInput.obj
 0001:000041c0       ?Dump@?$CArray@PAVCMixerDevice@CAudioInput@@PAV12@@@UBEXAAVCDumpContext@@@Z 004051c0 f i AudioInput.obj
 0001:00004240       ?AssertValid@?$CArray@PAVCMixerDevice@CAudioInput@@PAV12@@@UBEXXZ 00405240 f i AudioInput.obj
 0001:00004330       ??0?$CArray@UsMuteLine@CInputLine@CMixerDevice@CAudioInput@@U1234@@@QAE@XZ 00405330 f i AudioInput.obj
 0001:00004380       ?GetSize@?$CArray@UsMuteLine@CInputLine@CMixerDevice@CAudioInput@@U1234@@@QBEHXZ 00405380 f i AudioInput.obj
 0001:000043a0       ?RemoveAll@?$CArray@UsMuteLine@CInputLine@CMixerDevice@CAudioInput@@U1234@@@QAEXXZ 004053a0 f i AudioInput.obj
 0001:000043c0       ?GetAt@?$CArray@UsMuteLine@CInputLine@CMixerDevice@CAudioInput@@U1234@@@QAEAAUsMuteLine@CInputLine@CMixerDevice@CAudioInput@@H@Z 004053c0 f i AudioInput.obj
 0001:00004420       ?SetAt@?$CArray@UsMuteLine@CInputLine@CMixerDevice@CAudioInput@@U1234@@@QAEXHUsMuteLine@CInputLine@CMixerDevice@CAudioInput@@@Z 00405420 f i AudioInput.obj
 0001:00004490       ?Add@?$CArray@UsMuteLine@CInputLine@CMixerDevice@CAudioInput@@U1234@@@QAEHUsMuteLine@CInputLine@CMixerDevice@CAudioInput@@@Z 00405490 f i AudioInput.obj
 0001:000044d0       ?Serialize@?$CArray@UsMuteLine@CInputLine@CMixerDevice@CAudioInput@@U1234@@@UAEXAAVCArchive@@@Z 004054d0 f i AudioInput.obj
 0001:00004550       ?Dump@?$CArray@UsMuteLine@CInputLine@CMixerDevice@CAudioInput@@U1234@@@UBEXAAVCDumpContext@@@Z 00405550 f i AudioInput.obj
 0001:000045d0       ?AssertValid@?$CArray@UsMuteLine@CInputLine@CMixerDevice@CAudioInput@@U1234@@@UBEXXZ 004055d0 f i AudioInput.obj
 0001:000046c0       ??_G?$CArray@PAVCInputLine@CMixerDevice@CAudioInput@@PAV123@@@UAEPAXI@Z 004056c0 f i AudioInput.obj
 0001:000046c0       ??_E?$CArray@PAVCInputLine@CMixerDevice@CAudioInput@@PAV123@@@UAEPAXI@Z 004056c0 f i AudioInput.obj
 0001:000046f0       ??_E?$CArray@PAVCPhysicalDevice@CMixerDevice@CAudioInput@@PAV123@@@UAEPAXI@Z 004056f0 f i AudioInput.obj
 0001:000046f0       ??_G?$CArray@PAVCPhysicalDevice@CMixerDevice@CAudioInput@@PAV123@@@UAEPAXI@Z 004056f0 f i AudioInput.obj
 0001:00004720       ??_E?$CArray@PAVCMixerDevice@CAudioInput@@PAV12@@@UAEPAXI@Z 00405720 f i AudioInput.obj
 0001:00004720       ??_G?$CArray@PAVCMixerDevice@CAudioInput@@PAV12@@@UAEPAXI@Z 00405720 f i AudioInput.obj
 0001:00004750       ??_G?$CArray@UsMuteLine@CInputLine@CMixerDevice@CAudioInput@@U1234@@@UAEPAXI@Z 00405750 f i AudioInput.obj
 0001:00004750       ??_E?$CArray@UsMuteLine@CInputLine@CMixerDevice@CAudioInput@@U1234@@@UAEPAXI@Z 00405750 f i AudioInput.obj
 0001:00004780       ??1?$CArray@UsMuteLine@CInputLine@CMixerDevice@CAudioInput@@U1234@@@UAE@XZ 00405780 f i AudioInput.obj
 0001:00004820       ?SetSize@?$CArray@PAVCInputLine@CMixerDevice@CAudioInput@@PAV123@@@QAEXHH@Z 00405820 f i AudioInput.obj
 0001:00004c30       ??2@YAPAXIPAX@Z            00405c30 f i AudioInput.obj
 0001:00004c40       ?SetAtGrow@?$CArray@PAVCInputLine@CMixerDevice@CAudioInput@@PAV123@@@QAEXHPAVCInputLine@CMixerDevice@CAudioInput@@@Z 00405c40 f i AudioInput.obj
 0001:00004cb0       ??$SerializeElements@PAVCInputLine@CMixerDevice@CAudioInput@@@@YGXAAVCArchive@@PAPAVCInputLine@CMixerDevice@CAudioInput@@H@Z 00405cb0 f i AudioInput.obj
 0001:00004db0       ??$DumpElements@PAVCInputLine@CMixerDevice@CAudioInput@@@@YGXAAVCDumpContext@@PBQAVCInputLine@CMixerDevice@CAudioInput@@H@Z 00405db0 f i AudioInput.obj
 0001:00004df0       ?SetSize@?$CArray@PAVCPhysicalDevice@CMixerDevice@CAudioInput@@PAV123@@@QAEXHH@Z 00405df0 f i AudioInput.obj
 0001:00005200       ?SetAtGrow@?$CArray@PAVCPhysicalDevice@CMixerDevice@CAudioInput@@PAV123@@@QAEXHPAVCPhysicalDevice@CMixerDevice@CAudioInput@@@Z 00406200 f i AudioInput.obj
 0001:00005270       ??$SerializeElements@PAVCPhysicalDevice@CMixerDevice@CAudioInput@@@@YGXAAVCArchive@@PAPAVCPhysicalDevice@CMixerDevice@CAudioInput@@H@Z 00406270 f i AudioInput.obj
 0001:00005370       ??$DumpElements@PAVCPhysicalDevice@CMixerDevice@CAudioInput@@@@YGXAAVCDumpContext@@PBQAVCPhysicalDevice@CMixerDevice@CAudioInput@@H@Z 00406370 f i AudioInput.obj
 0001:000053b0       ?SetSize@?$CArray@PAVCMixerDevice@CAudioInput@@PAV12@@@QAEXHH@Z 004063b0 f i AudioInput.obj
 0001:000057c0       ?SetAtGrow@?$CArray@PAVCMixerDevice@CAudioInput@@PAV12@@@QAEXHPAVCMixerDevice@CAudioInput@@@Z 004067c0 f i AudioInput.obj
 0001:00005830       ??$SerializeElements@PAVCMixerDevice@CAudioInput@@@@YGXAAVCArchive@@PAPAVCMixerDevice@CAudioInput@@H@Z 00406830 f i AudioInput.obj
 0001:00005930       ??$DumpElements@PAVCMixerDevice@CAudioInput@@@@YGXAAVCDumpContext@@PBQAVCMixerDevice@CAudioInput@@H@Z 00406930 f i AudioInput.obj
 0001:00005970       ?SetSize@?$CArray@UsMuteLine@CInputLine@CMixerDevice@CAudioInput@@U1234@@@QAEXHH@Z 00406970 f i AudioInput.obj
 0001:00005d80       ?SetAtGrow@?$CArray@UsMuteLine@CInputLine@CMixerDevice@CAudioInput@@U1234@@@QAEXHUsMuteLine@CInputLine@CMixerDevice@CAudioInput@@@Z 00406d80 f i AudioInput.obj
 0001:00005e00       ??$SerializeElements@UsMuteLine@CInputLine@CMixerDevice@CAudioInput@@@@YGXAAVCArchive@@PAUsMuteLine@CInputLine@CMixerDevice@CAudioInput@@H@Z 00406e00 f i AudioInput.obj
 0001:00005f00       ??$DumpElements@UsMuteLine@CInputLine@CMixerDevice@CAudioInput@@@@YGXAAVCDumpContext@@PBUsMuteLine@CInputLine@CMixerDevice@CAudioInput@@H@Z 00406f00 f i AudioInput.obj
 0001:00005f40       ??0CDefVolumeDlg@@QAE@PAVCWnd@@@Z 00406f40 f   DefVolumeDlg.obj
 0001:00006060       ?DoDataExchange@CDefVolumeDlg@@MAEXPAVCDataExchange@@@Z 00407060 f   DefVolumeDlg.obj
 0001:00006140       ?GetThisMessageMap@CDefVolumeDlg@@KGPBUAFX_MSGMAP@@XZ 00407140 f   DefVolumeDlg.obj
 0001:00006150       ?GetMessageMap@CDefVolumeDlg@@MBEPBUAFX_MSGMAP@@XZ 00407150 f   DefVolumeDlg.obj
 0001:00006160       ?OnHScroll@CDefVolumeDlg@@IAEXIIPAVCScrollBar@@@Z 00407160 f   DefVolumeDlg.obj
 0001:000062b0       ?OnInitDialog@CDefVolumeDlg@@MAEHXZ 004072b0 f   DefVolumeDlg.obj
 0001:00006460       ?ChangeEdt@CDefVolumeDlg@@IAEHHPAVCEdit@@PAVCSliderCtrl@@@Z 00407460 f   DefVolumeDlg.obj
 0001:000065c0       ?OnChangeEdtMic@CDefVolumeDlg@@IAEXXZ 004075c0 f   DefVolumeDlg.obj
 0001:00006600       ?OnChangeEdtLin@CDefVolumeDlg@@IAEXXZ 00407600 f   DefVolumeDlg.obj
 0001:00006640       ?OnChangeEdtAux@CDefVolumeDlg@@IAEXXZ 00407640 f   DefVolumeDlg.obj
 0001:00006680       ?OnChangeEdtAnl@CDefVolumeDlg@@IAEXXZ 00407680 f   DefVolumeDlg.obj
 0001:000066c0       ?GetDefaultVolumeValues@CDefVolumeDlg@@IAEXXZ 004076c0 f   DefVolumeDlg.obj
 0001:00006730       ?OnOK@CDefVolumeDlg@@MAEXXZ 00407730 f   DefVolumeDlg.obj
 0001:000067a0       ??_GCDefVolumeDlg@@UAEPAXI@Z 004077a0 f i DefVolumeDlg.obj
 0001:000067a0       ??_ECDefVolumeDlg@@UAEPAXI@Z 004077a0 f i DefVolumeDlg.obj
 0001:000067d0       ??1CDefVolumeDlg@@UAE@XZ   004077d0 f i DefVolumeDlg.obj
 0001:000068a0       ??0CDynamicLED@@QAE@XZ     004078a0 f   DynamicLED.obj
 0001:00006980       ??1CDynamicLED@@UAE@XZ     00407980 f   DynamicLED.obj
 0001:00006a50       ?GetThisMessageMap@CDynamicLED@@KGPBUAFX_MSGMAP@@XZ 00407a50 f   DynamicLED.obj
 0001:00006a60       ?GetMessageMap@CDynamicLED@@MBEPBUAFX_MSGMAP@@XZ 00407a60 f   DynamicLED.obj
 0001:00006a70       ?InitLed@CDynamicLED@@QAEXPAVCWnd@@II@Z 00407a70 f   DynamicLED.obj
 0001:00006b30       ?OnPaint@CDynamicLED@@IAEXXZ 00407b30 f   DynamicLED.obj
 0001:00006bb0       ?OnTimer@CDynamicLED@@IAEXI@Z 00407bb0 f   DynamicLED.obj
 0001:00006c60       ?Switch@CDynamicLED@@AAEXH@Z 00407c60 f   DynamicLED.obj
 0001:00006d30       ?SwitchOn@CDynamicLED@@QAEXXZ 00407d30 f   DynamicLED.obj
 0001:00006d50       ?SwitchOff@CDynamicLED@@QAEXXZ 00407d50 f   DynamicLED.obj
 0001:00006d70       ?Blink@CDynamicLED@@QAEXH@Z 00407d70 f   DynamicLED.obj
 0001:00006df0       ?SetLedBright@CDynamicLED@@AAEHHH@Z 00407df0 f   DynamicLED.obj
 0001:00006ef0       ?SetPenBrush@CDynamicLED@@AAEXXZ 00407ef0 f   DynamicLED.obj
 0001:000070c0       ?DrawRoundLed@CDynamicLED@@AAEXVCRect@@@Z 004080c0 f   DynamicLED.obj
 0001:000072c0       ?DrawSquareLed@CDynamicLED@@AAEXVCRect@@@Z 004082c0 f   DynamicLED.obj
 0001:00007400       ??_ECDynamicLED@@UAEPAXI@Z 00408400 f i DynamicLED.obj
 0001:00007400       ??_GCDynamicLED@@UAEPAXI@Z 00408400 f i DynamicLED.obj
 0001:00007430       ??0CLogAudioHdrs@@QAE@XZ   00408430 f   LogAudioHdrs.obj
 0001:00007480       ??1CLogAudioHdrs@@UAE@XZ   00408480 f   LogAudioHdrs.obj
 0001:000074a0       ?UpdateControls@CLogAudioHdrs@@MAEXXZ 004084a0 f   LogAudioHdrs.obj
 0001:00007580       ?PostMessageStop@CLogAudioHdrs@@MAEXXZ 00408580 f   LogAudioHdrs.obj
 0001:000075b0       ?PostMessageStart@CLogAudioHdrs@@MAEXXZ 004085b0 f   LogAudioHdrs.obj
 0001:000075e0       ?PostMessageCancel@CLogAudioHdrs@@MAEXXZ 004085e0 f   LogAudioHdrs.obj
 0001:00007610       ?SppLoggerStop@CLogAudioHdrs@@MAEHXZ 00408610 f   LogAudioHdrs.obj
 0001:00007620       ?SppLoggerStart@CLogAudioHdrs@@MAEHPAD@Z 00408620 f   LogAudioHdrs.obj
 0001:00007640       ?SppLoggerStat@CLogAudioHdrs@@MAEHPAH@Z 00408640 f   LogAudioHdrs.obj
 0001:00007660       ??_GCLogAudioHdrs@@UAEPAXI@Z 00408660 f i LogAudioHdrs.obj
 0001:00007660       ??_ECLogAudioHdrs@@UAEPAXI@Z 00408660 f i LogAudioHdrs.obj
 0001:00007690       ??0CLogFmsConn@@QAE@XZ     00408690 f   LogFmsConn.obj
 0001:000076f0       ??1CLogFmsConn@@UAE@XZ     004086f0 f   LogFmsConn.obj
 0001:00007710       ?UpdateControls@CLogFmsConn@@MAEXXZ 00408710 f   LogFmsConn.obj
 0001:000077f0       ?PostMessageStop@CLogFmsConn@@MAEXXZ 004087f0 f   LogFmsConn.obj
 0001:00007820       ?PostMessageStart@CLogFmsConn@@MAEXXZ 00408820 f   LogFmsConn.obj
 0001:00007850       ?PostMessageCancel@CLogFmsConn@@MAEXXZ 00408850 f   LogFmsConn.obj
 0001:00007880       ?SppLoggerStop@CLogFmsConn@@MAEHXZ 00408880 f   LogFmsConn.obj
 0001:000078a0       ?SppLoggerStart@CLogFmsConn@@MAEHPAD@Z 004088a0 f   LogFmsConn.obj
 0001:000078c0       ??_ECLogFmsConn@@UAEPAXI@Z 004088c0 f i LogFmsConn.obj
 0001:000078c0       ??_GCLogFmsConn@@UAEPAXI@Z 004088c0 f i LogFmsConn.obj
 0001:000078f0       ??0CLogPulse@@QAE@XZ       004088f0 f   LogPulses.obj
 0001:00007940       ??1CLogPulse@@UAE@XZ       00408940 f   LogPulses.obj
 0001:00007960       ?UpdateControls@CLogPulse@@MAEXXZ 00408960 f   LogPulses.obj
 0001:00007a40       ?PostMessageStop@CLogPulse@@MAEXXZ 00408a40 f   LogPulses.obj
 0001:00007a70       ?PostMessageStart@CLogPulse@@MAEXXZ 00408a70 f   LogPulses.obj
 0001:00007aa0       ?PostMessageCancel@CLogPulse@@MAEXXZ 00408aa0 f   LogPulses.obj
 0001:00007ad0       ?SppLoggerStop@CLogPulse@@MAEHXZ 00408ad0 f   LogPulses.obj
 0001:00007ae0       ?SppLoggerStart@CLogPulse@@MAEHPAD@Z 00408ae0 f   LogPulses.obj
 0001:00007b00       ?SppLoggerStat@CLogPulse@@MAEHPAH@Z 00408b00 f   LogPulses.obj
 0001:00007b20       ??_ECLogPulse@@UAEPAXI@Z   00408b20 f i LogPulses.obj
 0001:00007b20       ??_GCLogPulse@@UAEPAXI@Z   00408b20 f i LogPulses.obj
 0001:00007b50       ??0CLogRawPulse@@QAE@XZ    00408b50 f   LogRawPulse.obj
 0001:00007bb0       ??1CLogRawPulse@@UAE@XZ    00408bb0 f   LogRawPulse.obj
 0001:00007bd0       ?UpdateControls@CLogRawPulse@@MAEXXZ 00408bd0 f   LogRawPulse.obj
 0001:00007cb0       ?PostMessageStop@CLogRawPulse@@MAEXXZ 00408cb0 f   LogRawPulse.obj
 0001:00007ce0       ?PostMessageStart@CLogRawPulse@@MAEXXZ 00408ce0 f   LogRawPulse.obj
 0001:00007d10       ?PostMessageCancel@CLogRawPulse@@MAEXXZ 00408d10 f   LogRawPulse.obj
 0001:00007d40       ?SppLoggerStop@CLogRawPulse@@MAEHXZ 00408d40 f   LogRawPulse.obj
 0001:00007d50       ?SppLoggerStart@CLogRawPulse@@MAEHPAD@Z 00408d50 f   LogRawPulse.obj
 0001:00007d70       ?SppLoggerStat@CLogRawPulse@@MAEHPAH@Z 00408d70 f   LogRawPulse.obj
 0001:00007d90       ??_ECLogRawPulse@@UAEPAXI@Z 00408d90 f i LogRawPulse.obj
 0001:00007d90       ??_GCLogRawPulse@@UAEPAXI@Z 00408d90 f i LogRawPulse.obj
 0001:00007dc0       ?_GetBaseClass@CScanInputs@@KGPAUCRuntimeClass@@XZ 00408dc0 f   ScanInputs.obj
 0001:00007dd0       ?GetThisClass@CScanInputs@@SGPAUCRuntimeClass@@XZ 00408dd0 f   ScanInputs.obj
 0001:00007de0       ?GetRuntimeClass@CScanInputs@@UBEPAUCRuntimeClass@@XZ 00408de0 f   ScanInputs.obj
 0001:00007df0       ??0CScanInputs@@QAE@PAVCWnd@@@Z 00408df0 f   ScanInputs.obj
 0001:00007f50       ??1CScanInputs@@UAE@XZ     00408f50 f   ScanInputs.obj
 0001:00007fb0       ?DoDataExchange@CScanInputs@@MAEXPAVCDataExchange@@@Z 00408fb0 f   ScanInputs.obj
 0001:00007fe0       ?GetThisMessageMap@CScanInputs@@KGPBUAFX_MSGMAP@@XZ 00408fe0 f   ScanInputs.obj
 0001:00007ff0       ?GetMessageMap@CScanInputs@@MBEPBUAFX_MSGMAP@@XZ 00408ff0 f   ScanInputs.obj
 0001:00008000       ?OnBnClickedCancel@CScanInputs@@QAEXXZ 00409000 f   ScanInputs.obj
 0001:000080a0       ?OnBnClickedScan@CScanInputs@@QAEXXZ 004090a0 f   ScanInputs.obj
 0001:00008200       ?OnBnClickedSaveLog@CScanInputs@@QAEXXZ 00409200 f   ScanInputs.obj
 0001:00008210       ?LogAudioLevel@CScanInputs@@IAEXHHH@Z 00409210 f   ScanInputs.obj
 0001:000083b0       ?ScanModulationTypes@CScanInputs@@IAEHXZ 004093b0 f   ScanInputs.obj
 0001:000084c0       ?LogModulation@CScanInputs@@IAEXHH@Z 004094c0 f   ScanInputs.obj
 0001:00008600       ?OnShowWindow@CScanInputs@@QAEXHI@Z 00409600 f   ScanInputs.obj
 0001:00008690       ??_GCScanInputs@@UAEPAXI@Z 00409690 f i ScanInputs.obj
 0001:00008690       ??_ECScanInputs@@UAEPAXI@Z 00409690 f i ScanInputs.obj
 0001:000086c0       ??HATL@@YA?AV?$CStringT@DV?$StrTraitMFC_DLL@DV?$ChTraitsCRT@D@ATL@@@@@0@ABV10@0@Z 004096c0 f i ScanInputs.obj
 0001:00008770       ?GetThisMessageMap@CSppConsoleApp@@KGPBUAFX_MSGMAP@@XZ 00409770 f   SppConsole.obj
 0001:00008780       ?GetMessageMap@CSppConsoleApp@@MBEPBUAFX_MSGMAP@@XZ 00409780 f   SppConsole.obj
 0001:00008790       ??0CSppConsoleApp@@QAE@XZ  00409790 f   SppConsole.obj
 0001:000087c0       ?InitInstance@CSppConsoleApp@@UAEHXZ 004097c0 f   SppConsole.obj
 0001:00008870       ?doStartIconified@CSppConsoleApp@@IAE_NXZ 00409870 f   SppConsole.obj
 0001:000088d0       ?OnAbout@CSppConsoleApp@@QAEXXZ 004098d0 f   SppConsole.obj
 0001:00008940       ??_ECSppConsoleApp@@UAEPAXI@Z 00409940 f i SppConsole.obj
 0001:00008940       ??_GCSppConsoleApp@@UAEPAXI@Z 00409940 f i SppConsole.obj
 0001:00008970       ??1CSppConsoleApp@@UAE@XZ  00409970 f i SppConsole.obj
 0001:00008990       ??1CSppConsoleDlg@@UAE@XZ  00409990 f i SppConsole.obj
 0001:00008a20       ??0CSppConsoleDlg@@QAE@PAVCWnd@@@Z 00409a20 f   SppConsoleDlg.obj
 0001:00008bc0       ?DoDataExchange@CSppConsoleDlg@@MAEXPAVCDataExchange@@@Z 00409bc0 f   SppConsoleDlg.obj
 0001:00008d30       ?GetThisMessageMap@CSppConsoleDlg@@KGPBUAFX_MSGMAP@@XZ 00409d30 f   SppConsoleDlg.obj
 0001:00008d40       ?GetMessageMap@CSppConsoleDlg@@MBEPBUAFX_MSGMAP@@XZ 00409d40 f   SppConsoleDlg.obj
 0001:00008d50       ?GetDllVersion@@YAKPBD@Z   00409d50 f   SppConsoleDlg.obj
 0001:00008de0       ?ThreeBeeps@@YAXXZ         00409de0 f   SppConsoleDlg.obj
 0001:00008e40       ?OneBeep@@YAXXZ            00409e40 f   SppConsoleDlg.obj
 0001:00008e70       ?OnInitDialog@CSppConsoleDlg@@MAEHXZ 00409e70 f   SppConsoleDlg.obj
 0001:00009310       ?OnDestroy@CSppConsoleDlg@@IAEXXZ 0040a310 f   SppConsoleDlg.obj
 0001:000093c0       ?OnPaint@CSppConsoleDlg@@IAEXXZ 0040a3c0 f   SppConsoleDlg.obj
 0001:00009500       ?OnQueryDragIcon@CSppConsoleDlg@@IAEPAUHICON__@@XZ 0040a500 f   SppConsoleDlg.obj
 0001:00009520       ?SomethingChanged@CSppConsoleDlg@@QAEXXZ 0040a520 f   SppConsoleDlg.obj
 0001:00009560       ?OnSelchangeModType@CSppConsoleDlg@@IAEXXZ 0040a560 f   SppConsoleDlg.obj
 0001:000096b0       ?GetModeTypeCtrl@CSppConsoleDlg@@QAEPAVCWnd@@XZ 0040a6b0 f   SppConsoleDlg.obj
 0001:000096d0       ?OnShiftAuto@CSppConsoleDlg@@IAEXXZ 0040a6d0 f   SppConsoleDlg.obj
 0001:00009770       ?GetShiftAutoCtrl@CSppConsoleDlg@@QAEPAVCWnd@@XZ 0040a770 f   SppConsoleDlg.obj
 0001:00009790       ?OnShiftPos@CSppConsoleDlg@@IAEXXZ 0040a790 f   SppConsoleDlg.obj
 0001:000097b0       ?GetShiftPosCtrl@CSppConsoleDlg@@QAEPAVCWnd@@XZ 0040a7b0 f   SppConsoleDlg.obj
 0001:000097d0       ?OnShiftNeg@CSppConsoleDlg@@IAEXXZ 0040a7d0 f   SppConsoleDlg.obj
 0001:000097f0       ?OnHide@CSppConsoleDlg@@IAEXXZ 0040a7f0 f   SppConsoleDlg.obj
 0001:00009820       ?OnShow@CSppConsoleDlg@@IAEXXZ 0040a820 f   SppConsoleDlg.obj
 0001:00009850       ?PopulateModulation@CSppConsoleDlg@@IAEHXZ 0040a850 f   SppConsoleDlg.obj
 0001:000099a0       ?ShowShiftRB@CSppConsoleDlg@@IAEX_N@Z 0040a9a0 f   SppConsoleDlg.obj
 0001:00009a50       ?TaskBarAddIcon@CSppConsoleDlg@@IAEHIPAUHICON__@@PAD@Z 0040aa50 f   SppConsoleDlg.obj
 0001:00009c30       ?TaskBarDelIcon@CSppConsoleDlg@@IAEHI@Z 0040ac30 f   SppConsoleDlg.obj
 0001:00009c90       ?TaskBarIconBaloon@CSppConsoleDlg@@IAEHIPBD0@Z 0040ac90 f   SppConsoleDlg.obj
 0001:00009db0       ?TaskBarIconToolTip@CSppConsoleDlg@@IAEHIPBD@Z 0040adb0 f   SppConsoleDlg.obj
 0001:00009e40       ?StartIconified@CSppConsoleDlg@@QAEX_N@Z 0040ae40 f   SppConsoleDlg.obj
 0001:00009e60       ?OnStatusAreaMessage@CSppConsoleDlg@@IAEJIJ@Z 0040ae60 f   SppConsoleDlg.obj
 0001:00009ec0       ?OnMixerLineChange@CSppConsoleDlg@@AAEJIJ@Z 0040aec0 f   SppConsoleDlg.obj
 0001:00009ed0       ?OnMixerControlChange@CSppConsoleDlg@@AAEJIJ@Z 0040aed0 f   SppConsoleDlg.obj
 0001:00009f50       ?ShowTrayIconMenu@CSppConsoleDlg@@IAEXI@Z 0040af50 f   SppConsoleDlg.obj
 0001:0000a0b0       ?OnWindowPosChanging@CSppConsoleDlg@@IAEXPAUtagWINDOWPOS@@@Z 0040b0b0 f   SppConsoleDlg.obj
 0001:0000a0f0       ?OnInterSppConsole@CSppConsoleDlg@@IAEJIJ@Z 0040b0f0 f   SppConsoleDlg.obj
 0001:0000a120       ?OnInterSppApps@CSppConsoleDlg@@IAEJIJ@Z 0040b120 f   SppConsoleDlg.obj
 0001:0000a580       ?OnOK@CSppConsoleDlg@@MAEXXZ 0040b580 f   SppConsoleDlg.obj
 0001:0000a5d0       ?OnCancel@CSppConsoleDlg@@MAEXXZ 0040b5d0 f   SppConsoleDlg.obj
 0001:0000a5f0       ?isDllActive@CSppConsoleDlg@@IAE_NXZ 0040b5f0 f   SppConsoleDlg.obj
 0001:0000a640       ?GetStatusString@CSppConsoleDlg@@QAE?AV?$CStringT@DV?$StrTraitMFC_DLL@DV?$ChTraitsCRT@D@ATL@@@@@ATL@@XZ 0040b640 f   SppConsoleDlg.obj
 0001:0000a940       ?OnToolTipNotify@CSppConsoleDlg@@IAEHIPAUtagNMHDR@@PAJ@Z 0040b940 f   SppConsoleDlg.obj
 0001:0000a9b0       ?GetFmsStatusString@CSppConsoleDlg@@IAEHAAV?$CStringT@DV?$StrTraitMFC_DLL@DV?$ChTraitsCRT@D@ATL@@@@@ATL@@@Z 0040b9b0 f   SppConsoleDlg.obj
 0001:0000ac20       ?PopulateAudioSource@CSppConsoleDlg@@IAEXXZ 0040bc20 f   SppConsoleDlg.obj
 0001:0000ad10       ?GetMixerDeviceCtrl@CSppConsoleDlg@@QAEPAVCWnd@@XZ 0040bd10 f   SppConsoleDlg.obj
 0001:0000ad30       ?PopulateInputLines@CSppConsoleDlg@@IAEXXZ 0040bd30 f   SppConsoleDlg.obj
 0001:0000ae10       ?GetAudioLinesCtrl@CSppConsoleDlg@@QAEPAVCWnd@@XZ 0040be10 f   SppConsoleDlg.obj
 0001:0000ae30       ?OnSelchangeMixerdevice@CSppConsoleDlg@@IAEXXZ 0040be30 f   SppConsoleDlg.obj
 0001:0000af00       ?OnSelchangeAudioSrc@CSppConsoleDlg@@IAEXXZ 0040bf00 f   SppConsoleDlg.obj
 0001:0000afd0       ?OnEnableAudio@CSppConsoleDlg@@IAEXXZ 0040bfd0 f   SppConsoleDlg.obj
 0001:0000b040       ?EnableAudio@CSppConsoleDlg@@IAEXH@Z 0040c040 f   SppConsoleDlg.obj
 0001:0000b1a0       ?GetCurrentMixerDevice@CSppConsoleDlg@@IAEHXZ 0040c1a0 f   SppConsoleDlg.obj
 0001:0000b210       ?GetCurrentInputLine@CSppConsoleDlg@@IAEHXZ 0040c210 f   SppConsoleDlg.obj
 0001:0000b250       ?GetSavedCurrentInputLine@CSppConsoleDlg@@IAE_NPAI@Z 0040c250 f   SppConsoleDlg.obj
 0001:0000b2c0       ?GetCurrentInputLineFromSystem@CSppConsoleDlg@@IAE_NPAI@Z 0040c2c0 f   SppConsoleDlg.obj
 0001:0000b320       ?SetCurrentMixerDevice@CSppConsoleDlg@@IAEXI@Z 0040c320 f   SppConsoleDlg.obj
 0001:0000b370       ?SetCurrentInputLine@CSppConsoleDlg@@IAEXH@Z 0040c370 f   SppConsoleDlg.obj
 0001:0000b3f0       ?GetCheckAudioCtrl@CSppConsoleDlg@@QAEPAVCWnd@@XZ 0040c3f0 f   SppConsoleDlg.obj
 0001:0000b410       ?CheckAudioCB@CSppConsoleDlg@@IAEXXZ 0040c410 f   SppConsoleDlg.obj
 0001:0000b440       ?OnSetCursor@CSppConsoleDlg@@IAEHPAVCWnd@@II@Z 0040c440 f   SppConsoleDlg.obj
 0001:0000b4d0       ?HearTx@CSppConsoleDlg@@IAEX_N@Z 0040c4d0 f   SppConsoleDlg.obj
 0001:0000b5a0       ?OnSelSrc@CSppConsoleDlg@@IAEXXZ 0040c5a0 f   SppConsoleDlg.obj
 0001:0000b730       ?OnAudioDst@CSppConsoleDlg@@IAEXXZ 0040c730 f   SppConsoleDlg.obj
 0001:0000b8c0       ?OnAudioVol@CSppConsoleDlg@@IAEXXZ 0040c8c0 f   SppConsoleDlg.obj
 0001:0000b950       ?OnAudioPrint@CSppConsoleDlg@@IAEXXZ 0040c950 f   SppConsoleDlg.obj
 0001:0000ba70       ?PpJoyExShowCtrl@CSppConsoleDlg@@IAEXXZ 0040ca70 f   SppConsoleDlg.obj
 0001:0000bab0       ?OnPpjoyex@CSppConsoleDlg@@IAEXXZ 0040cab0 f   SppConsoleDlg.obj
 0001:0000bbb0       ?UpdateFilterMenu@CSppConsoleDlg@@IAEXXZ 0040cbb0 f   SppConsoleDlg.obj
 0001:0000be90       ?OnFilterSelect@CSppConsoleDlg@@IAEXI@Z 0040ce90 f   SppConsoleDlg.obj
 0001:0000c010       ?OnHideMsg@CSppConsoleDlg@@AAEJIJ@Z 0040d010 f   SppConsoleDlg.obj
 0001:0000c030       ?LocateDialogWindow@CSppConsoleDlg@@IAEHXZ 0040d030 f   SppConsoleDlg.obj
 0001:0000c0b0       ?StoreLocationDialogWindow@CSppConsoleDlg@@IAEHXZ 0040d0b0 f   SppConsoleDlg.obj
 0001:0000c0e0       ?OnTimer@CSppConsoleDlg@@QAEXI@Z 0040d0e0 f   SppConsoleDlg.obj
 0001:0000c1f0       ?InitJoyPosBars@CSppConsoleDlg@@IAEXXZ 0040d1f0 f   SppConsoleDlg.obj
 0001:0000c280       ?SetJoyPosBars@CSppConsoleDlg@@IAEXPAH@Z 0040d280 f   SppConsoleDlg.obj
 0001:0000c370       ?OnWaveRec@CSppConsoleDlg@@IAEXXZ 0040d370 f   SppConsoleDlg.obj
 0001:0000c450       ?OnWaveRecStart@CSppConsoleDlg@@AAEJIJ@Z 0040d450 f   SppConsoleDlg.obj
 0001:0000c4b0       ?OnWaveRecStop@CSppConsoleDlg@@AAEJIJ@Z 0040d4b0 f   SppConsoleDlg.obj
 0001:0000c510       ?OnWaveRecCancel@CSppConsoleDlg@@AAEJIJ@Z 0040d510 f   SppConsoleDlg.obj
 0001:0000c530       ?OnAdvancedJitter@CSppConsoleDlg@@QAEXXZ 0040d530 f   SppConsoleDlg.obj
 0001:0000c550       ?InitJitterStatus@CSppConsoleDlg@@IAEXXZ 0040d550 f   SppConsoleDlg.obj
 0001:0000c5b0       ?UpdateJitterStatus@CSppConsoleDlg@@IAEXHH@Z 0040d5b0 f   SppConsoleDlg.obj
 0001:0000c7c0       ?UpdateFmsMenuItem@CSppConsoleDlg@@IAEXH@Z 0040d7c0 f   SppConsoleDlg.obj
 0001:0000c8e0       ?OnRunFms@CSppConsoleDlg@@QAEXXZ 0040d8e0 f   SppConsoleDlg.obj
 0001:0000ca00       ?OnSysCommand@CSppConsoleDlg@@QAEXIJ@Z 0040da00 f   SppConsoleDlg.obj
 0001:0000ca30       ?OnLogAudioHdrs@CSppConsoleDlg@@QAEXXZ 0040da30 f   SppConsoleDlg.obj
 0001:0000cb10       ?OnLogAudioHdrsCancel@CSppConsoleDlg@@AAEJIJ@Z 0040db10 f   SppConsoleDlg.obj
 0001:0000cb30       ?OnLogPulse@CSppConsoleDlg@@QAEXXZ 0040db30 f   SppConsoleDlg.obj
 0001:0000cc70       ?OnLogPulseCancel@CSppConsoleDlg@@AAEJIJ@Z 0040dc70 f   SppConsoleDlg.obj
 0001:0000cc90       ?OnLogFmsConn@CSppConsoleDlg@@QAEXXZ 0040dc90 f   SppConsoleDlg.obj
 0001:0000cdb0       ?OnFmsConnStart@CSppConsoleDlg@@AAEJIJ@Z 0040ddb0 f   SppConsoleDlg.obj
 0001:0000d060       ?OnFmsConnStop@CSppConsoleDlg@@AAEJIJ@Z 0040e060 f   SppConsoleDlg.obj
 0001:0000d1b0       ?OnFmsConnCancel@CSppConsoleDlg@@AAEJIJ@Z 0040e1b0 f   SppConsoleDlg.obj
 0001:0000d1d0       ?OnLogRawPulse@CSppConsoleDlg@@QAEXXZ 0040e1d0 f   SppConsoleDlg.obj
 0001:0000d2f0       ?OnRawPulseCancel@CSppConsoleDlg@@AAEJIJ@Z 0040e2f0 f   SppConsoleDlg.obj
 0001:0000d310       ?OnBnClickedScandlg@CSppConsoleDlg@@QAEXXZ 0040e310 f   SppConsoleDlg.obj
 0001:0000d3e0       ?GetAudioLevel@CSppConsoleDlg@@QAEHXZ 0040e3e0 f   SppConsoleDlg.obj
 0001:0000d410       ?GetNumJoystickPos@CSppConsoleDlg@@QAEHXZ 0040e410 f   SppConsoleDlg.obj
 0001:0000d450       ??_GCSppConsoleDlg@@UAEPAXI@Z 0040e450 f i SppConsoleDlg.obj
 0001:0000d450       ??_ECSppConsoleDlg@@UAEPAXI@Z 0040e450 f i SppConsoleDlg.obj
 0001:0000d480       ?GetWindowInfo@CWnd@@QBEHPAUtagWINDOWINFO@@@Z 0040e480 f i SppConsoleDlg.obj
 0001:0000d4c0       ?_GetBaseClass@CStaticLink@@KGPAUCRuntimeClass@@XZ 0040e4c0 f   StatLink.obj
 0001:0000d4d0       ?GetThisClass@CStaticLink@@SGPAUCRuntimeClass@@XZ 0040e4d0 f   StatLink.obj
 0001:0000d4e0       ?GetRuntimeClass@CStaticLink@@UBEPAUCRuntimeClass@@XZ 0040e4e0 f   StatLink.obj
 0001:0000d4f0       ?GetThisMessageMap@CStaticLink@@KGPBUAFX_MSGMAP@@XZ 0040e4f0 f   StatLink.obj
 0001:0000d500       ?GetMessageMap@CStaticLink@@MBEPBUAFX_MSGMAP@@XZ 0040e500 f   StatLink.obj
 0001:0000d510       ??0CStaticLink@@QAE@XZ     0040e510 f   StatLink.obj
 0001:0000d5a0       ?CtlColor@CStaticLink@@QAEPAUHBRUSH__@@PAVCDC@@I@Z 0040e5a0 f   StatLink.obj
 0001:0000d6c0       ?OnClicked@CStaticLink@@QAEXXZ 0040e6c0 f   StatLink.obj
 0001:0000d770       ?SetDefaultCursor@CStaticLink@@QAEXXZ 0040e770 f   StatLink.obj
 0001:0000d850       ?OnSetCursor@CStaticLink@@QAEHPAVCWnd@@II@Z 0040e850 f   StatLink.obj
 0001:0000d880       ?SetLink@CStaticLink@@QAE?AV?$CStringT@DV?$StrTraitMFC_DLL@DV?$ChTraitsCRT@D@ATL@@@@@ATL@@V23@@Z 0040e880 f   StatLink.obj
 0001:0000d970       ??_ECStaticLink@@UAEPAXI@Z 0040e970 f i StatLink.obj
 0001:0000d970       ??_GCStaticLink@@UAEPAXI@Z 0040e970 f i StatLink.obj
 0001:0000d9a0       ??0CTraceFileAndLineInfo@ATL@@QAE@PBDH@Z 0040e9a0 f i StatLink.obj
 0001:0000d9d0       ??RCTraceFileAndLineInfo@ATL@@QBAXPBDZZ 0040e9d0 f i StatLink.obj
 0001:0000da20       ?TraceV@CTrace@ATL@@QBAXPBDHKI0PAD@Z 0040ea20 f i StatLink.obj
 0001:0000da50       ??BCTraceCategory@ATL@@QBEKXZ 0040ea50 f i StatLink.obj
 0001:0000da60       ?GetEnvironmentVariableWThunk@ATL@@YGKPBGPAGK@Z 0040ea60 f i StdAfx.obj
 0001:0000daa0       ?_AtlInstallStringThunk@ATL@@YAXPAPAXPAX1@Z 0040eaa0 f i StdAfx.obj
 0001:0000db00       ?GetEnvironmentVariableWFake@ATL@@YGKPBGPAGK@Z 0040eb00 f i StdAfx.obj
 0001:0000dce0       ?_AtlGetConversionACP@ATL@@YGIXZ 0040ece0 f i StdAfx.obj
 0001:0000dcf0       ?CompareStringWThunk@ATL@@YGHKKPBGH0H@Z 0040ecf0 f i StdAfx.obj
 0001:0000dd30       ?CompareStringWFake@ATL@@YGHKKPBGH0H@Z 0040ed30 f i StdAfx.obj
 0001:0000df10       ?_AtlVerifyStackAvailable@_ATL_SAFE_ALLOCA_IMPL@ATL@@YA_NK@Z 0040ef10 f i StdAfx.obj
 0001:0000dfb0       ?AtlW2AHelper@@YGPADPADPBGHI@Z 0040efb0 f i StdAfx.obj
 0001:0000e080       ?AtlThrow@ATL@@YGXJ@Z      0040f080 f i StdAfx.obj
 0001:0000e0e0       ??RCTraceFileAndLineInfo@ATL@@QBAXKIPBDZZ 0040f0e0 f i StdAfx.obj
 0001:0000e120       ?GetStringTypeExWThunk@ATL@@YGHKKPBGHPAG@Z 0040f120 f i StdAfx.obj
 0001:0000e160       ?GetStringTypeExWFake@ATL@@YGHKKPBGHPAG@Z 0040f160 f i StdAfx.obj
 0001:0000e270       ?lstrcmpiWThunk@ATL@@YGHPBG0@Z 0040f270 f i StdAfx.obj
 0001:0000e2a0       ?lstrcmpiWFake@ATL@@YGHPBG0@Z 0040f2a0 f i StdAfx.obj
 0001:0000e380       ?CharLowerWThunk@ATL@@YGPAGPAG@Z 0040f380 f i StdAfx.obj
 0001:0000e3b0       ?CharLowerWFake@ATL@@YGPAGPAG@Z 0040f3b0 f i StdAfx.obj
 0001:0000e4a0       ?AtlA2WHelper@@YGPAGPAGPBDHI@Z 0040f4a0 f i StdAfx.obj
 0001:0000e570       ?CharUpperWThunk@ATL@@YGPAGPAG@Z 0040f570 f i StdAfx.obj
 0001:0000e5a0       ?CharUpperWFake@ATL@@YGPAGPAG@Z 0040f5a0 f i StdAfx.obj
 0001:0000e690       ??_Estringdispid@CComTypeInfoHolder@ATL@@QAEPAXI@Z 0040f690 f i StdAfx.obj
 0001:0000e700       ??1stringdispid@CComTypeInfoHolder@ATL@@QAE@XZ 0040f700 f i StdAfx.obj
 0001:0000e720       ??1CComBSTR@ATL@@QAE@XZ    0040f720 f i StdAfx.obj
 0001:0000e740       ??0?$CAtlSafeAllocBufferManager@VCCRTAllocator@ATL@@@_ATL_SAFE_ALLOCA_IMPL@ATL@@QAE@XZ 0040f740 f i StdAfx.obj
 0001:0000e760       ?Allocate@?$CAtlSafeAllocBufferManager@VCCRTAllocator@ATL@@@_ATL_SAFE_ALLOCA_IMPL@ATL@@QAEPAXK@Z 0040f760 f i StdAfx.obj
 0001:0000e7b0       ?Allocate@CCRTAllocator@ATL@@SAPAXI@Z 0040f7b0 f i StdAfx.obj
 0001:0000e7d0       ??1?$CAtlSafeAllocBufferManager@VCCRTAllocator@ATL@@@_ATL_SAFE_ALLOCA_IMPL@ATL@@QAE@XZ 0040f7d0 f i StdAfx.obj
 0001:0000e810       ?Free@CCRTAllocator@ATL@@SAXPAX@Z 0040f810 f i StdAfx.obj
 0001:0000e830       ??0?$CTempBuffer@D$0IA@VCCRTAllocator@ATL@@@ATL@@QAE@XZ 0040f830 f i StdAfx.obj
 0001:0000e850       ??1?$CTempBuffer@D$0IA@VCCRTAllocator@ATL@@@ATL@@QAE@XZ 0040f850 f i StdAfx.obj
 0001:0000e870       ??B?$CTempBuffer@D$0IA@VCCRTAllocator@ATL@@@ATL@@QBEPADXZ 0040f870 f i StdAfx.obj
 0001:0000e880       ?Allocate@?$CTempBuffer@D$0IA@VCCRTAllocator@ATL@@@ATL@@QAEPADI@Z 0040f880 f i StdAfx.obj
 0001:0000e8a0       ??0?$CW2AEX@$0IA@@ATL@@QAE@PBG@Z 0040f8a0 f i StdAfx.obj
 0001:0000e8d0       ??1?$CW2AEX@$0IA@@ATL@@QAE@XZ 0040f8d0 f i StdAfx.obj
 0001:0000e900       ??B?$CW2AEX@$0IA@@ATL@@QBEPADXZ 0040f900 f i StdAfx.obj
 0001:0000e910       ?AllocateBytes@?$CTempBuffer@D$0IA@VCCRTAllocator@ATL@@@ATL@@QAEPADI@Z 0040f910 f i StdAfx.obj
 0001:0000e970       ?FreeHeap@?$CTempBuffer@D$0IA@VCCRTAllocator@ATL@@@ATL@@AAEXXZ 0040f970 f i StdAfx.obj
 0001:0000e990       ?Init@?$CW2AEX@$0IA@@ATL@@AAEXPBGI@Z 0040f990 f i StdAfx.obj
 0001:0000ea20       ?AtlThrowLastWin32@ATL@@YGXXZ 0040fa20 f i StdAfx.obj
 0001:0000ea70       ?GetData@CAtlSafeAllocBufferNode@?$CAtlSafeAllocBufferManager@VCCRTAllocator@ATL@@@_ATL_SAFE_ALLOCA_IMPL@ATL@@QAEPAXXZ 0040fa70 f i StdAfx.obj
 0001:0000ea90       ?AllocateHeap@?$CTempBuffer@D$0IA@VCCRTAllocator@ATL@@@ATL@@AAEXI@Z 0040fa90 f i StdAfx.obj
 0001:0000ead0       ??0CAtlWinModule@ATL@@QAE@XZ 0040fad0 f i StdAfx.obj
 0001:0000eb10       ??0_ATL_WIN_MODULE70@ATL@@QAE@XZ 0040fb10 f i StdAfx.obj
 0001:0000eb40       ??0CComCriticalSection@ATL@@QAE@XZ 0040fb40 f i StdAfx.obj
 0001:0000eb60       ??0?$CSimpleArray@GV?$CSimpleArrayEqualHelper@G@ATL@@@ATL@@QAE@XZ 0040fb60 f i StdAfx.obj
 0001:0000eb90       ??1CAtlWinModule@ATL@@QAE@XZ 0040fb90 f i StdAfx.obj
 0001:0000ebe0       ?Term@CAtlWinModule@ATL@@QAEXXZ 0040fbe0 f i StdAfx.obj
 0001:0000ec00       ?GetModuleInstance@CAtlBaseModule@ATL@@QAEPAUHINSTANCE__@@XZ 0040fc00 f i StdAfx.obj
 0001:0000ec20       ??1_ATL_WIN_MODULE70@ATL@@QAE@XZ 0040fc20 f i StdAfx.obj
 0001:0000ec40       ?AtlWinModuleTerm@ATL@@YGJPAU_ATL_WIN_MODULE70@1@PAUHINSTANCE__@@@Z 0040fc40 f i StdAfx.obj
 0001:0000ece0       ?Term@CComCriticalSection@ATL@@QAEJXZ 0040fce0 f i StdAfx.obj
 0001:0000ed00       ??1?$CSimpleArray@GV?$CSimpleArrayEqualHelper@G@ATL@@@ATL@@QAE@XZ 0040fd00 f i StdAfx.obj
 0001:0000ed20       ?GetSize@?$CSimpleArray@GV?$CSimpleArrayEqualHelper@G@ATL@@@ATL@@QBEHXZ 0040fd20 f i StdAfx.obj
 0001:0000ed40       ?RemoveAll@?$CSimpleArray@GV?$CSimpleArrayEqualHelper@G@ATL@@@ATL@@QAEXXZ 0040fd40 f i StdAfx.obj
 0001:0000eda0       ??A?$CSimpleArray@GV?$CSimpleArrayEqualHelper@G@ATL@@@ATL@@QAEAAGH@Z 0040fda0 f i StdAfx.obj
 0001:0000ee10       ?_AtlRaiseException@ATL@@YAXKK@Z 0040fe10 f i StdAfx.obj
 0001:0000ee30       ?_GetBaseClass@CWaveRec@@KGPAUCRuntimeClass@@XZ 0040fe30 f   WaveRec.obj
 0001:0000ee40       ?GetThisClass@CWaveRec@@SGPAUCRuntimeClass@@XZ 0040fe40 f   WaveRec.obj
 0001:0000ee50       ?GetRuntimeClass@CWaveRec@@UBEPAUCRuntimeClass@@XZ 0040fe50 f   WaveRec.obj
 0001:0000ee60       ??0CWaveRec@@QAE@PAVCWnd@@@Z 0040fe60 f   WaveRec.obj
 0001:0000ef30       ??1CWaveRec@@UAE@XZ        0040ff30 f   WaveRec.obj
 0001:0000ef90       ?DoDataExchange@CWaveRec@@MAEXPAVCDataExchange@@@Z 0040ff90 f   WaveRec.obj
 0001:0000efd0       ?GetThisMessageMap@CWaveRec@@KGPBUAFX_MSGMAP@@XZ 0040ffd0 f   WaveRec.obj
 0001:0000efe0       ?GetMessageMap@CWaveRec@@MBEPBUAFX_MSGMAP@@XZ 0040ffe0 f   WaveRec.obj
 0001:0000eff0       ?OnBnClickedRecStop@CWaveRec@@QAEXXZ 0040fff0 f   WaveRec.obj
 0001:0000f110       ?OnBnClickedRecStart@CWaveRec@@QAEXXZ 00410110 f   WaveRec.obj
 0001:0000f210       ?UpdateControls@CWaveRec@@MAEXXZ 00410210 f   WaveRec.obj
 0001:0000f360       ?OnInitDialog@CWaveRec@@UAEHXZ 00410360 f   WaveRec.obj
 0001:0000f410       ?PostMessageStop@CWaveRec@@MAEXXZ 00410410 f   WaveRec.obj
 0001:0000f440       ?PostMessageStart@CWaveRec@@MAEXXZ 00410440 f   WaveRec.obj
 0001:0000f470       ?PostMessageCancel@CWaveRec@@MAEXXZ 00410470 f   WaveRec.obj
 0001:0000f4a0       ?PostMessagePlay@CWaveRec@@MAEXXZ 004104a0 f   WaveRec.obj
 0001:0000f4d0       ?OnBnClickedCancel@CWaveRec@@QAEXXZ 004104d0 f   WaveRec.obj
 0001:0000f570       ?RenameWaveFile@CWaveRec@@IAEXXZ 00410570 f   WaveRec.obj
 0001:0000f6c0       ?GetWaveFileName@CWaveRec@@IAE_NXZ 004106c0 f   WaveRec.obj
 0001:0000f7d0       ?OnTimer@CWaveRec@@QAEXI@Z 004107d0 f   WaveRec.obj
 0001:0000f8a0       ?OnBnClickedRecPlay@CWaveRec@@QAEXXZ 004108a0 f   WaveRec.obj
 0001:0000fa20       ?SppLoggerStop@CWaveRec@@MAEHXZ 00410a20 f   WaveRec.obj
 0001:0000fa30       ?SppLoggerPlay@CWaveRec@@MAEHPAD@Z 00410a30 f   WaveRec.obj
 0001:0000fa50       ?SppLoggerStart@CWaveRec@@MAEHPAD@Z 00410a50 f   WaveRec.obj
 0001:0000fa70       ?SppLoggerStat@CWaveRec@@MAEHPAH@Z 00410a70 f   WaveRec.obj
 0001:0000fa90       ??_ECWaveRec@@UAEPAXI@Z    00410a90 f i WaveRec.obj
 0001:0000fa90       ??_GCWaveRec@@UAEPAXI@Z    00410a90 f i WaveRec.obj
 0001:0000fac0       __tcsncpy                  00410ac0 f i WaveRec.obj
 0001:0000fae0       _SppMessageBoxWithErrorCode 00410ae0 f   smartpropoplus:SmartPropoPlus.obj
 0001:0000fb70       _SetLocationDialogWindow   00410b70 f   smartpropoplus:SmartPropoPlus.obj
 0001:0000fb90       _GetLocationDialogWindow   00410b90 f   smartpropoplus:SmartPropoPlus.obj
 0001:0000fbb0       _SetSelectedFilter         00410bb0 f   smartpropoplus:SmartPropoPlus.obj
 0001:0000fbd0       _SetActiveMode             00410bd0 f   smartpropoplus:SmartPropoPlus.obj
 0001:0000fbf0       _SetShiftAutoDetect        00410bf0 f   smartpropoplus:SmartPropoPlus.obj
 0001:0000fc10       _SetPositiveShift          00410c10 f   smartpropoplus:SmartPropoPlus.obj
 0001:0000fc30       _GetModulation             00410c30 f   smartpropoplus:SmartPropoPlus.obj
 0001:0000fc50       _GetDebugLevel             00410c50 f   smartpropoplus:SmartPropoPlus.obj
 0001:0000fc60       _ModeDisplayFromInternalName 00410c60 f   smartpropoplus:SmartPropoPlus.obj
 0001:0000fd10       _isBaseRegistryExist       00410d10 f   smartpropoplus:SmartPropoPlus.obj
 0001:0000fd60       _GetDefaultVolumeValue     00410d60 f   smartpropoplus:SmartPropoPlus.obj
 0001:0000fdf0       _SetDefaultVolumeValue     00410df0 f   smartpropoplus:SmartPropoPlus.obj
 0001:0000fe10       _GetCurrentAudioState      00410e10 f   smartpropoplus:SmartPropoPlus.obj
 0001:0000fe30       _SetCurrentAudioState      00410e30 f   smartpropoplus:SmartPropoPlus.obj
 0001:0000fe50       _GetCurrentPpjoyState      00410e50 f   smartpropoplus:SmartPropoPlus.obj
 0001:0000fe60       _SetCurrentPpjoyState      00410e60 f   smartpropoplus:SmartPropoPlus.obj
 0001:0000fe80       _GetCurrentMixerDevice     00410e80 f   smartpropoplus:SmartPropoPlus.obj
 0001:0000feb0       _GetCurrentInputLine       00410eb0 f   smartpropoplus:SmartPropoPlus.obj
 0001:0000fed0       _GetWaveInParams           00410ed0 f   smartpropoplus:SmartPropoPlus.obj
 0001:0000fef0       _SetCurrentMixerDevice     00410ef0 f   smartpropoplus:SmartPropoPlus.obj
 0001:0000ff10       _SetCurrentInputLine       00410f10 f   smartpropoplus:SmartPropoPlus.obj
 0001:0000ff30       _GetAntiJitterState        00410f30 f   smartpropoplus:SmartPropoPlus.obj
 0001:0000ff40       _SetAntiJitterState        00410f40 f   smartpropoplus:SmartPropoPlus.obj
 0001:0000ff60       _GetSppConsoleFullPath     00410f60 f   smartpropoplus:SmartPropoPlus.obj
 0001:0000ff80       _GetFmsFullPath            00410f80 f   smartpropoplus:SmartPropoPlus.obj
 0001:00010090       _GetDefaultVolumeValueFromRegistry 00411090 f   smartpropoplus:SppRegistry.obj
 0001:00010160       _SetDefaultVolumeValueToRegistry 00411160 f   smartpropoplus:SppRegistry.obj
 0001:00010230       _GetCurrentAudioStateFromRegistry 00411230 f   smartpropoplus:SppRegistry.obj
 0001:000102c0       _GetCurrentPpjoyStateFromRegistry 004112c0 f   smartpropoplus:SppRegistry.obj
 0001:00010350       _CreateEmptyBaseRegistry   00411350 f   smartpropoplus:SppRegistry.obj
 0001:000103b0       _CreateEmptyAudioRegistry  004113b0 f   smartpropoplus:SppRegistry.obj
 0001:00010400       _CreateDefaultSppRegistry  00411400 f   smartpropoplus:SppRegistry.obj
 0001:000104a0       _CreateDefaultModRegistry  004114a0 f   smartpropoplus:SppRegistry.obj
 0001:000105d0       _SetCurrentAudioStateToRegistry 004115d0 f   smartpropoplus:SppRegistry.obj
 0001:00010650       _SetCurrentPpjoyStateToRegistry 00411650 f   smartpropoplus:SppRegistry.obj
 0001:000106d0       _GetCurrentMixerDeviceFromRegistry 004116d0 f   smartpropoplus:SppRegistry.obj
 0001:000107a0       _GetCurrentInputLineFromRegistry 004117a0 f   smartpropoplus:SppRegistry.obj
 0001:00010820       _GetWaveInParamsFromRegistry 00411820 f   smartpropoplus:SppRegistry.obj
 0001:00010950       _SetCurrentMixerDeviceToRegistry 00411950 f   smartpropoplus:SppRegistry.obj
 0001:000109d0       _SetCurrentInputLineToRegistry 004119d0 f   smartpropoplus:SppRegistry.obj
 0001:00010a50       _SetActiveModeToRegistry   00411a50 f   smartpropoplus:SppRegistry.obj
 0001:00010ba0       _SetShiftAutoDetectToRegistry 00411ba0 f   smartpropoplus:SppRegistry.obj
 0001:00010c10       _SetPositiveShiftToRegistry 00411c10 f   smartpropoplus:SppRegistry.obj
 0001:00010c80       _isDebugEntryExist         00411c80 f   smartpropoplus:SppRegistry.obj
 0001:00010d10       _GetDebugLevelFromRegistry 00411d10 f   smartpropoplus:SppRegistry.obj
 0001:00010e10       _GetModulationFromRegistry 00411e10 f   smartpropoplus:SppRegistry.obj
 0001:000111a0       _isSppRegistryExist        004121a0 f   smartpropoplus:SppRegistry.obj
 0001:000111f0       _isModRegistryUpdate       004121f0 f   smartpropoplus:SppRegistry.obj
 0001:000113c0       _UpdateModRegistry         004123c0 f   smartpropoplus:SppRegistry.obj
 0001:000115d0       _isAudioRegistryExist      004125d0 f   smartpropoplus:SppRegistry.obj
 0001:00011620       _SetSelectedFilterNameToRegistry 00412620 f   smartpropoplus:SppRegistry.obj
 0001:000116a0       _GetSelectedFilterNameFromRegistry 004126a0 f   smartpropoplus:SppRegistry.obj
 0001:00011770       _GetLocationDialogWindowFromRegistry 00412770 f   smartpropoplus:SppRegistry.obj
 0001:00011810       _SetLocationDialogWindowToRegistry 00412810 f   smartpropoplus:SppRegistry.obj
 0001:00011890       _GetAntiJitterStateFromRegistry 00412890 f   smartpropoplus:SppRegistry.obj
 0001:00011920       _SetAntiJitterStateToRegistry 00412920 f   smartpropoplus:SppRegistry.obj
 0001:00011990       _GetSppConsoleFullPathFromRegistry 00412990 f   smartpropoplus:SppRegistry.obj
 0001:00011b30       _GetFmsFullPathFromRegistry 00412b30 f   smartpropoplus:SppRegistry.obj
 0001:00011bd2       _mixerGetLineControlsA@12  00412bd2 f   winmm:WINMM.dll
 0001:00011bd8       _mixerSetControlDetails@12 00412bd8 f   winmm:WINMM.dll
 0001:00011bde       _mixerGetControlDetailsA@12 00412bde f   winmm:WINMM.dll
 0001:00011be4       _mixerGetLineInfoA@12      00412be4 f   winmm:WINMM.dll
 0001:00011bea       _waveInGetNumDevs@0        00412bea f   winmm:WINMM.dll
 0001:00011bf0       _mixerGetNumDevs@0         00412bf0 f   winmm:WINMM.dll
 0001:00011bf6       _waveInClose@4             00412bf6 f   winmm:WINMM.dll
 0001:00011bfc       _mixerGetID@12             00412bfc f   winmm:WINMM.dll
 0001:00011c02       _waveInOpen@24             00412c02 f   winmm:WINMM.dll
 0001:00011c08       _mixerGetDevCapsA@12       00412c08 f   winmm:WINMM.dll
 0001:00011c0e       _mixerOpen@20              00412c0e f   winmm:WINMM.dll
 0001:00011c14       _SppAudioHdrLoggerStop@0   00412c14 f   Wave2Joystick:Wave2Joystick.dll
 0001:00011c1a       _SppAudioHdrLoggerStart@4  00412c1a f   Wave2Joystick:Wave2Joystick.dll
 0001:00011c20       _SppAudioHdrLoggerGetStat@4 00412c20 f   Wave2Joystick:Wave2Joystick.dll
 0001:00011c26       _SppPulseLoggerStop@0      00412c26 f   Wave2Joystick:Wave2Joystick.dll
 0001:00011c2c       _SppPulseLoggerStart@4     00412c2c f   Wave2Joystick:Wave2Joystick.dll
 0001:00011c32       _SppPulseLoggerGetStat@4   00412c32 f   Wave2Joystick:Wave2Joystick.dll
 0001:00011c38       _SppRawPulseLoggerStop@0   00412c38 f   Wave2Joystick:Wave2Joystick.dll
 0001:00011c3e       _SppRawPulseLoggerStart@4  00412c3e f   Wave2Joystick:Wave2Joystick.dll
 0001:00011c44       _SppRawPulseLoggerGetStat@4 00412c44 f   Wave2Joystick:Wave2Joystick.dll
 0001:00011c4a       _SppStart@0                00412c4a f   Wave2Joystick:Wave2Joystick.dll
 0001:00011c50       _SetFilterInterface@4      00412c50 f   Wave2Joystick:Wave2Joystick.dll
 0001:00011c56       _SppSetActiveAudioDevice@4 00412c56 f   Wave2Joystick:Wave2Joystick.dll
 0001:00011c5c       _GetWave2JoystickObject@0  00412c5c f   Wave2Joystick:Wave2Joystick.dll
 0001:00011c62       _SppSetModulation@4        00412c62 f   Wave2Joystick:Wave2Joystick.dll
 0001:00011c68       _SppSetShift@4             00412c68 f   Wave2Joystick:Wave2Joystick.dll
 0001:00011c6e       _StopInterfaces@0          00412c6e f   Wave2Joystick:Wave2Joystick.dll
 0001:00011c74       _StopPPJoyInterface@4      00412c74 f   Wave2Joystick:Wave2Joystick.dll
 0001:00011c7a       _StartPPJoyInterface@4     00412c7a f   Wave2Joystick:Wave2Joystick.dll
 0001:00011c80       _SppGetFilteredPos@4       00412c80 f   Wave2Joystick:Wave2Joystick.dll
 0001:00011c86       _SppGetAudioLevel@4        00412c86 f   Wave2Joystick:Wave2Joystick.dll
 0001:00011c8c       _TestPPJoyInterface@4      00412c8c f   Wave2Joystick:Wave2Joystick.dll
 0001:00011c92       _SppSetAntiJitter@4        00412c92 f   Wave2Joystick:Wave2Joystick.dll
 0001:00011c98       _SppWaveLoggerGetStat@4    00412c98 f   Wave2Joystick:Wave2Joystick.dll
 0001:00011c9e       _SppWaveLoggerStop@0       00412c9e f   Wave2Joystick:Wave2Joystick.dll
 0001:00011ca4       _SppWaveLoggerPlay@4       00412ca4 f   Wave2Joystick:Wave2Joystick.dll
 0001:00011caa       _SppWaveLoggerStart@4      00412caa f   Wave2Joystick:Wave2Joystick.dll
 0001:00011cb0       ??0CFilterIf@@QAE@XZ       00412cb0 f   FilterIf:FilterIf.obj
 0001:00011cf0       ??1CFilterIf@@QAE@XZ       00412cf0 f   FilterIf:FilterIf.obj
 0001:00011d10       ?Init@CFilterIf@@QAE_NXZ   00412d10 f   FilterIf:FilterIf.obj
 0001:00011e00       ?GetNumberOfFilters@CFilterIf@@QAEHXZ 00412e00 f   FilterIf:FilterIf.obj
 0001:00011e20       ?GetIndexOfSelected@CFilterIf@@QAEHXZ 00412e20 f   FilterIf:FilterIf.obj
 0001:00011ef0       ?GetFilterName@CFilterIf@@QAEPADH@Z 00412ef0 f   FilterIf:FilterIf.obj
 0001:00011f60       ?SetSelected@CFilterIf@@QAEHH@Z 00412f60 f   FilterIf:FilterIf.obj
 0001:00011fe0       ?Run@CFilterIf@@IAEPAXPAXHH@Z 00412fe0 f   FilterIf:FilterIf.obj
 0001:00012050       ?Filter@CFilterIf@@QAEPAHPAH0HH@Z 00413050 f   FilterIf:FilterIf.obj
 0001:000120f0       __tcscmp                   004130f0 f i FilterIf:FilterIf.obj
 0001:00012118       ?GetThisMessageMap@CDialog@@KGPBUAFX_MSGMAP@@XZ 00413118 f   mfc71d:MFC71D.DLL
 0001:0001211e       ?PreInitDialog@CDialog@@MAEXXZ 0041311e f   mfc71d:MFC71D.DLL
 0001:00012124       ?OnCancel@CDialog@@MAEXXZ  00413124 f   mfc71d:MFC71D.DLL
 0001:0001212a       ?OnOK@CDialog@@MAEXXZ      0041312a f   mfc71d:MFC71D.DLL
 0001:00012130       ?OnSetFont@CDialog@@UAEXPAVCFont@@@Z 00413130 f   mfc71d:MFC71D.DLL
 0001:00012136       ?DoModal@CDialog@@UAEHXZ   00413136 f   mfc71d:MFC71D.DLL
 0001:0001213c       ?CreateIndirect@CDialog@@UAEHPBUDLGTEMPLATE@@PAVCWnd@@PAX@Z 0041313c f   mfc71d:MFC71D.DLL
 0001:00012142       ?CreateIndirect@CDialog@@UAEHPAXPAVCWnd@@@Z 00413142 f   mfc71d:MFC71D.DLL
 0001:00012148       ?Create@CDialog@@UAEHPBDPAVCWnd@@@Z 00413148 f   mfc71d:MFC71D.DLL
 0001:0001214e       ?Create@CDialog@@UAEHIPAVCWnd@@@Z 0041314e f   mfc71d:MFC71D.DLL
 0001:00012154       ?SetOccDialogInfo@CDialog@@MAEHPAU_AFX_OCC_DIALOG_INFO@@@Z 00413154 f   mfc71d:MFC71D.DLL
 0001:0001215a       ?CreateControlSite@CWnd@@MAEHPAVCOleControlContainer@@PAPAVCOleControlSite@@IABU_GUID@@@Z 0041315a f   mfc71d:MFC71D.DLL
 0001:00012160       ?CreateControlContainer@CWnd@@MAEHPAPAVCOleControlContainer@@@Z 00413160 f   mfc71d:MFC71D.DLL
 0001:00012166       ?IsFrameWnd@CWnd@@UBEHXZ   00413166 f   mfc71d:MFC71D.DLL
 0001:0001216c       ?CheckAutoCenter@CDialog@@UAEHXZ 0041316c f   mfc71d:MFC71D.DLL
 0001:00012172       ?OnChildNotify@CWnd@@MAEHIIJPAJ@Z 00413172 f   mfc71d:MFC71D.DLL
 0001:00012178       ?PostNcDestroy@CWnd@@MAEXXZ 00413178 f   mfc71d:MFC71D.DLL
 0001:0001217e       ?DefWindowProcA@CWnd@@MAEJIIJ@Z 0041317e f   mfc71d:MFC71D.DLL
 0001:00012184       ?OnWndMsg@CWnd@@MAEHIIJPAJ@Z 00413184 f   mfc71d:MFC71D.DLL
 0001:0001218a       ?WindowProc@CWnd@@MAEJIIJ@Z 0041318a f   mfc71d:MFC71D.DLL
 0001:00012190       ?OnAmbientProperty@CWnd@@UAEHPAVCOleControlSite@@JPAUtagVARIANT@@@Z 00413190 f   mfc71d:MFC71D.DLL
 0001:00012196       ?PreTranslateMessage@CDialog@@UAEHPAUtagMSG@@@Z 00413196 f   mfc71d:MFC71D.DLL
 0001:0001219c       ?EndModalState@CWnd@@UAEXXZ 0041319c f   mfc71d:MFC71D.DLL
 0001:000121a2       ?BeginModalState@CWnd@@UAEXXZ 004131a2 f   mfc71d:MFC71D.DLL
 0001:000121a8       ?GetSuperWndProcAddr@CWnd@@MAEPAP6GJPAUHWND__@@IIJ@ZXZ 004131a8 f   mfc71d:MFC71D.DLL
 0001:000121ae       ?OnNotify@CWnd@@MAEHIJPAJ@Z 004131ae f   mfc71d:MFC71D.DLL
 0001:000121b4       ?OnCommand@CWnd@@MAEHIJ@Z  004131b4 f   mfc71d:MFC71D.DLL
 0001:000121ba       ?CreateAccessibleProxy@CWnd@@UAEJIJPAJ@Z 004131ba f   mfc71d:MFC71D.DLL
 0001:000121c0       ?SetProxy@CWnd@@UAEJPAUIAccessibleProxy@@@Z 004131c0 f   mfc71d:MFC71D.DLL
 0001:000121d0       ?accDoDefaultAction@CWnd@@UAEJUtagVARIANT@@@Z 004131d0 f   mfc71d:MFC71D.DLL
 0001:000121d6       ?accHitTest@CWnd@@UAEJJJPAUtagVARIANT@@@Z 004131d6 f   mfc71d:MFC71D.DLL
 0001:000121dc       ?accNavigate@CWnd@@UAEJJUtagVARIANT@@PAU2@@Z 004131dc f   mfc71d:MFC71D.DLL
 0001:000121e2       ?accLocation@CWnd@@UAEJPAJ000UtagVARIANT@@@Z 004131e2 f   mfc71d:MFC71D.DLL
 0001:000121e8       ?accSelect@CWnd@@UAEJJUtagVARIANT@@@Z 004131e8 f   mfc71d:MFC71D.DLL
 0001:000121f0       ?get_accSelection@CWnd@@UAEJPAUtagVARIANT@@@Z 004131f0 f   mfc71d:MFC71D.DLL
 0001:000121f6       ?get_accFocus@CWnd@@UAEJPAUtagVARIANT@@@Z 004131f6 f   mfc71d:MFC71D.DLL
 0001:00012200       ?get_accState@CWnd@@UAEJUtagVARIANT@@PAU2@@Z 00413200 f   mfc71d:MFC71D.DLL
 0001:00012206       ?get_accRole@CWnd@@UAEJUtagVARIANT@@PAU2@@Z 00413206 f   mfc71d:MFC71D.DLL
 0001:00012210       ?get_accChild@CWnd@@UAEJUtagVARIANT@@PAPAUIDispatch@@@Z 00413210 f   mfc71d:MFC71D.DLL
 0001:00012216       ?get_accChildCount@CWnd@@UAEJPAJ@Z 00413216 f   mfc71d:MFC71D.DLL
 0001:0001221c       ?get_accParent@CWnd@@UAEJPAPAUIDispatch@@@Z 0041321c f   mfc71d:MFC71D.DLL
 0001:00012222       ?EnsureStdObj@CWnd@@UAEJXZ 00413222 f   mfc71d:MFC71D.DLL
 0001:00012228       ?EndModalLoop@CWnd@@UAEXH@Z 00413228 f   mfc71d:MFC71D.DLL
 0001:0001222e       ?ContinueModal@CWnd@@UAEHXZ 0041322e f   mfc71d:MFC71D.DLL
 0001:00012234       ?WinHelpInternal@CWnd@@UAEXKI@Z 00413234 f   mfc71d:MFC71D.DLL
 0001:0001223a       ?HtmlHelpA@CWnd@@UAEXKI@Z  0041323a f   mfc71d:MFC71D.DLL
 0001:00012240       ?WinHelpA@CWnd@@UAEXKI@Z   00413240 f   mfc71d:MFC71D.DLL
 0001:00012246       ?GetScrollBarCtrl@CWnd@@UBEPAVCScrollBar@@H@Z 00413246 f   mfc71d:MFC71D.DLL
 0001:0001224c       ?OnToolHitTest@CWnd@@UBEHVCPoint@@PAUtagTOOLINFOA@@@Z 0041324c f   mfc71d:MFC71D.DLL
 0001:00012252       ?CalcWindowRect@CWnd@@UAEXPAUtagRECT@@I@Z 00413252 f   mfc71d:MFC71D.DLL
 0001:00012258       ?PreCreateWindow@CWnd@@UAEHAAUtagCREATESTRUCTA@@@Z 00413258 f   mfc71d:MFC71D.DLL
 0001:0001225e       ?DestroyWindow@CWnd@@UAEHXZ 0041325e f   mfc71d:MFC71D.DLL
 0001:00012264       ?CreateEx@CWnd@@UAEHKPBD0KHHHHPAUHWND__@@PAUHMENU__@@PAX@Z 00413264 f   mfc71d:MFC71D.DLL
 0001:0001226a       ?CreateEx@CWnd@@UAEHKPBD0KABUtagRECT@@PAV1@IPAX@Z 0041326a f   mfc71d:MFC71D.DLL
 0001:00012270       ?Create@CWnd@@UAEHPBD0KABUtagRECT@@PAV1@IPAUCCreateContext@@@Z 00413270 f   mfc71d:MFC71D.DLL
 0001:00012276       ?PreSubclassWindow@CWnd@@UAEXXZ 00413276 f   mfc71d:MFC71D.DLL
 0001:0001227c       ?GetConnectionHook@CCmdTarget@@MAEPAUIConnectionPoint@@ABU_GUID@@@Z 0041327c f   mfc71d:MFC71D.DLL
 0001:00012282       ?GetExtraConnectionPoints@CCmdTarget@@MAEHPAVCPtrArray@@@Z 00413282 f   mfc71d:MFC71D.DLL
 0001:00012288       ?GetInterfaceHook@CCmdTarget@@UAEPAUIUnknown@@PBX@Z 00413288 f   mfc71d:MFC71D.DLL
 0001:0001228e       ?OnCreateAggregates@CCmdTarget@@UAEHXZ 0041328e f   mfc71d:MFC71D.DLL
 0001:00012294       ?GetEventSinkMap@CCmdTarget@@MBEPBUAFX_EVENTSINKMAP@@XZ 00413294 f   mfc71d:MFC71D.DLL
 0001:0001229a       ?GetInterfaceMap@CWnd@@MBEPBUAFX_INTERFACEMAP@@XZ 0041329a f   mfc71d:MFC71D.DLL
 0001:000122a0       ?GetConnectionMap@CCmdTarget@@MBEPBUAFX_CONNECTIONMAP@@XZ 004132a0 f   mfc71d:MFC71D.DLL
 0001:000122a6       ?GetDispatchMap@CCmdTarget@@MBEPBUAFX_DISPMAP@@XZ 004132a6 f   mfc71d:MFC71D.DLL
 0001:000122ac       ?GetCommandMap@CCmdTarget@@MBEPBUAFX_OLECMDMAP@@XZ 004132ac f   mfc71d:MFC71D.DLL
 0001:000122b2       ?GetTypeLib@CCmdTarget@@UAEJKPAPAUITypeLib@@@Z 004132b2 f   mfc71d:MFC71D.DLL
 0001:000122b8       ?GetTypeLibCache@CCmdTarget@@UAEPAVCTypeLibCache@@XZ 004132b8 f   mfc71d:MFC71D.DLL
 0001:000122be       ?GetTypeInfoCount@CCmdTarget@@UAEIXZ 004132be f   mfc71d:MFC71D.DLL
 0001:000122c4       ?GetDispatchIID@CCmdTarget@@UAEHPAU_GUID@@@Z 004132c4 f   mfc71d:MFC71D.DLL
 0001:000122ca       ?IsInvokeAllowed@CCmdTarget@@UAEHJ@Z 004132ca f   mfc71d:MFC71D.DLL
 0001:000122d0       ?OnFinalRelease@CWnd@@UAEXXZ 004132d0 f   mfc71d:MFC71D.DLL
 0001:000122d6       ?OnCmdMsg@CDialog@@UAEHIHPAXPAUAFX_CMDHANDLERINFO@@@Z 004132d6 f   mfc71d:MFC71D.DLL
 0001:000122dc       ?Dump@CDialog@@UBEXAAVCDumpContext@@@Z 004132dc f   mfc71d:MFC71D.DLL
 0001:000122e2       ?AssertValid@CDialog@@UBEXXZ 004132e2 f   mfc71d:MFC71D.DLL
 0001:000122e8       ?Serialize@CObject@@UAEXAAVCArchive@@@Z 004132e8 f   mfc71d:MFC71D.DLL
 0001:000122ee       ?GetRuntimeClass@CDialog@@UBEPAUCRuntimeClass@@XZ 004132ee f   mfc71d:MFC71D.DLL
 0001:000122f4       ??1CDialog@@UAE@XZ         004132f4 f   mfc71d:MFC71D.DLL
 0001:000122fa       ??0CDialog@@QAE@IPAVCWnd@@@Z 004132fa f   mfc71d:MFC71D.DLL
 0001:00012300       ??3CObject@@SGXPAX@Z       00413300 f   mfc71d:MFC71D.DLL
 0001:00012306       ??1CStatic@@UAE@XZ         00413306 f   mfc71d:MFC71D.DLL
 0001:0001230c       ??1?$CStringT@DV?$StrTraitMFC_DLL@DV?$ChTraitsCRT@D@ATL@@@@@ATL@@QAE@XZ 0041330c f   mfc71d:MFC71D.DLL
 0001:00012312       ??1CFont@@UAE@XZ           00413312 f   mfc71d:MFC71D.DLL
 0001:00012318       ?DoDataExchange@CWnd@@MAEXPAVCDataExchange@@@Z 00413318 f   mfc71d:MFC71D.DLL
 0001:0001231e       ?OnInitDialog@CDialog@@UAEHXZ 0041331e f   mfc71d:MFC71D.DLL
 0001:00012324       ??B?$CSimpleStringT@D$00@ATL@@QBEPBDXZ 00413324 f   mfc71d:MFC71D.DLL
 0001:0001232a       ?Format@?$CStringT@DV?$StrTraitMFC_DLL@DV?$ChTraitsCRT@D@ATL@@@@@ATL@@QAAXPBDZZ 0041332a f   mfc71d:MFC71D.DLL
 0001:00012330       ?GetDlgItem@CWnd@@QBEPAV1@H@Z 00413330 f   mfc71d:MFC71D.DLL
 0001:00012336       ??0?$CStringT@DV?$StrTraitMFC_DLL@DV?$ChTraitsCRT@D@ATL@@@@@ATL@@QAE@XZ 00413336 f   mfc71d:MFC71D.DLL
 0001:0001233c       ??0?$CStringT@DV?$StrTraitMFC_DLL@DV?$ChTraitsCRT@D@ATL@@@@@ATL@@QAE@PBD@Z 0041333c f   mfc71d:MFC71D.DLL
 0001:00012342       ?SetWindowTextA@CWnd@@QAEXPBD@Z 00413342 f   mfc71d:MFC71D.DLL
 0001:00012348       ?SubclassDlgItem@CWnd@@QAEHIPAV1@@Z 00413348 f   mfc71d:MFC71D.DLL
 0001:0001234e       ??3@YAXPAXPBDH@Z           0041334e f   mfc71d:MFC71D.DLL
 0001:00012354       ??2@YAPAXIPBDH@Z           00413354 f   mfc71d:MFC71D.DLL
 0001:0001235a       ??3@YAXPAX@Z               0041335a f   mfc71d:MFC71D.DLL
 0001:00012360       ??3CObject@@SGXPAXPBDH@Z   00413360 f   mfc71d:MFC71D.DLL
 0001:00012366       ??2CObject@@SGPAXIPBDH@Z   00413366 f   mfc71d:MFC71D.DLL
 0001:0001236c       ?GetRuntimeClass@CObject@@UBEPAUCRuntimeClass@@XZ 0041336c f   mfc71d:MFC71D.DLL
 0001:00012372       ??0CObject@@IAE@XZ         00413372 f   mfc71d:MFC71D.DLL
 0001:00012378       ?AfxThrowInvalidArgException@@YGXXZ 00413378 f   mfc71d:MFC71D.DLL
 0001:0001237e       ?AfxAssertFailedLine@@YGHPBDH@Z 0041337e f   mfc71d:MFC71D.DLL
 0001:00012384       ?AfxAssertValidObject@@YGXPBVCObject@@PBDH@Z 00413384 f   mfc71d:MFC71D.DLL
 0001:0001238a       ??1CObject@@UAE@XZ         0041338a f   mfc71d:MFC71D.DLL
 0001:00012390       ??_V@YAXPAX@Z              00413390 f   mfc71d:MFC71D.DLL
 0001:00012396       ?ReadCount@CArchive@@QAEKXZ 00413396 f   mfc71d:MFC71D.DLL
 0001:0001239c       ?WriteCount@CArchive@@QAEXK@Z 0041339c f   mfc71d:MFC71D.DLL
 0001:000123a2       ?IsStoring@CArchive@@QBEHXZ 004133a2 f   mfc71d:MFC71D.DLL
 0001:000123a8       ?GetDepth@CDumpContext@@QBEHXZ 004133a8 f   mfc71d:MFC71D.DLL
 0001:000123ae       ??6CDumpContext@@QAEAAV0@H@Z 004133ae f   mfc71d:MFC71D.DLL
 0001:000123b4       ??6CDumpContext@@QAEAAV0@PBD@Z 004133b4 f   mfc71d:MFC71D.DLL
 0001:000123ba       ?Dump@CObject@@UBEXAAVCDumpContext@@@Z 004133ba f   mfc71d:MFC71D.DLL
 0001:000123c0       ?AfxIsValidAddress@@YGHPBXIH@Z 004133c0 f   mfc71d:MFC71D.DLL
 0001:000123c6       ?AssertValid@CObject@@UBEXXZ 004133c6 f   mfc71d:MFC71D.DLL
 0001:000123cc       ??_U@YAPAXI@Z              004133cc f   mfc71d:MFC71D.DLL
 0001:000123d2       ??_U@YAPAXIPBDH@Z          004133d2 f   mfc71d:MFC71D.DLL
 0001:000123d8       ?Read@CArchive@@QAEIPAXI@Z 004133d8 f   mfc71d:MFC71D.DLL
 0001:000123de       ?Write@CArchive@@QAEXPBXI@Z 004133de f   mfc71d:MFC71D.DLL
 0001:000123e4       ??1CEdit@@UAE@XZ           004133e4 f   mfc71d:MFC71D.DLL
 0001:000123ea       ??1CSliderCtrl@@UAE@XZ     004133ea f   mfc71d:MFC71D.DLL
 0001:000123f0       ??0CEdit@@QAE@XZ           004133f0 f   mfc71d:MFC71D.DLL
 0001:000123f6       ??0CSliderCtrl@@QAE@XZ     004133f6 f   mfc71d:MFC71D.DLL
 0001:000123fc       ?DDX_Control@@YGXPAVCDataExchange@@HAAVCWnd@@@Z 004133fc f   mfc71d:MFC71D.DLL
 0001:00012402       ?OnHScroll@CWnd@@IAEXIIPAVCScrollBar@@@Z 00413402 f   mfc71d:MFC71D.DLL
 0001:00012408       ?GetDlgCtrlID@CWnd@@QBEHXZ 00413408 f   mfc71d:MFC71D.DLL
 0001:0001240e       ?SetTicFreq@CSliderCtrl@@QAEXH@Z 0041340e f   mfc71d:MFC71D.DLL
 0001:00012414       ?SetPos@CSliderCtrl@@QAEXH@Z 00413414 f   mfc71d:MFC71D.DLL
 0001:0001241a       ?SetLimitText@CEdit@@QAEXI@Z 0041341a f   mfc71d:MFC71D.DLL
 0001:00012420       ?SetSel@CEdit@@QAEXHHH@Z   00413420 f   mfc71d:MFC71D.DLL
 0001:00012426       ?GetLength@?$CSimpleStringT@D$00@ATL@@QBEHXZ 00413426 f   mfc71d:MFC71D.DLL
 0001:0001242c       ?GetWindowTextA@CWnd@@QBEXAAV?$CStringT@DV?$StrTraitMFC_DLL@DV?$ChTraitsCRT@D@ATL@@@@@ATL@@@Z 0041342c f   mfc71d:MFC71D.DLL
 0001:00012432       ?GetThisMessageMap@CWnd@@KGPBUAFX_MSGMAP@@XZ 00413432 f   mfc71d:MFC71D.DLL
 0001:00012438       ?DrawItem@CStatic@@UAEXPAUtagDRAWITEMSTRUCT@@@Z 00413438 f   mfc71d:MFC71D.DLL
 0001:0001243e       ?Create@CStatic@@UAEHPBDKABUtagRECT@@PAVCWnd@@I@Z 0041343e f   mfc71d:MFC71D.DLL
 0001:00012444       ?SetOccDialogInfo@CWnd@@MAEHPAU_AFX_OCC_DIALOG_INFO@@@Z 00413444 f   mfc71d:MFC71D.DLL
 0001:0001244a       ?CheckAutoCenter@CWnd@@UAEHXZ 0041344a f   mfc71d:MFC71D.DLL
 0001:00012450       ?OnChildNotify@CStatic@@MAEHIIJPAJ@Z 00413450 f   mfc71d:MFC71D.DLL
 0001:00012456       ?PreTranslateMessage@CWnd@@UAEHPAUtagMSG@@@Z 00413456 f   mfc71d:MFC71D.DLL
 0001:0001245c       ?OnCmdMsg@CCmdTarget@@UAEHIHPAXPAUAFX_CMDHANDLERINFO@@@Z 0041345c f   mfc71d:MFC71D.DLL
 0001:00012462       ?Dump@CWnd@@UBEXAAVCDumpContext@@@Z 00413462 f   mfc71d:MFC71D.DLL
 0001:00012468       ?AssertValid@CWnd@@UBEXXZ  00413468 f   mfc71d:MFC71D.DLL
 0001:0001246e       ?GetRuntimeClass@CStatic@@UBEPAUCRuntimeClass@@XZ 0041346e f   mfc71d:MFC71D.DLL
 0001:00012474       ??1CBrush@@UAE@XZ          00413474 f   mfc71d:MFC71D.DLL
 0001:0001247a       ??1CPen@@UAE@XZ            0041347a f   mfc71d:MFC71D.DLL
 0001:00012480       ??0CBrush@@QAE@XZ          00413480 f   mfc71d:MFC71D.DLL
 0001:00012486       ??0CPen@@QAE@XZ            00413486 f   mfc71d:MFC71D.DLL
 0001:0001248c       ??0CStatic@@QAE@XZ         0041348c f   mfc71d:MFC71D.DLL
 0001:00012492       ??0CClientDC@@QAE@PAVCWnd@@@Z 00413492 f   mfc71d:MFC71D.DLL
 0001:00012498       ??1CPaintDC@@UAE@XZ        00413498 f   mfc71d:MFC71D.DLL
 0001:0001249e       ??0CPaintDC@@QAE@PAVCWnd@@@Z 0041349e f   mfc71d:MFC71D.DLL
 0001:000124a4       ?OnTimer@CWnd@@IAEXI@Z     004134a4 f   mfc71d:MFC71D.DLL
 0001:000124aa       ?GetClientRect@CWnd@@QBEXPAUtagRECT@@@Z 004134aa f   mfc71d:MFC71D.DLL
 0001:000124b0       ?KillTimer@CWnd@@QAEHI@Z   004134b0 f   mfc71d:MFC71D.DLL
 0001:000124b6       ?SetTimer@CWnd@@QAEIIIP6GXPAUHWND__@@IIK@Z@Z 004134b6 f   mfc71d:MFC71D.DLL
 0001:000124bc       ?SelectObject@CDC@@QAEPAVCBrush@@PAV2@@Z 004134bc f   mfc71d:MFC71D.DLL
 0001:000124c2       ?SelectObject@CDC@@QAEPAVCPen@@PAV2@@Z 004134c2 f   mfc71d:MFC71D.DLL
 0001:000124c8       ?CreateSolidBrush@CBrush@@QAEHK@Z 004134c8 f   mfc71d:MFC71D.DLL
 0001:000124ce       ?CreatePen@CPen@@QAEHHHK@Z 004134ce f   mfc71d:MFC71D.DLL
 0001:000124d4       ?DeleteObject@CGdiObject@@QAEHXZ 004134d4 f   mfc71d:MFC71D.DLL
 0001:000124da       ?Ellipse@CDC@@QAEHHHHH@Z   004134da f   mfc71d:MFC71D.DLL
 0001:000124e0       ?Arc@CDC@@QAEHPBUtagRECT@@UtagPOINT@@1@Z 004134e0 f   mfc71d:MFC71D.DLL
 0001:000124e6       ?MoveTo@CDC@@QAE?AVCPoint@@UtagPOINT@@@Z 004134e6 f   mfc71d:MFC71D.DLL
 0001:000124ec       ?Ellipse@CDC@@QAEHPBUtagRECT@@@Z 004134ec f   mfc71d:MFC71D.DLL
 0001:000124f2       ?LineTo@CDC@@QAEHHH@Z      004134f2 f   mfc71d:MFC71D.DLL
 0001:000124f8       ?MoveTo@CDC@@QAE?AVCPoint@@HH@Z 004134f8 f   mfc71d:MFC71D.DLL
 0001:000124fe       ?FillRect@CDC@@QAEXPBUtagRECT@@PAVCBrush@@@Z 004134fe f   mfc71d:MFC71D.DLL
 0001:00012504       ?EnableWindow@CWnd@@QAEHH@Z 00413504 f   mfc71d:MFC71D.DLL
 0001:0001250a       ?PostMessageA@CWnd@@QAEHIIJ@Z 0041350a f   mfc71d:MFC71D.DLL
 0001:00012510       ?GetParent@CWnd@@QBEPAV1@XZ 00413510 f   mfc71d:MFC71D.DLL
 0001:00012516       ?GetThisClass@CDialog@@SGPAUCRuntimeClass@@XZ 00413516 f   mfc71d:MFC71D.DLL
 0001:0001251c       ?GetCheck@CButton@@QBEHXZ  0041351c f   mfc71d:MFC71D.DLL
 0001:00012522       ?GetCurSel@CListBox@@QBEHXZ 00413522 f   mfc71d:MFC71D.DLL
 0001:00012528       ?GetCurSel@CComboBox@@QBEHXZ 00413528 f   mfc71d:MFC71D.DLL
 0001:0001252e       ?SetCheck@CButton@@QAEXH@Z 0041352e f   mfc71d:MFC71D.DLL
 0001:00012534       ?SetCurSel@CListBox@@QAEHH@Z 00413534 f   mfc71d:MFC71D.DLL
 0001:0001253a       ?SetCurSel@CComboBox@@QAEHH@Z 0041353a f   mfc71d:MFC71D.DLL
 0001:00012540       ?GetCount@CListBox@@QBEHXZ 00413540 f   mfc71d:MFC71D.DLL
 0001:00012546       ?GetCount@CComboBox@@QBEHXZ 00413546 f   mfc71d:MFC71D.DLL
 0001:0001254c       ?AfxGetApp@@YGPAVCWinApp@@XZ 0041354c f   mfc71d:MFC71D.DLL
 0001:00012552       ?RedrawWindow@CWnd@@QAEHPBUtagRECT@@PAVCRgn@@I@Z 00413552 f   mfc71d:MFC71D.DLL
 0001:00012558       ?LineScroll@CEdit@@QAEXHH@Z 00413558 f   mfc71d:MFC71D.DLL
 0001:0001255e       ?GetLineCount@CEdit@@QBEHXZ 0041355e f   mfc71d:MFC71D.DLL
 0001:00012564       ?GetText@CListBox@@QBEXHAAV?$CStringT@DV?$StrTraitMFC_DLL@DV?$ChTraitsCRT@D@ATL@@@@@ATL@@@Z 00413564 f   mfc71d:MFC71D.DLL
 0001:0001256a       ??4?$CStringT@DV?$StrTraitMFC_DLL@DV?$ChTraitsCRT@D@ATL@@@@@ATL@@QAEAAV01@PBD@Z 0041356a f   mfc71d:MFC71D.DLL
 0001:00012570       ?MoveWindow@CWnd@@QAEXPBUtagRECT@@H@Z 00413570 f   mfc71d:MFC71D.DLL
 0001:00012576       ?GetWindowRect@CWnd@@QBEXPAUtagRECT@@@Z 00413576 f   mfc71d:MFC71D.DLL
 0001:0001257c       ?OnShowWindow@CWnd@@IAEXHI@Z 0041357c f   mfc71d:MFC71D.DLL
 0001:00012582       ??0?$CStringT@DV?$StrTraitMFC_DLL@DV?$ChTraitsCRT@D@ATL@@@@@ATL@@QAE@ABV01@@Z 00413582 f   mfc71d:MFC71D.DLL
 0001:00012588       ?Concatenate@?$CSimpleStringT@D$00@ATL@@KAXAAV12@PBDH1H@Z 00413588 f   mfc71d:MFC71D.DLL
 0001:0001258e       ??0?$CStringT@DV?$StrTraitMFC_DLL@DV?$ChTraitsCRT@D@ATL@@@@@ATL@@QAE@PAUIAtlStringMgr@1@@Z 0041358e f   mfc71d:MFC71D.DLL
 0001:00012594       ?GetManager@?$CSimpleStringT@D$00@ATL@@QBEPAUIAtlStringMgr@2@XZ 00413594 f   mfc71d:MFC71D.DLL
 0001:0001259a       ?OnHelp@CWinApp@@IAEXXZ    0041359a f   mfc71d:MFC71D.DLL
 0001:000125a0       ?GetThisMessageMap@CWinApp@@KGPBUAFX_MSGMAP@@XZ 004135a0 f   mfc71d:MFC71D.DLL
 0001:000125a6       ?LoadSysPolicies@CWinApp@@UAEHXZ 004135a6 f   mfc71d:MFC71D.DLL
 0001:000125ac       ?LoadAppLangResourceDLL@CWinApp@@UAEPAUHINSTANCE__@@XZ 004135ac f   mfc71d:MFC71D.DLL
 0001:000125b2       ?WinHelpInternal@CWinApp@@UAEXKI@Z 004135b2 f   mfc71d:MFC71D.DLL
 0001:000125b8       ?HtmlHelpA@CWinApp@@UAEXKI@Z 004135b8 f   mfc71d:MFC71D.DLL
 0001:000125be       ?WinHelpA@CWinApp@@UAEXKI@Z 004135be f   mfc71d:MFC71D.DLL
 0001:000125c4       ?OnDDECommand@CWinApp@@UAEHPAD@Z 004135c4 f   mfc71d:MFC71D.DLL
 0001:000125ca       ?DoWaitCursor@CWinApp@@UAEXH@Z 004135ca f   mfc71d:MFC71D.DLL
 0001:000125d0       ?DoMessageBox@CWinApp@@UAEHPBDII@Z 004135d0 f   mfc71d:MFC71D.DLL
 0001:000125d6       ?SaveAllModified@CWinApp@@UAEHXZ 004135d6 f   mfc71d:MFC71D.DLL
 0001:000125dc       ?InitApplication@CWinApp@@UAEHXZ 004135dc f   mfc71d:MFC71D.DLL
 0001:000125e2       ?AddToRecentFileList@CWinApp@@UAEXPBD@Z 004135e2 f   mfc71d:MFC71D.DLL
 0001:000125e8       ?OpenDocumentFile@CWinApp@@UAEPAVCDocument@@PBD@Z 004135e8 f   mfc71d:MFC71D.DLL
 0001:000125ee       ?Unregister@CWinApp@@UAEHXZ 004135ee f   mfc71d:MFC71D.DLL
 0001:000125f4       ?Register@CWinApp@@UAEHXZ  004135f4 f   mfc71d:MFC71D.DLL
 0001:000125fa       ?InitLibId@CWinApp@@UAEXXZ 004135fa f   mfc71d:MFC71D.DLL
 0001:00012600       ?Delete@CWinThread@@UAEXXZ 00413600 f   mfc71d:MFC71D.DLL
 0001:00012606       ?GetMainWnd@CWinThread@@UAEPAVCWnd@@XZ 00413606 f   mfc71d:MFC71D.DLL
 0001:0001260c       ?ProcessMessageFilter@CWinThread@@UAEHHPAUtagMSG@@@Z 0041360c f   mfc71d:MFC71D.DLL
 0001:00012612       ?ProcessWndProcException@CWinApp@@UAEJPAVCException@@PBUtagMSG@@@Z 00413612 f   mfc71d:MFC71D.DLL
 0001:00012618       ?ExitInstance@CWinApp@@UAEHXZ 00413618 f   mfc71d:MFC71D.DLL
 0001:0001261e       ?IsIdleMessage@CWinThread@@UAEHPAUtagMSG@@@Z 0041361e f   mfc71d:MFC71D.DLL
 0001:00012624       ?OnIdle@CWinApp@@UAEHJ@Z   00413624 f   mfc71d:MFC71D.DLL
 0001:0001262a       ?PumpMessage@CWinThread@@UAEHXZ 0041362a f   mfc71d:MFC71D.DLL
 0001:00012630       ?PreTranslateMessage@CWinThread@@UAEHPAUtagMSG@@@Z 00413630 f   mfc71d:MFC71D.DLL
 0001:00012636       ?Run@CWinApp@@UAEHXZ       00413636 f   mfc71d:MFC71D.DLL
 0001:0001263c       ?GetInterfaceMap@CCmdTarget@@MBEPBUAFX_INTERFACEMAP@@XZ 0041363c f   mfc71d:MFC71D.DLL
 0001:00012642       ?OnFinalRelease@CCmdTarget@@UAEXXZ 00413642 f   mfc71d:MFC71D.DLL
 0001:00012648       ?Dump@CWinApp@@UBEXAAVCDumpContext@@@Z 00413648 f   mfc71d:MFC71D.DLL
 0001:0001264e       ?AssertValid@CWinApp@@UBEXXZ 0041364e f   mfc71d:MFC71D.DLL
 0001:00012654       ?GetRuntimeClass@CWinApp@@UBEPAUCRuntimeClass@@XZ 00413654 f   mfc71d:MFC71D.DLL
 0001:0001265a       ??0CWinApp@@QAE@PBD@Z      0041365a f   mfc71d:MFC71D.DLL
 0001:00012660       ??1CWinApp@@UAE@XZ         00413660 f   mfc71d:MFC71D.DLL
 0001:00012666       ??1CProgressCtrl@@UAE@XZ   00413666 f   mfc71d:MFC71D.DLL
 0001:0001266c       ?LoadIconA@CWinApp@@QBEPAUHICON__@@I@Z 0041366c f   mfc71d:MFC71D.DLL
 0001:00012672       ??0CProgressCtrl@@QAE@XZ   00413672 f   mfc71d:MFC71D.DLL
 0001:00012678       ?DDX_Check@@YGXPAVCDataExchange@@HAAH@Z 00413678 f   mfc71d:MFC71D.DLL
 0001:0001267e       ?SendMessageA@CWnd@@QAEJIIJ@Z 0041367e f   mfc71d:MFC71D.DLL
 0001:00012684       ?SetBkColor@CProgressCtrl@@QAEKK@Z 00413684 f   mfc71d:MFC71D.DLL
 0001:0001268a       ?SetRange@CProgressCtrl@@QAEXFF@Z 0041368a f   mfc71d:MFC71D.DLL
 0001:00012690       ?LoadMenuA@CMenu@@QAEHI@Z  00413690 f   mfc71d:MFC71D.DLL
 0001:00012696       ??0CMenu@@QAE@XZ           00413696 f   mfc71d:MFC71D.DLL
 0001:0001269c       ?ModifyStyleEx@CWnd@@QAEHKKI@Z 0041369c f   mfc71d:MFC71D.DLL
 0001:000126a2       ?EnableToolTips@CWnd@@QAEHH@Z 004136a2 f   mfc71d:MFC71D.DLL
 0001:000126a8       ?SetIcon@CWnd@@QAEPAUHICON__@@PAU2@H@Z 004136a8 f   mfc71d:MFC71D.DLL
 0001:000126ae       ?OnDestroy@CWnd@@IAEXXZ    004136ae f   mfc71d:MFC71D.DLL
 0001:000126b4       ?OnPaint@CDialog@@IAEXXZ   004136b4 f   mfc71d:MFC71D.DLL
 0001:000126ba       ?DrawIcon@CDC@@QAEHHHPAUHICON__@@@Z 004136ba f   mfc71d:MFC71D.DLL
 0001:000126c0       ?GetSafeHdc@CDC@@QBEPAUHDC__@@XZ 004136c0 f   mfc71d:MFC71D.DLL
 0001:000126c6       ?IsIconic@CWnd@@QBEHXZ     004136c6 f   mfc71d:MFC71D.DLL
 0001:000126cc       ?Compare@?$CStringT@DV?$StrTraitMFC_DLL@DV?$ChTraitsCRT@D@ATL@@@@@ATL@@QBEHPBD@Z 004136cc f   mfc71d:MFC71D.DLL
 0001:000126d2       ?ShowWindow@CWnd@@QAEHH@Z  004136d2 f   mfc71d:MFC71D.DLL
 0001:000126d8       ?InsertString@CListBox@@QAEHHPBD@Z 004136d8 f   mfc71d:MFC71D.DLL
 0001:000126de       ?SetDlgItemTextA@CWnd@@QAEXHPBD@Z 004136de f   mfc71d:MFC71D.DLL
 0001:000126e4       ?GetWindowPlacement@CWnd@@QBEHPAUtagWINDOWPLACEMENT@@@Z 004136e4 f   mfc71d:MFC71D.DLL
 0001:000126ea       ?GetSubMenu@CMenu@@QBEPAV1@H@Z 004136ea f   mfc71d:MFC71D.DLL
 0001:000126f0       ??1CMenu@@UAE@XZ           004136f0 f   mfc71d:MFC71D.DLL
 0001:000126f6       ?OnWindowPosChanging@CWnd@@IAEXPAUtagWINDOWPOS@@@Z 004136f6 f   mfc71d:MFC71D.DLL
 0001:000126fc       ??4?$CStringT@DV?$StrTraitMFC_DLL@DV?$ChTraitsCRT@D@ATL@@@@@ATL@@QAEAAV01@ABV01@@Z 004136fc f   mfc71d:MFC71D.DLL
 0001:00012702       ?IsWindowEnabled@CWnd@@QBEHXZ 00413702 f   mfc71d:MFC71D.DLL
 0001:00012708       ?AfxGetResourceHandle@@YGPAUHINSTANCE__@@XZ 00413708 f   mfc71d:MFC71D.DLL
 0001:0001270e       ?InsertString@CComboBox@@QAEHHPBD@Z 0041370e f   mfc71d:MFC71D.DLL
 0001:00012714       ?ResetContent@CListBox@@QAEXXZ 00413714 f   mfc71d:MFC71D.DLL
 0001:0001271a       ?OnSetCursor@CWnd@@IAEHPAV1@II@Z 0041371a f   mfc71d:MFC71D.DLL
 0001:00012720       ?MessageBoxA@CWnd@@QAEHPBD0I@Z 00413720 f   mfc71d:MFC71D.DLL
 0001:00012726       ?GetStyle@CWnd@@QBEKXZ     00413726 f   mfc71d:MFC71D.DLL
 0001:0001272c       ?Detach@CMenu@@QAEPAUHMENU__@@XZ 0041372c f   mfc71d:MFC71D.DLL
 0001:00012732       ?SetMenu@CWnd@@QAEHPAVCMenu@@@Z 00413732 f   mfc71d:MFC71D.DLL
 0001:00012738       ?InsertMenuA@CMenu@@QAEHIIIPBD@Z 00413738 f   mfc71d:MFC71D.DLL
 0001:0001273e       ?GetSafeHmenu@CMenu@@QBEPAUHMENU__@@XZ 0041373e f   mfc71d:MFC71D.DLL
 0001:00012744       ?AppendMenuA@CMenu@@QAEHIIPBD@Z 00413744 f   mfc71d:MFC71D.DLL
 0001:0001274a       ?CreatePopupMenu@CMenu@@QAEHXZ 0041374a f   mfc71d:MFC71D.DLL
 0001:00012750       ?Find@?$CStringT@DV?$StrTraitMFC_DLL@DV?$ChTraitsCRT@D@ATL@@@@@ATL@@QBEHPBDH@Z 00413750 f   mfc71d:MFC71D.DLL
 0001:00012756       ?GetMenuStringA@CMenu@@QBEHIAAV?$CStringT@DV?$StrTraitMFC_DLL@DV?$ChTraitsCRT@D@ATL@@@@@ATL@@I@Z 00413756 f   mfc71d:MFC71D.DLL
 0001:0001275c       ?CheckMenuItem@CMenu@@QAEIII@Z 0041375c f   mfc71d:MFC71D.DLL
 0001:00012762       ?GetMenuState@CMenu@@QBEIII@Z 00413762 f   mfc71d:MFC71D.DLL
 0001:00012768       ?Attach@CMenu@@QAEHPAUHMENU__@@@Z 00413768 f   mfc71d:MFC71D.DLL
 0001:0001276e       ?SetWindowPos@CWnd@@QAEHPBV1@HHHHI@Z 0041376e f   mfc71d:MFC71D.DLL
 0001:00012774       ?SetPos@CProgressCtrl@@QAEHH@Z 00413774 f   mfc71d:MFC71D.DLL
 0001:0001277a       ?EnableMenuItem@CMenu@@QAEIII@Z 0041377a f   mfc71d:MFC71D.DLL
 0001:00012780       ??BCMenu@@QBEPAUHMENU__@@XZ 00413780 f   mfc71d:MFC71D.DLL
 0001:00012786       ?OnSysCommand@CWnd@@IAEXIJ@Z 00413786 f   mfc71d:MFC71D.DLL
 0001:0001278c       ?MoveWindow@CWnd@@QAEXHHHHH@Z 0041378c f   mfc71d:MFC71D.DLL
 0001:00012792       ?GetThisClass@CStatic@@SGPAUCRuntimeClass@@XZ 00413792 f   mfc71d:MFC71D.DLL
 0001:00012798       ??0CFont@@QAE@XZ           00413798 f   mfc71d:MFC71D.DLL
 0001:0001279e       ?SetBkMode@CDC@@QAEHH@Z    0041379e f   mfc71d:MFC71D.DLL
 0001:000127a4       ?CreateFontIndirectA@CFont@@QAEHPBUtagLOGFONTA@@@Z 004137a4 f   mfc71d:MFC71D.DLL
 0001:000127aa       ?GetObjectA@CGdiObject@@QBEHHPAX@Z 004137aa f   mfc71d:MFC71D.DLL
 0001:000127b0       ?GetFont@CWnd@@QBEPAVCFont@@XZ 004137b0 f   mfc71d:MFC71D.DLL
 0001:000127b6       ??BCFont@@QBEPAUHFONT__@@XZ 004137b6 f   mfc71d:MFC71D.DLL
 0001:000127bc       ?Invalidate@CWnd@@QAEXH@Z  004137bc f   mfc71d:MFC71D.DLL
 0001:000127c2       ?IsEmpty@?$CSimpleStringT@D$00@ATL@@QBE_NXZ 004137c2 f   mfc71d:MFC71D.DLL
 0001:000127c8       ??Y?$CStringT@DV?$StrTraitMFC_DLL@DV?$ChTraitsCRT@D@ATL@@@@@ATL@@QAEAAV01@PBD@Z 004137c8 f   mfc71d:MFC71D.DLL
 0001:000127ce       ?ReleaseBuffer@?$CSimpleStringT@D$00@ATL@@QAEXH@Z 004137ce f   mfc71d:MFC71D.DLL
 0001:000127d4       ?GetBuffer@?$CSimpleStringT@D$00@ATL@@QAEPADH@Z 004137d4 f   mfc71d:MFC71D.DLL
 0001:000127da       ?AfxThrowOleException@@YGXJ@Z 004137da f   mfc71d:MFC71D.DLL
 0001:000127e0       ?AfxThrowMemoryException@@YGXXZ 004137e0 f   mfc71d:MFC71D.DLL
 0001:000127e6       ?SetFocus@CWnd@@QAEPAV1@XZ 004137e6 f   mfc71d:MFC71D.DLL
 0001:000127ec       ?GetWindowTextA@CWnd@@QBEHPADH@Z 004137ec f   mfc71d:MFC71D.DLL
 0001:000127f2       ?OnNcDestroy@CWnd@@IAEXXZ  004137f2 f   mfc71d:MFC71D.DLL
 0001:000127f8       ?put_accValue@CWnd@@UAEJUtagVARIANT@@PA_W@Z 004137f8 f   mfc71d:MFC71D.DLL
 0001:000127f8       ?put_accValue@CWnd@@UAEJUtagVARIANT@@PAG@Z 004137f8 f   mfc71d:MFC71D.DLL
 0001:000127fe       ?put_accName@CWnd@@UAEJUtagVARIANT@@PA_W@Z 004137fe f   mfc71d:MFC71D.DLL
 0001:000127fe       ?put_accName@CWnd@@UAEJUtagVARIANT@@PAG@Z 004137fe f   mfc71d:MFC71D.DLL
 0001:00012804       ?get_accDefaultAction@CWnd@@UAEJUtagVARIANT@@PAPAG@Z 00413804 f   mfc71d:MFC71D.DLL
 0001:00012804       ?get_accDefaultAction@CWnd@@UAEJUtagVARIANT@@PAPA_W@Z 00413804 f   mfc71d:MFC71D.DLL
 0001:0001280a       ?get_accKeyboardShortcut@CWnd@@UAEJUtagVARIANT@@PAPA_W@Z 0041380a f   mfc71d:MFC71D.DLL
 0001:0001280a       ?get_accKeyboardShortcut@CWnd@@UAEJUtagVARIANT@@PAPAG@Z 0041380a f   mfc71d:MFC71D.DLL
 0001:00012810       ?get_accHelpTopic@CWnd@@UAEJPAPAGUtagVARIANT@@PAJ@Z 00413810 f   mfc71d:MFC71D.DLL
 0001:00012810       ?get_accHelpTopic@CWnd@@UAEJPAPA_WUtagVARIANT@@PAJ@Z 00413810 f   mfc71d:MFC71D.DLL
 0001:00012816       ?get_accHelp@CWnd@@UAEJUtagVARIANT@@PAPAG@Z 00413816 f   mfc71d:MFC71D.DLL
 0001:00012816       ?get_accHelp@CWnd@@UAEJUtagVARIANT@@PAPA_W@Z 00413816 f   mfc71d:MFC71D.DLL
 0001:0001281c       ?get_accDescription@CWnd@@UAEJUtagVARIANT@@PAPAG@Z 0041381c f   mfc71d:MFC71D.DLL
 0001:0001281c       ?get_accDescription@CWnd@@UAEJUtagVARIANT@@PAPA_W@Z 0041381c f   mfc71d:MFC71D.DLL
 0001:00012822       ?get_accValue@CWnd@@UAEJUtagVARIANT@@PAPA_W@Z 00413822 f   mfc71d:MFC71D.DLL
 0001:00012822       ?get_accValue@CWnd@@UAEJUtagVARIANT@@PAPAG@Z 00413822 f   mfc71d:MFC71D.DLL
 0001:00012828       ?get_accName@CWnd@@UAEJUtagVARIANT@@PAPA_W@Z 00413828 f   mfc71d:MFC71D.DLL
 0001:00012828       ?get_accName@CWnd@@UAEJUtagVARIANT@@PAPAG@Z 00413828 f   mfc71d:MFC71D.DLL
 0001:00012830       ?GetEnvironmentVariableWThunk@ATL@@YGKPB_WPA_WK@Z 00413830 f i mfcs71d:stdafx.obj
 0001:00012870       ?GetEnvironmentVariableWFake@ATL@@YGKPB_WPA_WK@Z 00413870 f i mfcs71d:stdafx.obj
 0001:00012a50       ?CompareStringWThunk@ATL@@YGHKKPB_WH0H@Z 00413a50 f i mfcs71d:stdafx.obj
 0001:00012a90       ?CompareStringWFake@ATL@@YGHKKPB_WH0H@Z 00413a90 f i mfcs71d:stdafx.obj
 0001:00012c70       ?AtlW2AHelper@@YGPADPADPB_WHI@Z 00413c70 f i mfcs71d:stdafx.obj
 0001:00012d40       ?GetStringTypeExWThunk@ATL@@YGHKKPB_WHPAG@Z 00413d40 f i mfcs71d:stdafx.obj
 0001:00012d80       ?GetStringTypeExWFake@ATL@@YGHKKPB_WHPAG@Z 00413d80 f i mfcs71d:stdafx.obj
 0001:00012e90       ?lstrcmpiWThunk@ATL@@YGHPB_W0@Z 00413e90 f i mfcs71d:stdafx.obj
 0001:00012ec0       ?lstrcmpiWFake@ATL@@YGHPB_W0@Z 00413ec0 f i mfcs71d:stdafx.obj
 0001:00012fa0       ?CharLowerWThunk@ATL@@YGPA_WPA_W@Z 00413fa0 f i mfcs71d:stdafx.obj
 0001:00012fd0       ?CharLowerWFake@ATL@@YGPA_WPA_W@Z 00413fd0 f i mfcs71d:stdafx.obj
 0001:000130c0       ?AtlA2WHelper@@YGPA_WPA_WPBDHI@Z 004140c0 f i mfcs71d:stdafx.obj
 0001:00013190       ?CharUpperWThunk@ATL@@YGPA_WPA_W@Z 00414190 f i mfcs71d:stdafx.obj
 0001:000131c0       ?CharUpperWFake@ATL@@YGPA_WPA_W@Z 004141c0 f i mfcs71d:stdafx.obj
 0001:000132b0       ??0?$CW2AEX@$0IA@@ATL@@QAE@PB_W@Z 004142b0 f i mfcs71d:stdafx.obj
 0001:000132e0       ?Init@?$CW2AEX@$0IA@@ATL@@AAEXPB_WI@Z 004142e0 f i mfcs71d:stdafx.obj
 0001:00013370       ___CxxFrameHandler         00414370 f   msvcrtd:MSVCR71D.dll
 0001:00013380       @__security_check_cookie@4 00414380 f   msvcrtd:secchk.obj
 0001:00013400       __chkstk                   00414400 f   msvcrtd:chkstk.obj
 0001:00013400       __alloca_probe             00414400     msvcrtd:chkstk.obj
 0001:0001343e       _ceil                      0041443e f   msvcrtd:MSVCR71D.dll
 0001:00013444       __ftol2                    00414444 f   msvcrtd:ftol2.obj
 0001:000134ba       _strcmp                    004144ba f   msvcrtd:MSVCR71D.dll
 0001:000134c0       _strstr                    004144c0 f   msvcrtd:MSVCR71D.dll
 0001:000134c6       _memmove                   004144c6 f   msvcrtd:MSVCR71D.dll
 0001:000134cc       _memcpy                    004144cc f   msvcrtd:MSVCR71D.dll
 0001:000134d2       _memset                    004144d2 f   msvcrtd:MSVCR71D.dll
 0001:000134d8       _sscanf                    004144d8 f   msvcrtd:MSVCR71D.dll
 0001:000134de       _strcpy                    004144de f   msvcrtd:MSVCR71D.dll
 0001:000134f0       ??_M@YGXPAXIHP6EX0@Z@Z     004144f0 f   msvcrtd:ehvecdtr.obj
 0001:00013590       ?__ArrayUnwind@@YGXPAXIHP6EX0@Z@Z 00414590 f   msvcrtd:ehvecdtr.obj
 0001:00013640       __onexit                   00414640 f   msvcrtd:atonexit.obj
 0001:00013680       _atexit                    00414680 f   msvcrtd:atonexit.obj
 0001:000136a0       ??_L@YGXPAXIHP6EX0@Z1@Z    004146a0 f   msvcrtd:ehvecctr.obj
 0001:00013740       _sprintf                   00414740 f   msvcrtd:MSVCR71D.dll
 0001:00013746       _fprintf                   00414746 f   msvcrtd:MSVCR71D.dll
 0001:0001374c       _localtime                 0041474c f   msvcrtd:MSVCR71D.dll
 0001:00013752       __ftime                    00414752 f   msvcrtd:MSVCR71D.dll
 0001:00013758       _strlen                    00414758 f   msvcrtd:MSVCR71D.dll
 0001:0001375e       _fflush                    0041475e f   msvcrtd:MSVCR71D.dll
 0001:00013764       _asctime                   00414764 f   msvcrtd:MSVCR71D.dll
 0001:0001376a       _time                      0041476a f   msvcrtd:MSVCR71D.dll
 0001:00013770       _fopen                     00414770 f   msvcrtd:MSVCR71D.dll
 0001:00013776       _fclose                    00414776 f   msvcrtd:MSVCR71D.dll
 0001:0001377c       __CrtDbgReport             0041477c f   msvcrtd:MSVCR71D.dll
 0001:00013782       __resetstkoflw             00414782 f   msvcrtd:MSVCR71D.dll
 0001:00013788       __except_handler3          00414788 f   msvcrtd:MSVCR71D.dll
 0001:0001378e       _wcscpy                    0041478e f   msvcrtd:MSVCR71D.dll
 0001:00013794       _malloc                    00414794 f   msvcrtd:MSVCR71D.dll
 0001:0001379a       _free                      0041479a f   msvcrtd:MSVCR71D.dll
 0001:000137a0       __mbsnbcpy                 004147a0 f   msvcrtd:MSVCR71D.dll
 0001:000137b0       _WinMainCRTStartup         004147b0 f   msvcrtd:crtexew.obj
 0001:00013af2       _strcat                    00414af2 f   msvcrtd:MSVCR71D.dll
 0001:00013b00       __RTC_InitBase             00414b00 f   msvcrtd:init.obj
 0001:00013b30       __RTC_Shutdown             00414b30 f   msvcrtd:init.obj
 0001:00013b50       __RTC_CheckEsp             00414b50 f   msvcrtd:stack.obj
 0001:00013b80       @_RTC_CheckStackVars@8     00414b80 f   msvcrtd:stack.obj
 0001:00013be4       __mbscmp                   00414be4 f   msvcrtd:MSVCR71D.dll
 0001:00013bf0       ___security_init_cookie    00414bf0 f   msvcrtd:seccinit.obj
 0001:00013c84       ___security_error_handler  00414c84 f   msvcrtd:MSVCR71D.dll
 0001:00013c8a       ?terminate@@YAXXZ          00414c8a f   msvcrtd:MSVCR71D.dll
 0001:00013c90       ___dllonexit               00414c90 f   msvcrtd:MSVCR71D.dll
 0001:00013c96       __c_exit                   00414c96 f   msvcrtd:MSVCR71D.dll
 0001:00013c9c       __exit                     00414c9c f   msvcrtd:MSVCR71D.dll
 0001:00013ca2       __XcptFilter               00414ca2 f   msvcrtd:MSVCR71D.dll
 0001:00013ca8       __cexit                    00414ca8 f   msvcrtd:MSVCR71D.dll
 0001:00013cae       _exit                      00414cae f   msvcrtd:MSVCR71D.dll
 0001:00013cb4       __ismbblead                00414cb4 f   msvcrtd:MSVCR71D.dll
 0001:00013cba       __amsg_exit                00414cba f   msvcrtd:MSVCR71D.dll
 0001:00013cc0       ___getmainargs             00414cc0 f   msvcrtd:MSVCR71D.dll
 0001:00013cd0       __RTC_Initialize           00414cd0 f   msvcrtd:initsect.obj
 0001:00013d50       __RTC_Terminate            00414d50 f   msvcrtd:initsect.obj
 0001:00013dc8       __initterm                 00414dc8 f   msvcrtd:MSVCR71D.dll
 0001:00013dd0       __setdefaultprecision      00414dd0 f   msvcrtd:fp8.obj
 0001:00013de8       ___setusermatherr          00414de8 f   msvcrtd:MSVCR71D.dll
 0001:00013df0       __matherr                  00414df0 f   msvcrtd:merr.obj
 0001:00013e00       __setargv                  00414e00 f   msvcrtd:dllargv.obj
 0001:00013e08       ___p__commode              00414e08 f   msvcrtd:MSVCR71D.dll
 0001:00013e0e       ___p__fmode                00414e0e f   msvcrtd:MSVCR71D.dll
 0001:00013e14       ___set_app_type            00414e14 f   msvcrtd:MSVCR71D.dll
 0001:00013e20       __RTC_NumErrors            00414e20 f   msvcrtd:userapi.obj
 0001:00013e30       __RTC_GetErrDesc           00414e30 f   msvcrtd:userapi.obj
 0001:00013e50       __RTC_SetErrorType         00414e50 f   msvcrtd:userapi.obj
 0001:00013e80       __RTC_SetErrorFunc         00414e80 f   msvcrtd:userapi.obj
 0001:00013ea0       ?_RTC_GetErrorFunc@@YAP6AHHPBDH00ZZPBX@Z 00414ea0 f   msvcrtd:userapi.obj
 0001:00013ea6       __CRT_RTC_INIT             00414ea6 f   msvcrtd:MSVCR71D.dll
 0001:00013eb0       ?_RTC_Failure@@YAXPAXH@Z   00414eb0 f   msvcrtd:error.obj
 0001:00014110       ?_RTC_MemFailure@@YAXPAXHPBX@Z 00415110 f   msvcrtd:error.obj
 0001:00014360       ?_RTC_StackFailure@@YAXPAXPBD@Z 00415360 f   msvcrtd:error.obj
 0001:00014420       __RTC_UninitUse            00415420 f   msvcrtd:error.obj
 0001:000145d8       __controlfp                004155d8 f   msvcrtd:MSVCR71D.dll
 0001:000145e0       ?_RTC_GetSrcLine@@YAHKPADHPAHPAPAD@Z 004155e0 f   msvcrtd:pdblkup.obj
 0001:00014e7e       _GetVersionExA@4           00415e7e f   kernel32:KERNEL32.dll
 0001:00014e84       _InterlockedExchange@8     00415e84 f   kernel32:KERNEL32.dll
 0001:00014e8a       _GetACP@0                  00415e8a f   kernel32:KERNEL32.dll
 0001:00014e90       _GetLocaleInfoA@16         00415e90 f   kernel32:KERNEL32.dll
 0001:00014e96       _GetThreadLocale@0         00415e96 f   kernel32:KERNEL32.dll
 0001:00014e9c       _Sleep@4                   00415e9c f   kernel32:KERNEL32.dll
 0001:00014ea2       _FreeLibrary@4             00415ea2 f   kernel32:KERNEL32.dll
 0001:00014ea8       _GetProcAddress@8          00415ea8 f   kernel32:KERNEL32.dll
 0001:00014eae       _LoadLibraryA@4            00415eae f   kernel32:KERNEL32.dll
 0001:00014eb4       _Beep@8                    00415eb4 f   kernel32:KERNEL32.dll
 0001:00014eba       _CreateMutexA@12           00415eba f   kernel32:KERNEL32.dll
 0001:00014ec0       _OpenMutexA@12             00415ec0 f   kernel32:KERNEL32.dll
 0001:00014ec6       _CloseHandle@4             00415ec6 f   kernel32:KERNEL32.dll
 0001:00014ecc       _ReleaseMutex@4            00415ecc f   kernel32:KERNEL32.dll
 0001:00014ed2       _WaitForSingleObject@8     00415ed2 f   kernel32:KERNEL32.dll
 0001:00014ed8       _GetLastError@0            00415ed8 f   kernel32:KERNEL32.dll
 0001:00014ede       _CreateProcessA@40         00415ede f   kernel32:KERNEL32.dll
 0001:00014ee4       _GetExitCodeProcess@8      00415ee4 f   kernel32:KERNEL32.dll
 0001:00014eea       _GetCurrentDirectoryA@8    00415eea f   kernel32:KERNEL32.dll
 0001:00014ef0       _GetWindowsDirectoryA@8    00415ef0 f   kernel32:KERNEL32.dll
 0001:00014ef6       _GetEnvironmentVariableW@12 00415ef6 f   kernel32:KERNEL32.dll
 0001:00014efc       _GetVersion@0              00415efc f   kernel32:KERNEL32.dll
 0001:00014f02       _MultiByteToWideChar@24    00415f02 f   kernel32:KERNEL32.dll
 0001:00014f08       _GetEnvironmentVariableA@12 00415f08 f   kernel32:KERNEL32.dll
 0001:00014f0e       _CompareStringW@24         00415f0e f   kernel32:KERNEL32.dll
 0001:00014f14       _CompareStringA@24         00415f14 f   kernel32:KERNEL32.dll
 0001:00014f1a       _lstrlenW@4                00415f1a f   kernel32:KERNEL32.dll
 0001:00014f20       _WideCharToMultiByte@32    00415f20 f   kernel32:KERNEL32.dll
 0001:00014f26       _GetStringTypeExW@20       00415f26 f   kernel32:KERNEL32.dll
 0001:00014f2c       _GetStringTypeExA@20       00415f2c f   kernel32:KERNEL32.dll
 0001:00014f32       _lstrcmpiW@8               00415f32 f   kernel32:KERNEL32.dll
 0001:00014f38       _lstrcmpiA@8               00415f38 f   kernel32:KERNEL32.dll
 0001:00014f3e       _lstrlenA@4                00415f3e f   kernel32:KERNEL32.dll
 0001:00014f44       _DeleteCriticalSection@4   00415f44 f   kernel32:KERNEL32.dll
 0001:00014f4a       _RaiseException@16         00415f4a f   kernel32:KERNEL32.dll
 0001:00014f50       _MoveFileExA@12            00415f50 f   kernel32:KERNEL32.dll
 0001:00014f56       _FormatMessageA@28         00415f56 f   kernel32:KERNEL32.dll
 0001:00014f5c       _SetLastError@4            00415f5c f   kernel32:KERNEL32.dll
 0001:00014f62       _FindClose@4               00415f62 f   kernel32:KERNEL32.dll
 0001:00014f68       _FindFirstFileA@8          00415f68 f   kernel32:KERNEL32.dll
 0001:00014f6e       _GetFullPathNameA@16       00415f6e f   kernel32:KERNEL32.dll
 0001:00014f74       _LoadLibraryExA@12         00415f74 f   kernel32:KERNEL32.dll
 0001:00014f7a       _ExitProcess@4             00415f7a f   kernel32:KERNEL32.dll
 0001:00014f80       _GetModuleHandleA@4        00415f80 f   kernel32:KERNEL32.dll
 0001:00014f86       _GetStartupInfoA@4         00415f86 f   kernel32:KERNEL32.dll
 0001:00014f8c       _QueryPerformanceCounter@4 00415f8c f   kernel32:KERNEL32.dll
 0001:00014f92       _GetTickCount@0            00415f92 f   kernel32:KERNEL32.dll
 0001:00014f98       _GetCurrentThreadId@0      00415f98 f   kernel32:KERNEL32.dll
 0001:00014f9e       _GetCurrentProcessId@0     00415f9e f   kernel32:KERNEL32.dll
 0001:00014fa4       _GetSystemTimeAsFileTime@4 00415fa4 f   kernel32:KERNEL32.dll
 0001:00014faa       _DebugBreak@0              00415faa f   kernel32:KERNEL32.dll
 0001:00014fb0       _HeapFree@12               00415fb0 f   kernel32:KERNEL32.dll
 0001:00014fb6       _HeapAlloc@12              00415fb6 f   kernel32:KERNEL32.dll
 0001:00014fbc       _GetProcessHeap@0          00415fbc f   kernel32:KERNEL32.dll
 0001:00014fc2       _GetModuleFileNameA@12     00415fc2 f   kernel32:KERNEL32.dll
 0001:00014fc8       _GetCurrentProcess@0       00415fc8 f   kernel32:KERNEL32.dll
 0001:00014fce       _PostMessageA@16           00415fce f   user32:USER32.dll
 0001:00014fd4       _MessageBoxA@16            00415fd4 f   user32:USER32.dll
 0001:00014fda       _RegisterWindowMessageA@4  00415fda f   user32:USER32.dll
 0001:00014fe0       _GetSystemMetrics@4        00415fe0 f   user32:USER32.dll
 0001:00014fe6       _DestroyIcon@4             00415fe6 f   user32:USER32.dll
 0001:00014fec       _TrackPopupMenu@28         00415fec f   user32:USER32.dll
 0001:00014ff2       _SetForegroundWindow@4     00415ff2 f   user32:USER32.dll
 0001:00014ff8       _GetCursorPos@4            00415ff8 f   user32:USER32.dll
 0001:00014ffe       _EnableMenuItem@12         00415ffe f   user32:USER32.dll
 0001:00015004       _SetMenuDefaultItem@12     00416004 f   user32:USER32.dll
 0001:0001500a       _GetDlgCtrlID@4            0041600a f   user32:USER32.dll
 0001:00015010       _SystemParametersInfoA@16  00416010 f   user32:USER32.dll
 0001:00015016       _GetWindowInfo@8           00416016 f   user32:USER32.dll
 0001:0001501c       _IsWindow@4                0041601c f   user32:USER32.dll
 0001:00015022       _SetWindowLongA@12         00416022 f   user32:USER32.dll
 0001:00015028       _MessageBeep@4             00416028 f   user32:USER32.dll
 0001:0001502e       _CopyIcon@4                0041602e f   user32:USER32.dll
 0001:00015034       _LoadCursorA@8             00416034 f   user32:USER32.dll
 0001:0001503a       _SetCursor@4               0041603a f   user32:USER32.dll
 0001:00015040       _CharLowerW@4              00416040 f   user32:USER32.dll
 0001:00015046       _CharLowerA@4              00416046 f   user32:USER32.dll
 0001:0001504c       _CharUpperW@4              0041604c f   user32:USER32.dll
 0001:00015052       _CharUpperA@4              00416052 f   user32:USER32.dll
 0001:00015058       _UnregisterClassA@8        00416058 f   user32:USER32.dll
 0001:0001505e       _GetStockObject@4          0041605e f   gdi32:GDI32.dll
 0001:00015064       _GetSaveFileNameA@4        00416064 f   comdlg32:comdlg32.dll
 0001:0001506a       _GetOpenFileNameA@4        0041606a f   comdlg32:comdlg32.dll
 0001:00015070       _RegCloseKey@4             00416070 f   advapi32:ADVAPI32.dll
 0001:00015076       _RegOpenKeyExA@20          00416076 f   advapi32:ADVAPI32.dll
 0001:0001507c       _RegQueryValueExA@24       0041607c f   advapi32:ADVAPI32.dll
 0001:00015082       _RegSetValueExA@24         00416082 f   advapi32:ADVAPI32.dll
 0001:00015088       _RegCreateKeyExA@36        00416088 f   advapi32:ADVAPI32.dll
 0001:0001508e       _RegEnumValueA@32          0041608e f   advapi32:ADVAPI32.dll
 0001:00015094       _RegQueryInfoKeyA@48       00416094 f   advapi32:ADVAPI32.dll
 0001:0001509a       _Shell_NotifyIconA@8       0041609a f   shell32:SHELL32.dll
 0001:000150a0       _ShellExecuteA@24          004160a0 f   shell32:SHELL32.dll
 0001:000150a6       _SysFreeString@4           004160a6 f   oleaut32:OLEAUT32.dll
 0001:000150b0       ??0CSize@@QAE@XZ           004160b0 f   atlsd:atltypes.obj
 0001:000150c0       ??0CSize@@QAE@HH@Z         004160c0 f   atlsd:atltypes.obj
 0001:000150f0       ??0CSize@@QAE@UtagSIZE@@@Z 004160f0 f   atlsd:atltypes.obj
 0001:00015110       ??0CSize@@QAE@UtagPOINT@@@Z 00416110 f   atlsd:atltypes.obj
 0001:00015130       ??0CSize@@QAE@K@Z          00416130 f   atlsd:atltypes.obj
 0001:00015160       ??8CSize@@QBEHUtagSIZE@@@Z 00416160 f   atlsd:atltypes.obj
 0001:000151a0       ??9CSize@@QBEHUtagSIZE@@@Z 004161a0 f   atlsd:atltypes.obj
 0001:000151e0       ??YCSize@@QAEXUtagSIZE@@@Z 004161e0 f   atlsd:atltypes.obj
 0001:00015210       ??ZCSize@@QAEXUtagSIZE@@@Z 00416210 f   atlsd:atltypes.obj
 0001:00015240       ?SetSize@CSize@@QAEXHH@Z   00416240 f   atlsd:atltypes.obj
 0001:00015260       ??HCSize@@QBE?AV0@UtagSIZE@@@Z 00416260 f   atlsd:atltypes.obj
 0001:00015290       ??GCSize@@QBE?AV0@UtagSIZE@@@Z 00416290 f   atlsd:atltypes.obj
 0001:000152c0       ??GCSize@@QBE?AV0@XZ       004162c0 f   atlsd:atltypes.obj
 0001:000152f0       ??HCSize@@QBE?AVCPoint@@UtagPOINT@@@Z 004162f0 f   atlsd:atltypes.obj
 0001:00015320       ??GCSize@@QBE?AVCPoint@@UtagPOINT@@@Z 00416320 f   atlsd:atltypes.obj
 0001:00015350       ??HCSize@@QBE?AVCRect@@PBUtagRECT@@@Z 00416350 f   atlsd:atltypes.obj
 0001:00015390       ??GCSize@@QBE?AVCRect@@PBUtagRECT@@@Z 00416390 f   atlsd:atltypes.obj
 0001:000153d0       ??0CPoint@@QAE@XZ          004163d0 f   atlsd:atltypes.obj
 0001:000153e0       ??0CPoint@@QAE@HH@Z        004163e0 f   atlsd:atltypes.obj
 0001:00015410       ??0CPoint@@QAE@UtagPOINT@@@Z 00416410 f   atlsd:atltypes.obj
 0001:00015430       ??0CPoint@@QAE@UtagSIZE@@@Z 00416430 f   atlsd:atltypes.obj
 0001:00015450       ??0CPoint@@QAE@J@Z         00416450 f   atlsd:atltypes.obj
 0001:00015480       ?Offset@CPoint@@QAEXHH@Z   00416480 f   atlsd:atltypes.obj
 0001:000154b0       ?Offset@CPoint@@QAEXUtagPOINT@@@Z 004164b0 f   atlsd:atltypes.obj
 0001:000154e0       ?Offset@CPoint@@QAEXUtagSIZE@@@Z 004164e0 f   atlsd:atltypes.obj
 0001:00015510       ?SetPoint@CPoint@@QAEXHH@Z 00416510 f   atlsd:atltypes.obj
 0001:00015530       ??8CPoint@@QBEHUtagPOINT@@@Z 00416530 f   atlsd:atltypes.obj
 0001:00015570       ??9CPoint@@QBEHUtagPOINT@@@Z 00416570 f   atlsd:atltypes.obj
 0001:000155b0       ??YCPoint@@QAEXUtagSIZE@@@Z 004165b0 f   atlsd:atltypes.obj
 0001:000155e0       ??ZCPoint@@QAEXUtagSIZE@@@Z 004165e0 f   atlsd:atltypes.obj
 0001:00015610       ??YCPoint@@QAEXUtagPOINT@@@Z 00416610 f   atlsd:atltypes.obj
 0001:00015640       ??ZCPoint@@QAEXUtagPOINT@@@Z 00416640 f   atlsd:atltypes.obj
 0001:00015670       ??HCPoint@@QBE?AV0@UtagSIZE@@@Z 00416670 f   atlsd:atltypes.obj
 0001:000156a0       ??GCPoint@@QBE?AV0@UtagSIZE@@@Z 004166a0 f   atlsd:atltypes.obj
 0001:000156d0       ??GCPoint@@QBE?AV0@XZ      004166d0 f   atlsd:atltypes.obj
 0001:00015700       ??HCPoint@@QBE?AV0@UtagPOINT@@@Z 00416700 f   atlsd:atltypes.obj
 0001:00015730       ??GCPoint@@QBE?AVCSize@@UtagPOINT@@@Z 00416730 f   atlsd:atltypes.obj
 0001:00015760       ??HCPoint@@QBE?AVCRect@@PBUtagRECT@@@Z 00416760 f   atlsd:atltypes.obj
 0001:000157a0       ??GCPoint@@QBE?AVCRect@@PBUtagRECT@@@Z 004167a0 f   atlsd:atltypes.obj
 0001:000157e0       ??0CRect@@QAE@XZ           004167e0 f   atlsd:atltypes.obj
 0001:000157f0       ??0CRect@@QAE@HHHH@Z       004167f0 f   atlsd:atltypes.obj
 0001:00015830       ??0CRect@@QAE@ABUtagRECT@@@Z 00416830 f   atlsd:atltypes.obj
 0001:00015850       ??0CRect@@QAE@PBUtagRECT@@@Z 00416850 f   atlsd:atltypes.obj
 0001:00015870       ??0CRect@@QAE@UtagPOINT@@UtagSIZE@@@Z 00416870 f   atlsd:atltypes.obj
 0001:000158b0       ??0CRect@@QAE@UtagPOINT@@0@Z 004168b0 f   atlsd:atltypes.obj
 0001:000158f0       ?Width@CRect@@QBEHXZ       004168f0 f   atlsd:atltypes.obj
 0001:00015910       ?Height@CRect@@QBEHXZ      00416910 f   atlsd:atltypes.obj
 0001:00015930       ?Size@CRect@@QBE?AVCSize@@XZ 00416930 f   atlsd:atltypes.obj
 0001:00015970       ?TopLeft@CRect@@QAEAAVCPoint@@XZ 00416970 f   atlsd:atltypes.obj
 0001:00015980       ?BottomRight@CRect@@QAEAAVCPoint@@XZ 00416980 f   atlsd:atltypes.obj
 0001:000159a0       ?TopLeft@CRect@@QBEABVCPoint@@XZ 004169a0 f   atlsd:atltypes.obj
 0001:000159b0       ?BottomRight@CRect@@QBEABVCPoint@@XZ 004169b0 f   atlsd:atltypes.obj
 0001:000159d0       ?CenterPoint@CRect@@QBE?AVCPoint@@XZ 004169d0 f   atlsd:atltypes.obj
 0001:00015a10       ?SwapLeftRight@CRect@@QAEXXZ 00416a10 f   atlsd:atltypes.obj
 0001:00015a30       ?SwapLeftRight@CRect@@SGXPAUtagRECT@@@Z 00416a30 f   atlsd:atltypes.obj
 0001:00015a60       ??BCRect@@QAEPAUtagRECT@@XZ 00416a60 f   atlsd:atltypes.obj
 0001:00015a70       ??BCRect@@QBEPBUtagRECT@@XZ 00416a70 f   atlsd:atltypes.obj
 0001:00015a80       ?IsRectEmpty@CRect@@QBEHXZ 00416a80 f   atlsd:atltypes.obj
 0001:00015aa0       ?IsRectNull@CRect@@QBEHXZ  00416aa0 f   atlsd:atltypes.obj
 0001:00015af0       ?PtInRect@CRect@@QBEHUtagPOINT@@@Z 00416af0 f   atlsd:atltypes.obj
 0001:00015b10       ?SetRect@CRect@@QAEXHHHH@Z 00416b10 f   atlsd:atltypes.obj
 0001:00015b40       ?SetRect@CRect@@QAEXUtagPOINT@@0@Z 00416b40 f   atlsd:atltypes.obj
 0001:00015b70       ?SetRectEmpty@CRect@@QAEXXZ 00416b70 f   atlsd:atltypes.obj
 0001:00015b90       ?CopyRect@CRect@@QAEXPBUtagRECT@@@Z 00416b90 f   atlsd:atltypes.obj
 0001:00015bb0       ?EqualRect@CRect@@QBEHPBUtagRECT@@@Z 00416bb0 f   atlsd:atltypes.obj
 0001:00015bd0       ?InflateRect@CRect@@QAEXHH@Z 00416bd0 f   atlsd:atltypes.obj
 0001:00015bf0       ?InflateRect@CRect@@QAEXUtagSIZE@@@Z 00416bf0 f   atlsd:atltypes.obj
 0001:00015c10       ?DeflateRect@CRect@@QAEXHH@Z 00416c10 f   atlsd:atltypes.obj
 0001:00015c40       ?DeflateRect@CRect@@QAEXUtagSIZE@@@Z 00416c40 f   atlsd:atltypes.obj
 0001:00015c70       ?OffsetRect@CRect@@QAEXHH@Z 00416c70 f   atlsd:atltypes.obj
 0001:00015c90       ?OffsetRect@CRect@@QAEXUtagPOINT@@@Z 00416c90 f   atlsd:atltypes.obj
 0001:00015cb0       ?OffsetRect@CRect@@QAEXUtagSIZE@@@Z 00416cb0 f   atlsd:atltypes.obj
 0001:00015cd0       ?MoveToY@CRect@@QAEXH@Z    00416cd0 f   atlsd:atltypes.obj
 0001:00015d00       ?MoveToX@CRect@@QAEXH@Z    00416d00 f   atlsd:atltypes.obj
 0001:00015d30       ?MoveToXY@CRect@@QAEXHH@Z  00416d30 f   atlsd:atltypes.obj
 0001:00015d60       ?MoveToXY@CRect@@QAEXUtagPOINT@@@Z 00416d60 f   atlsd:atltypes.obj
 0001:00015d90       ?IntersectRect@CRect@@QAEHPBUtagRECT@@0@Z 00416d90 f   atlsd:atltypes.obj
 0001:00015db0       ?UnionRect@CRect@@QAEHPBUtagRECT@@0@Z 00416db0 f   atlsd:atltypes.obj
 0001:00015dd0       ??4CRect@@QAEXABUtagRECT@@@Z 00416dd0 f   atlsd:atltypes.obj
 0001:00015df0       ??8CRect@@QBEHABUtagRECT@@@Z 00416df0 f   atlsd:atltypes.obj
 0001:00015e10       ??9CRect@@QBEHABUtagRECT@@@Z 00416e10 f   atlsd:atltypes.obj
 0001:00015e30       ??YCRect@@QAEXUtagPOINT@@@Z 00416e30 f   atlsd:atltypes.obj
 0001:00015e50       ??YCRect@@QAEXUtagSIZE@@@Z 00416e50 f   atlsd:atltypes.obj
 0001:00015e70       ??YCRect@@QAEXPBUtagRECT@@@Z 00416e70 f   atlsd:atltypes.obj
 0001:00015e90       ??ZCRect@@QAEXUtagPOINT@@@Z 00416e90 f   atlsd:atltypes.obj
 0001:00015ec0       ??ZCRect@@QAEXUtagSIZE@@@Z 00416ec0 f   atlsd:atltypes.obj
 0001:00015ef0       ??ZCRect@@QAEXPBUtagRECT@@@Z 00416ef0 f   atlsd:atltypes.obj
 0001:00015f10       ??_4CRect@@QAEXABUtagRECT@@@Z 00416f10 f   atlsd:atltypes.obj
 0001:00015f30       ??_5CRect@@QAEXABUtagRECT@@@Z 00416f30 f   atlsd:atltypes.obj
 0001:00015f50       ??HCRect@@QBE?AV0@UtagPOINT@@@Z 00416f50 f   atlsd:atltypes.obj
 0001:00015fb0       ??GCRect@@QBE?AV0@UtagPOINT@@@Z 00416fb0 f   atlsd:atltypes.obj
 0001:00016010       ??HCRect@@QBE?AV0@UtagSIZE@@@Z 00417010 f   atlsd:atltypes.obj
 0001:00016070       ??GCRect@@QBE?AV0@UtagSIZE@@@Z 00417070 f   atlsd:atltypes.obj
 0001:000160d0       ??HCRect@@QBE?AV0@PBUtagRECT@@@Z 004170d0 f   atlsd:atltypes.obj
 0001:00016120       ??GCRect@@QBE?AV0@PBUtagRECT@@@Z 00417120 f   atlsd:atltypes.obj
 0001:00016170       ??ICRect@@QBE?AV0@ABUtagRECT@@@Z 00417170 f   atlsd:atltypes.obj
 0001:000161c0       ??UCRect@@QBE?AV0@ABUtagRECT@@@Z 004171c0 f   atlsd:atltypes.obj
 0001:00016210       ?SubtractRect@CRect@@QAEHPBUtagRECT@@0@Z 00417210 f   atlsd:atltypes.obj
 0001:00016230       ?NormalizeRect@CRect@@QAEXXZ 00417230 f   atlsd:atltypes.obj
 0001:000162a0       ?InflateRect@CRect@@QAEXPBUtagRECT@@@Z 004172a0 f   atlsd:atltypes.obj
 0001:00016300       ?InflateRect@CRect@@QAEXHHHH@Z 00417300 f   atlsd:atltypes.obj
 0001:00016350       ?DeflateRect@CRect@@QAEXPBUtagRECT@@@Z 00417350 f   atlsd:atltypes.obj
 0001:000163b0       ?DeflateRect@CRect@@QAEXHHHH@Z 004173b0 f   atlsd:atltypes.obj
 0001:00016400       ?MulDiv@CRect@@QBE?AV1@HH@Z 00417400 f   atlsd:atltypes.obj
 0001:00016470       ??0CAtlAllocator@@QAE@XZ   00417470 f i atlsd:Externs.obj
 0001:000164c0       ??0CTraceSnapshot@@QAE@XZ  004174c0 f i atlsd:Externs.obj
 0001:000164f0       ??0?$CSimpleArray@UCModuleInfo@CTraceSnapshot@@V?$CSimpleArrayEqualHelper@UCModuleInfo@CTraceSnapshot@@@ATL@@@ATL@@QAE@XZ 004174f0 f i atlsd:Externs.obj
 0001:00016520       ??0?$CSimpleArray@KV?$CSimpleArrayEqualHelper@K@ATL@@@ATL@@QAE@XZ 00417520 f i atlsd:Externs.obj
 0001:00016620       ??0CAtlException@ATL@@QAE@J@Z 00417620 f i atlsd:Externs.obj
 0001:00016640       ??0CTrace@ATL@@AAE@P6AHHPBDH00ZZ@Z 00417640 f i atlsd:Externs.obj
 0001:00016680       ??1CAtlAllocator@@QAE@XZ   00417680 f i atlsd:Externs.obj
 0001:000166a0       ??1CTraceSnapshot@@QAE@XZ  004176a0 f i atlsd:Externs.obj
 0001:000166c0       ??1?$CSimpleArray@UCModuleInfo@CTraceSnapshot@@V?$CSimpleArrayEqualHelper@UCModuleInfo@CTraceSnapshot@@@ATL@@@ATL@@QAE@XZ 004176c0 f i atlsd:Externs.obj
 0001:000166e0       ??1?$CSimpleArray@KV?$CSimpleArrayEqualHelper@K@ATL@@@ATL@@QAE@XZ 004176e0 f i atlsd:Externs.obj
 0001:00016700       ?RemoveAll@?$CSimpleArray@UCModuleInfo@CTraceSnapshot@@V?$CSimpleArrayEqualHelper@UCModuleInfo@CTraceSnapshot@@@ATL@@@ATL@@QAEXXZ 00417700 f i atlsd:Externs.obj
 0001:00016760       ?RemoveAll@?$CSimpleArray@KV?$CSimpleArrayEqualHelper@K@ATL@@@ATL@@QAEXXZ 00417760 f i atlsd:Externs.obj
 0001:000167c0       ??1CTrace@ATL@@AAE@XZ      004177c0 f i atlsd:Externs.obj
 0001:000167e0       ??0CTraceCategory@ATL@@QAE@PBDI@Z 004177e0 f i atlsd:atltrace.obj
 0001:00016830       ?ChangeCategory@CTrace@ATL@@QAE_NKIW4ATLTRACESTATUS@2@@Z 00417830 f i atlsd:atltrace.obj
 0001:00016860       ?RegisterCategory@CTrace@ATL@@QAEKPBD@Z 00417860 f i atlsd:atltrace.obj
 0001:00016880       ?NotifyTool@ATL@@YGXXZ     00417880 f   atlsd:AtlDebugAPI.obj
 0001:000168c0       _AtlTraceRegister@8        004178c0 f   atlsd:AtlDebugAPI.obj
 0001:00016930       _AtlTraceUnregister@4      00417930 f   atlsd:AtlDebugAPI.obj
 0001:00016960       _AtlTraceRegisterCategoryA@8 00417960 f   atlsd:AtlDebugAPI.obj
 0001:00016a00       _AtlTraceRegisterCategoryU@8 00417a00 f   atlsd:AtlDebugAPI.obj
 0001:00016a40       _AtlTraceModifyProcess@20  00417a40 f   atlsd:AtlDebugAPI.obj
 0001:00016ae0       _AtlTraceModifyModule@16   00417ae0 f   atlsd:AtlDebugAPI.obj
 0001:00016bc0       _AtlTraceModifyCategory@16 00417bc0 f   atlsd:AtlDebugAPI.obj
 0001:00016c70       _AtlTraceGetProcess@20     00417c70 f   atlsd:AtlDebugAPI.obj
 0001:00016d20       _AtlTraceGetModule@16      00417d20 f   atlsd:AtlDebugAPI.obj
 0001:00016e10       _AtlTraceGetCategory@16    00417e10 f   atlsd:AtlDebugAPI.obj
 0001:00016ed0       _AtlTraceGetUpdateEventNameA@4 00417ed0 f   atlsd:AtlDebugAPI.obj
 0001:00016f00       _AtlTraceGetUpdateEventNameU@4 00417f00 f   atlsd:AtlDebugAPI.obj
 0001:00016fa0       _AtlTraceVA                00417fa0 f   atlsd:AtlDebugAPI.obj
 0001:00017160       _AtlTraceVU                00418160 f   atlsd:AtlDebugAPI.obj
 0001:00017330       _AtlTraceOpenProcess@4     00418330 f   atlsd:AtlDebugAPI.obj
 0001:000173f0       _AtlTraceCloseProcess@4    004183f0 f   atlsd:AtlDebugAPI.obj
 0001:00017440       _AtlTraceSnapshotProcess@4 00418440 f   atlsd:AtlDebugAPI.obj
 0001:00017460       _AtlTraceGetProcessInfo@8  00418460 f   atlsd:AtlDebugAPI.obj
 0001:000175b0       _AtlTraceGetModuleInfo@12  004185b0 f   atlsd:AtlDebugAPI.obj
 0001:000176f0       _AtlTraceGetCategoryInfo@16 004186f0 f   atlsd:AtlDebugAPI.obj
 0001:00017a20       ?GetProcess@CAtlAllocator@@QBEPAVCAtlTraceProcess@@XZ 00418a20 f i atlsd:AtlDebugAPI.obj
 0001:00017a40       ?Name@CAtlTraceCategory@@QBEPBGXZ 00418a40 f i atlsd:AtlDebugAPI.obj
 0001:00017a60       ??_GCAtlAllocator@@QAEPAXI@Z 00418a60 f i atlsd:AtlDebugAPI.obj
 0001:00017a90       ?Path@CAtlTraceModuleInfo@@QBEPBGXZ 00418a90 f i atlsd:AtlDebugAPI.obj
 0001:00017ab0       ?Name@CAtlTraceModuleInfo@@QBEPBGXZ 00418ab0 f i atlsd:AtlDebugAPI.obj
 0001:00017ad0       ?Id@CAtlTraceProcess@@QBEKXZ 00418ad0 f i atlsd:AtlDebugAPI.obj
 0001:00017af0       ?CrtDbgReport@CAtlTraceModule@@QBEP6AHHPBDH00ZZXZ 00418af0 f i atlsd:AtlDebugAPI.obj
 0001:00017b10       ?GetSize@?$CSimpleArray@UCModuleInfo@CTraceSnapshot@@V?$CSimpleArrayEqualHelper@UCModuleInfo@CTraceSnapshot@@@ATL@@@ATL@@QBEHXZ 00418b10 f i atlsd:AtlDebugAPI.obj
 0001:00017b30       ??A?$CSimpleArray@UCModuleInfo@CTraceSnapshot@@V?$CSimpleArrayEqualHelper@UCModuleInfo@CTraceSnapshot@@@ATL@@@ATL@@QAEAAUCModuleInfo@CTraceSnapshot@@H@Z 00418b30 f i atlsd:AtlDebugAPI.obj
 0001:00017ba0       ?AtlAdvise@ATL@@YGJPAUIUnknown@@0ABU_GUID@@PAK@Z 00418ba0 f   atlsd:atlfuncs.obj
 0001:00017c60       ?AtlUnadvise@ATL@@YGJPAUIUnknown@@ABU_GUID@@K@Z 00418c60 f   atlsd:atlfuncs.obj
 0001:00017d20       ?AtlFreeMarshalStream@ATL@@YGJPAUIStream@@@Z 00418d20 f   atlsd:atlfuncs.obj
 0001:00017d70       ?AtlMarshalPtrInProc@ATL@@YGJPAUIUnknown@@ABU_GUID@@PAPAUIStream@@@Z 00418d70 f   atlsd:atlfuncs.obj
 0001:00017e10       ?AtlUnmarshalPtr@ATL@@YGJPAUIStream@@ABU_GUID@@PAPAUIUnknown@@@Z 00418e10 f   atlsd:atlfuncs.obj
 0001:00017eb0       ?AtlComModuleGetClassObject@ATL@@YGJPAU_ATL_COM_MODULE70@1@ABU_GUID@@1PAPAX@Z 00418eb0 f   atlsd:atlfuncs.obj
 0001:00018080       ?AtlComModuleRegisterClassObjects@ATL@@YGJPAU_ATL_COM_MODULE70@1@KK@Z 00419080 f   atlsd:atlfuncs.obj
 0001:00018110       ?AtlComModuleRevokeClassObjects@ATL@@YGJPAU_ATL_COM_MODULE70@1@@Z 00419110 f   atlsd:atlfuncs.obj
 0001:000181a0       ?AtlWaitWithMessageLoop@ATL@@YGHPAX@Z 004191a0 f   atlsd:atlfuncs.obj
 0001:00018290       ?AtlInternalQueryInterface@ATL@@YGJPAXPBU_ATL_INTMAP_ENTRY@1@ABU_GUID@@PAPAX@Z 00419290 f   atlsd:atlfuncs.obj
 0001:00018450       ?AtlGetVersion@ATL@@YGKPAX@Z 00419450 f   atlsd:atlfuncs.obj
 0001:00018460       ?AtlWinModuleAddCreateWndData@ATL@@YGXPAU_ATL_WIN_MODULE70@1@PAU_AtlCreateWndData@1@PAX@Z 00419460 f   atlsd:atlfuncs.obj
 0001:00018570       ?AtlWinModuleExtractCreateWndData@ATL@@YGPAXPAU_ATL_WIN_MODULE70@1@@Z 00419570 f   atlsd:atlfuncs.obj
 0001:00018690       ?AtlWinModuleInit@ATL@@YGJPAU_ATL_WIN_MODULE70@1@@Z 00419690 f   atlsd:atlfuncs.obj
 0001:00018730       ?AtlModuleAddTermFunc@ATL@@YGJPAU_ATL_MODULE70@1@P6GXK@ZK@Z 00419730 f   atlsd:atlfuncs.obj
 0001:00018840       ?AtlCallTermFunc@ATL@@YGXPAU_ATL_MODULE70@1@@Z 00419840 f   atlsd:atlfuncs.obj
 0001:000188b0       ?CComStdCallThunkHelper@ATL@@YGXXZ 004198b0 f   atlsd:atlfuncs.obj
 0001:000188c0       ??1?$CComPtr@UIConnectionPointContainer@@@ATL@@QAE@XZ 004198c0 f i atlsd:atlfuncs.obj
 0001:000188e0       ??1?$CComPtr@UIConnectionPoint@@@ATL@@QAE@XZ 004198e0 f i atlsd:atlfuncs.obj
 0001:00018900       _InlineIsEqualGUID         00419900 f i atlsd:atlfuncs.obj
 0001:00018960       ??0?$CComPtr@UIConnectionPointContainer@@@ATL@@QAE@XZ 00419960 f i atlsd:atlfuncs.obj
 0001:00018980       ??1?$CComPtrBase@UIConnectionPointContainer@@@ATL@@QAE@XZ 00419980 f i atlsd:atlfuncs.obj
 0001:000189b0       ??I?$CComPtrBase@UIConnectionPointContainer@@@ATL@@QAEPAPAUIConnectionPointContainer@@XZ 004199b0 f i atlsd:atlfuncs.obj
 0001:000189f0       ??C?$CComPtrBase@UIConnectionPointContainer@@@ATL@@QBEPAV?$_NoAddRefReleaseOnCComPtr@UIConnectionPointContainer@@@1@XZ 004199f0 f i atlsd:atlfuncs.obj
 0001:00018a30       ??0?$CComPtr@UIConnectionPoint@@@ATL@@QAE@XZ 00419a30 f i atlsd:atlfuncs.obj
 0001:00018a50       ??1?$CComPtrBase@UIConnectionPoint@@@ATL@@QAE@XZ 00419a50 f i atlsd:atlfuncs.obj
 0001:00018a80       ??I?$CComPtrBase@UIConnectionPoint@@@ATL@@QAEPAPAUIConnectionPoint@@XZ 00419a80 f i atlsd:atlfuncs.obj
 0001:00018ac0       ??C?$CComPtrBase@UIConnectionPoint@@@ATL@@QBEPAV?$_NoAddRefReleaseOnCComPtr@UIConnectionPoint@@@1@XZ 00419ac0 f i atlsd:atlfuncs.obj
 0001:00018b00       ??0?$CComPtrBase@UIConnectionPointContainer@@@ATL@@IAE@XZ 00419b00 f i atlsd:atlfuncs.obj
 0001:00018b20       ??0?$CComPtrBase@UIConnectionPoint@@@ATL@@IAE@XZ 00419b20 f i atlsd:atlfuncs.obj
 0001:00018b40       ?Init@CComCriticalSection@ATL@@QAEJXZ 00419b40 f i atlsd:atlfuncs.obj
 0001:00018be0       ?RevokeClassObject@_ATL_OBJMAP_ENTRY30@ATL@@QAGJXZ 00419be0 f i atlsd:atlfuncs.obj
 0001:00018c10       ?RegisterClassObject@_ATL_OBJMAP_ENTRY30@ATL@@QAGJKK@Z 00419c10 f i atlsd:atlfuncs.obj
 0001:00018c90       ?InlineIsEqualUnknown@ATL@@YGHABU_GUID@@@Z 00419c90 f i atlsd:atlfuncs.obj
 0001:00018ce0       ??0?$CComCritSecLock@VCComCriticalSection@ATL@@@ATL@@QAE@AAVCComCriticalSection@1@_N@Z 00419ce0 f i atlsd:atlfuncs.obj
 0001:00018d30       ??1?$CComCritSecLock@VCComCriticalSection@ATL@@@ATL@@QAE@XZ 00419d30 f i atlsd:atlfuncs.obj
 0001:00018d50       ?Unlock@?$CComCritSecLock@VCComCriticalSection@ATL@@@ATL@@QAEXXZ 00419d50 f i atlsd:atlfuncs.obj
 0001:00018da0       ?Unlock@CComCriticalSection@ATL@@QAEJXZ 00419da0 f i atlsd:atlfuncs.obj
 0001:00018dc0       ?Lock@?$CComCritSecLock@VCComCriticalSection@ATL@@@ATL@@QAEJXZ 00419dc0 f i atlsd:atlfuncs.obj
 0001:00018e20       ?Lock@CComCriticalSection@ATL@@QAEJXZ 00419e20 f i atlsd:atlfuncs.obj
 0001:00018e40       ??0CAtlBaseModule@ATL@@QAE@XZ 00419e40 f   atlsd:atlbase.obj
 0001:00018fb0       ??1CAtlBaseModule@ATL@@QAE@XZ 00419fb0 f   atlsd:atlbase.obj
 0001:00018fd0       ?AddResourceInstance@CAtlBaseModule@ATL@@QAE_NPAUHINSTANCE__@@@Z 00419fd0 f   atlsd:atlbase.obj
 0001:00019080       ?RemoveResourceInstance@CAtlBaseModule@ATL@@QAE_NPAUHINSTANCE__@@@Z 0041a080 f   atlsd:atlbase.obj
 0001:00019180       ?GetHInstanceAt@CAtlBaseModule@ATL@@QAEPAUHINSTANCE__@@H@Z 0041a180 f   atlsd:atlbase.obj
 0001:00019280       ??0_ATL_BASE_MODULE70@ATL@@QAE@XZ 0041a280 f i atlsd:atlbase.obj
 0001:000192b0       ??1_ATL_BASE_MODULE70@ATL@@QAE@XZ 0041a2b0 f i atlsd:atlbase.obj
 0001:000192d0       ??0?$CSimpleArray@PAUHINSTANCE__@@V?$CSimpleArrayEqualHelper@PAUHINSTANCE__@@@ATL@@@ATL@@QAE@XZ 0041a2d0 f i atlsd:atlbase.obj
 0001:00019300       ??1?$CSimpleArray@PAUHINSTANCE__@@V?$CSimpleArrayEqualHelper@PAUHINSTANCE__@@@ATL@@@ATL@@QAE@XZ 0041a300 f i atlsd:atlbase.obj
 0001:00019320       ?GetSize@?$CSimpleArray@PAUHINSTANCE__@@V?$CSimpleArrayEqualHelper@PAUHINSTANCE__@@@ATL@@@ATL@@QBEHXZ 0041a320 f i atlsd:atlbase.obj
 0001:00019340       ?Add@?$CSimpleArray@PAUHINSTANCE__@@V?$CSimpleArrayEqualHelper@PAUHINSTANCE__@@@ATL@@@ATL@@QAEHABQAUHINSTANCE__@@@Z 0041a340 f i atlsd:atlbase.obj
 0001:000193e0       ?RemoveAt@?$CSimpleArray@PAUHINSTANCE__@@V?$CSimpleArrayEqualHelper@PAUHINSTANCE__@@@ATL@@@ATL@@QAEHH@Z 0041a3e0 f i atlsd:atlbase.obj
 0001:00019490       ??A?$CSimpleArray@PAUHINSTANCE__@@V?$CSimpleArrayEqualHelper@PAUHINSTANCE__@@@ATL@@@ATL@@QAEAAPAUHINSTANCE__@@H@Z 0041a490 f i atlsd:atlbase.obj
 0001:00019500       ?RemoveAll@?$CSimpleArray@PAUHINSTANCE__@@V?$CSimpleArrayEqualHelper@PAUHINSTANCE__@@@ATL@@@ATL@@QAEXXZ 0041a500 f i atlsd:atlbase.obj
 0001:00019560       ?InternalSetAtIndex@?$CSimpleArray@PAUHINSTANCE__@@V?$CSimpleArrayEqualHelper@PAUHINSTANCE__@@@ATL@@@ATL@@QAEXHABQAUHINSTANCE__@@@Z 0041a560 f i atlsd:atlbase.obj
 0001:000195b0       ??0Wrapper@?$CSimpleArray@PAUHINSTANCE__@@V?$CSimpleArrayEqualHelper@PAUHINSTANCE__@@@ATL@@@ATL@@QAE@ABQAUHINSTANCE__@@@Z 0041a5b0 f i atlsd:atlbase.obj
 0001:000195d0       ??$?2PAUHINSTANCE__@@@Wrapper@?$CSimpleArray@PAUHINSTANCE__@@V?$CSimpleArrayEqualHelper@PAUHINSTANCE__@@@ATL@@@ATL@@SAPAXIPAPAUHINSTANCE__@@@Z 0041a5d0 f i atlsd:atlbase.obj
 0001:000195e0       ?Init@CAtlAllocator@@QAE_NPBDK@Z 0041a5e0 f   atlsd:Allocate.obj
 0001:00019920       ?Open@CAtlAllocator@@QAE_NPBD@Z 0041a920 f   atlsd:Allocate.obj
 0001:00019a50       ?Close@CAtlAllocator@@QAEX_N@Z 0041aa50 f   atlsd:Allocate.obj
 0001:00019ac0       ?GetModule@CAtlAllocator@@QBEPAVCAtlTraceModule@@H@Z 0041aac0 f   atlsd:Allocate.obj
 0001:00019b40       ?GetCategory@CAtlAllocator@@QBEPAVCAtlTraceCategory@@H@Z 0041ab40 f   atlsd:Allocate.obj
 0001:00019be0       ?GetCategoryCount@CAtlAllocator@@QBEHH@Z 0041abe0 f   atlsd:Allocate.obj
 0001:00019c50       ?GetCategoryCount@CAtlAllocator@@QBEHABVCAtlTraceModule@@@Z 0041ac50 f   atlsd:Allocate.obj
 0001:00019cb0       ?GetModuleCount@CAtlAllocator@@QBEHXZ 0041acb0 f   atlsd:Allocate.obj
 0001:00019cf0       ?FindModule@CAtlAllocator@@QBE_NPBGPAI@Z 0041acf0 f   atlsd:Allocate.obj
 0001:00019d60       ?AddModule@CAtlAllocator@@QAEHPAUHINSTANCE__@@@Z 0041ad60 f   atlsd:Allocate.obj
 0001:00019f20       ?AddCategory@CAtlAllocator@@QAEHHPBG@Z 0041af20 f   atlsd:Allocate.obj
 0001:0001a140       ?RemoveModule@CAtlAllocator@@QAE_NH@Z 0041b140 f   atlsd:Allocate.obj
 0001:0001a1e0       ?CleanUp@CAtlAllocator@@QAEXXZ 0041b1e0 f   atlsd:Allocate.obj
 0001:0001a200       ?TakeSnapshot@CAtlAllocator@@QAEXXZ 0041b200 f   atlsd:Allocate.obj
 0001:0001a3c0       ?ReleaseSnapshot@CAtlAllocator@@QAEXXZ 0041b3c0 f   atlsd:Allocate.obj
 0001:0001a490       ?IncRef@CAtlTraceProcess@@QAEIXZ 0041b490 f i atlsd:Allocate.obj
 0001:0001a4c0       ?Base@CAtlTraceProcess@@QBEPAXXZ 0041b4c0 f i atlsd:Allocate.obj
 0001:0001a4e0       ?DecRef@CAtlTraceProcess@@QAEIXZ 0041b4e0 f i atlsd:Allocate.obj
 0001:0001a510       ?ModuleCount@CAtlTraceProcess@@QBEHXZ 0041b510 f i atlsd:Allocate.obj
 0001:0001a530       ?MaxSize@CAtlTraceProcess@@QBEKXZ 0041b530 f i atlsd:Allocate.obj
 0001:0001a550       ?CategoryCount@CAtlTraceProcess@@QBEHXZ 0041b550 f i atlsd:Allocate.obj
 0001:0001a570       ?TryAllocate@CAtlTraceSettings@@QAE_NXZ 0041b570 f i atlsd:Allocate.obj
 0001:0001a5b0       ?MarkValid@CAtlTraceSettings@@QAEXJ@Z 0041b5b0 f i atlsd:Allocate.obj
 0001:0001a5f0       ?IncModuleCount@CAtlTraceProcess@@QAEXI@Z 0041b5f0 f i atlsd:Allocate.obj
 0001:0001a620       ?TryAddRef@CAtlTraceSettings@@QAE_NXZ 0041b620 f i atlsd:Allocate.obj
 0001:0001a660       ?Release@CAtlTraceSettings@@QAEXXZ 0041b660 f i atlsd:Allocate.obj
 0001:0001a690       ?IncCategoryCount@CAtlTraceProcess@@QAEXI@Z 0041b690 f i atlsd:Allocate.obj
 0001:0001a6c0       ?Add@?$CSimpleArray@UCModuleInfo@CTraceSnapshot@@V?$CSimpleArrayEqualHelper@UCModuleInfo@CTraceSnapshot@@@ATL@@@ATL@@QAEHABUCModuleInfo@CTraceSnapshot@@@Z 0041b6c0 f i atlsd:Allocate.obj
 0001:0001a760       ?GetSize@?$CSimpleArray@KV?$CSimpleArrayEqualHelper@K@ATL@@@ATL@@QBEHXZ 0041b760 f i atlsd:Allocate.obj
 0001:0001a780       ?Add@?$CSimpleArray@KV?$CSimpleArrayEqualHelper@K@ATL@@@ATL@@QAEHABK@Z 0041b780 f i atlsd:Allocate.obj
 0001:0001a820       ?RemoveAt@?$CSimpleArray@KV?$CSimpleArrayEqualHelper@K@ATL@@@ATL@@QAEHH@Z 0041b820 f i atlsd:Allocate.obj
 0001:0001a8d0       ??A?$CSimpleArray@KV?$CSimpleArrayEqualHelper@K@ATL@@@ATL@@QAEAAKH@Z 0041b8d0 f i atlsd:Allocate.obj
 0001:0001a940       ?InternalSetAtIndex@?$CSimpleArray@UCModuleInfo@CTraceSnapshot@@V?$CSimpleArrayEqualHelper@UCModuleInfo@CTraceSnapshot@@@ATL@@@ATL@@QAEXHABUCModuleInfo@CTraceSnapshot@@@Z 0041b940 f i atlsd:Allocate.obj
 0001:0001a990       ?InternalSetAtIndex@?$CSimpleArray@KV?$CSimpleArrayEqualHelper@K@ATL@@@ATL@@QAEXHABK@Z 0041b990 f i atlsd:Allocate.obj
 0001:0001a9e0       ??0Wrapper@?$CSimpleArray@UCModuleInfo@CTraceSnapshot@@V?$CSimpleArrayEqualHelper@UCModuleInfo@CTraceSnapshot@@@ATL@@@ATL@@QAE@ABUCModuleInfo@CTraceSnapshot@@@Z 0041b9e0 f i atlsd:Allocate.obj
 0001:0001aa10       ??0Wrapper@?$CSimpleArray@KV?$CSimpleArrayEqualHelper@K@ATL@@@ATL@@QAE@ABK@Z 0041ba10 f i atlsd:Allocate.obj
 0001:0001aa30       ??$?2UCModuleInfo@CTraceSnapshot@@@Wrapper@?$CSimpleArray@UCModuleInfo@CTraceSnapshot@@V?$CSimpleArrayEqualHelper@UCModuleInfo@CTraceSnapshot@@@ATL@@@ATL@@SAPAXIPAUCModuleInfo@CTraceSnapshot@@@Z 0041ba30 f i atlsd:Allocate.obj
 0001:0001aa40       ??$?2K@Wrapper@?$CSimpleArray@KV?$CSimpleArrayEqualHelper@K@ATL@@@ATL@@SAPAXIPAK@Z 0041ba40 f i atlsd:Allocate.obj
 0001:0001aa50       ??0CAtlTraceModuleInfo@@QAE@XZ 0041ba50 f   atlsd:AtlTraceModuleManager.obj
 0001:0001aaa0       ?Reset@CAtlTraceModuleInfo@@QAEXPAUHINSTANCE__@@@Z 0041baa0 f   atlsd:AtlTraceModuleManager.obj
 0001:0001acb0       ??0CAtlTraceCategory@@QAE@XZ 0041bcb0 f   atlsd:AtlTraceModuleManager.obj
 0001:0001ace0       ?Reset@CAtlTraceCategory@@QAEXPBGJ@Z 0041bce0 f   atlsd:AtlTraceModuleManager.obj
 0001:0001ad10       ??0CAtlTraceModule@@QAE@XZ 0041bd10 f   atlsd:AtlTraceModuleManager.obj
 0001:0001ad50       ?CrtDbgReport@CAtlTraceModule@@QAEXP6AHHPBDH00ZZ@Z 0041bd50 f   atlsd:AtlTraceModuleManager.obj
 0001:0001ad80       ??0CAtlTraceProcess@@QAE@K@Z 0041bd80 f   atlsd:AtlTraceModuleManager.obj
 0001:0001ae50       ?GetNextCookie@CAtlTraceProcess@@QAEJXZ 0041be50 f   atlsd:AtlTraceModuleManager.obj
 0001:0001ae70       ??0CAtlTraceSettings@@QAE@XZ 0041be70 f i atlsd:AtlTraceModuleManager.obj
 0001:0001aea6       ??2@YAPAXI@Z               0041bea6 f   mfc71d:MFC71D.DLL
 0001:0001aeb0       _WinMain@16                0041beb0 f   mfcs71d:appmodul.obj
 0001:0001aed0       ?AfxInitialize@@YGHHK@Z    0041bed0 f   mfcs71d:appmodul.obj
 0001:0001af30       ??0type_info@@AAE@ABV0@@Z  0041bf30 f   msvcrtd:ti_inst.obj
 0001:0001af50       ??_Etype_info@@UAEPAXI@Z   0041bf50 f i msvcrtd:ti_inst.obj
 0001:0001afc0       ??4type_info@@AAEAAV0@ABV0@@Z 0041bfc0 f   msvcrtd:ti_inst.obj
 0001:0001afd0       __snprintf                 0041bfd0 f   msvcrtd:MSVCR71D.dll
 0001:0001afd6       __CxxThrowException@8      0041bfd6 f   msvcrtd:MSVCR71D.dll
 0001:0001afdc       __vsnprintf                0041bfdc f   msvcrtd:MSVCR71D.dll
 0001:0001afe2       __vsnwprintf               0041bfe2 f   msvcrtd:MSVCR71D.dll
 0001:0001afe8       __snwprintf                0041bfe8 f   msvcrtd:MSVCR71D.dll
 0001:0001afee       _realloc                   0041bfee f   msvcrtd:MSVCR71D.dll
 0001:0001aff4       _memcmp                    0041bff4 f   msvcrtd:MSVCR71D.dll
 0001:0001affa       _wcscmp                    0041bffa f   msvcrtd:MSVCR71D.dll
 0001:0001b000       _wcslen                    0041c000 f   msvcrtd:MSVCR71D.dll
 0001:0001b006       _wcsncpy                   0041c006 f   msvcrtd:MSVCR71D.dll
 0001:0001b00c       _strdup                    0041c00c f   msvcrtd:MSVCR71D.dll
 0001:0001b00c       __strdup                   0041c00c f   msvcrtd:MSVCR71D.dll
 0001:0001b012       __itoa                     0041c012 f   msvcrtd:MSVCR71D.dll
 0001:0001b018       __setmbcp                  0041c018 f   msvcrtd:MSVCR71D.dll
 0001:0001b01e       ??1type_info@@UAE@XZ       0041c01e f   msvcrtd:MSVCR71D.dll
 0001:0001b024       _MulDiv@12                 0041c024 f   kernel32:KERNEL32.dll
 0001:0001b02a       _SetEvent@4                0041c02a f   kernel32:KERNEL32.dll
 0001:0001b030       _OpenEventA@12             0041c030 f   kernel32:KERNEL32.dll
 0001:0001b036       _lstrcpyA@8                0041c036 f   kernel32:KERNEL32.dll
 0001:0001b03c       _lstrcpyW@8                0041c03c f   kernel32:KERNEL32.dll
 0001:0001b042       _OutputDebugStringA@4      0041c042 f   kernel32:KERNEL32.dll
 0001:0001b048       _OutputDebugStringW@4      0041c048 f   kernel32:KERNEL32.dll
 0001:0001b04e       _lstrcpynW@12              0041c04e f   kernel32:KERNEL32.dll
 0001:0001b054       _InitializeCriticalSection@4 0041c054 f   kernel32:KERNEL32.dll
 0001:0001b05a       _LeaveCriticalSection@4    0041c05a f   kernel32:KERNEL32.dll
 0001:0001b060       _EnterCriticalSection@4    0041c060 f   kernel32:KERNEL32.dll
 0001:0001b066       _VirtualAlloc@16           0041c066 f   kernel32:KERNEL32.dll
 0001:0001b06c       _UnmapViewOfFile@4         0041c06c f   kernel32:KERNEL32.dll
 0001:0001b072       _IsBadReadPtr@8            0041c072 f   kernel32:KERNEL32.dll
 0001:0001b078       _GetSystemInfo@4           0041c078 f   kernel32:KERNEL32.dll
 0001:0001b07e       _MapViewOfFile@20          0041c07e f   kernel32:KERNEL32.dll
 0001:0001b084       _CreateFileMappingA@24     0041c084 f   kernel32:KERNEL32.dll
 0001:0001b08a       _GetCurrentThread@0        0041c08a f   kernel32:KERNEL32.dll
 0001:0001b090       _OpenFileMappingA@12       0041c090 f   kernel32:KERNEL32.dll
 0001:0001b096       _InterlockedIncrement@4    0041c096 f   kernel32:KERNEL32.dll
 0001:0001b09c       _InterlockedDecrement@4    0041c09c f   kernel32:KERNEL32.dll
 0001:0001b0a2       _GetModuleFileNameW@12     0041c0a2 f   kernel32:KERNEL32.dll
 0001:0001b0a8       _CopyRect@8                0041c0a8 f   user32:USER32.dll
 0001:0001b0ae       _IsRectEmpty@4             0041c0ae f   user32:USER32.dll
 0001:0001b0b4       _PtInRect@12               0041c0b4 f   user32:USER32.dll
 0001:0001b0ba       _SetRect@20                0041c0ba f   user32:USER32.dll
 0001:0001b0c0       _SetRectEmpty@4            0041c0c0 f   user32:USER32.dll
 0001:0001b0c6       _EqualRect@8               0041c0c6 f   user32:USER32.dll
 0001:0001b0cc       _InflateRect@12            0041c0cc f   user32:USER32.dll
 0001:0001b0d2       _OffsetRect@12             0041c0d2 f   user32:USER32.dll
 0001:0001b0d8       _IntersectRect@12          0041c0d8 f   user32:USER32.dll
 0001:0001b0de       _UnionRect@12              0041c0de f   user32:USER32.dll
 0001:0001b0e4       _SubtractRect@12           0041c0e4 f   user32:USER32.dll
 0001:0001b0ea       _DispatchMessageA@4        0041c0ea f   user32:USER32.dll
 0001:0001b0f0       _DispatchMessageW@4        0041c0f0 f   user32:USER32.dll
 0001:0001b0f6       _TranslateMessage@4        0041c0f6 f   user32:USER32.dll
 0001:0001b0fc       _GetMessageA@16            0041c0fc f   user32:USER32.dll
 0001:0001b102       _GetMessageW@16            0041c102 f   user32:USER32.dll
 0001:0001b108       _IsWindowUnicode@4         0041c108 f   user32:USER32.dll
 0001:0001b10e       _PeekMessageA@20           0041c10e f   user32:USER32.dll
 0001:0001b114       _MsgWaitForMultipleObjects@20 0041c114 f   user32:USER32.dll
 0001:0001b11a       _SetThreadToken@8          0041c11a f   advapi32:ADVAPI32.dll
 0001:0001b120       _RevertToSelf@0            0041c120 f   advapi32:ADVAPI32.dll
 0001:0001b126       _OpenThreadToken@16        0041c126 f   advapi32:ADVAPI32.dll
 0001:0001b12c       _CoReleaseMarshalData@4    0041c12c f   ole32:ole32.dll
 0001:0001b132       _CoMarshalInterface@24     0041c132 f   ole32:ole32.dll
 0001:0001b138       _CreateStreamOnHGlobal@12  0041c138 f   ole32:ole32.dll
 0001:0001b13e       _CoUnmarshalInterface@12   0041c13e f   ole32:ole32.dll
 0001:0001b144       _CoRevokeClassObject@4     0041c144 f   ole32:ole32.dll
 0001:0001b14a       _CoRegisterClassObject@20  0041c14a f   ole32:ole32.dll
 0001:0001b150       ?AfxWinMain@@YGHPAUHINSTANCE__@@0PADH@Z 0041c150 f   mfc71d:MFC71D.DLL
 0001:0001b156       ?AfxGetModuleState@@YGPAVAFX_MODULE_STATE@@XZ 0041c156 f   mfc71d:MFC71D.DLL
 0002:00000000       __imp__RegQueryValueExA@24 0041e000     advapi32:ADVAPI32.dll
 0002:00000004       __imp__RegCloseKey@4       0041e004     advapi32:ADVAPI32.dll
 0002:00000008       __imp__OpenThreadToken@16  0041e008     advapi32:ADVAPI32.dll
 0002:0000000c       __imp__RevertToSelf@0      0041e00c     advapi32:ADVAPI32.dll
 0002:00000010       __imp__SetThreadToken@8    0041e010     advapi32:ADVAPI32.dll
 0002:00000014       __imp__RegOpenKeyExA@20    0041e014     advapi32:ADVAPI32.dll
 0002:00000018       __imp__RegSetValueExA@24   0041e018     advapi32:ADVAPI32.dll
 0002:0000001c       __imp__RegCreateKeyExA@36  0041e01c     advapi32:ADVAPI32.dll
 0002:00000020       __imp__RegEnumValueA@32    0041e020     advapi32:ADVAPI32.dll
 0002:00000024       __imp__RegQueryInfoKeyA@48 0041e024     advapi32:ADVAPI32.dll
 0002:00000028       \177ADVAPI32_NULL_THUNK_DATA 0041e028     advapi32:ADVAPI32.dll
 0002:0000002c       __imp__GetStockObject@4    0041e02c     gdi32:GDI32.dll
 0002:00000030       \177GDI32_NULL_THUNK_DATA  0041e030     gdi32:GDI32.dll
 0002:00000034       __imp__IsBadReadPtr@8      0041e034     kernel32:KERNEL32.dll
 0002:00000038       __imp__UnmapViewOfFile@4   0041e038     kernel32:KERNEL32.dll
 0002:0000003c       __imp__VirtualAlloc@16     0041e03c     kernel32:KERNEL32.dll
 0002:00000040       __imp__EnterCriticalSection@4 0041e040     kernel32:KERNEL32.dll
 0002:00000044       __imp__LeaveCriticalSection@4 0041e044     kernel32:KERNEL32.dll
 0002:00000048       __imp__GetSystemInfo@4     0041e048     kernel32:KERNEL32.dll
 0002:0000004c       __imp__lstrcpynW@12        0041e04c     kernel32:KERNEL32.dll
 0002:00000050       __imp__OutputDebugStringW@4 0041e050     kernel32:KERNEL32.dll
 0002:00000054       __imp__OutputDebugStringA@4 0041e054     kernel32:KERNEL32.dll
 0002:00000058       __imp__lstrcpyW@8          0041e058     kernel32:KERNEL32.dll
 0002:0000005c       __imp__lstrcpyA@8          0041e05c     kernel32:KERNEL32.dll
 0002:00000060       __imp__OpenEventA@12       0041e060     kernel32:KERNEL32.dll
 0002:00000064       __imp__SetEvent@4          0041e064     kernel32:KERNEL32.dll
 0002:00000068       __imp__MulDiv@12           0041e068     kernel32:KERNEL32.dll
 0002:0000006c       __imp__GetACP@0            0041e06c     kernel32:KERNEL32.dll
 0002:00000070       __imp__MapViewOfFile@20    0041e070     kernel32:KERNEL32.dll
 0002:00000074       __imp__CreateFileMappingA@24 0041e074     kernel32:KERNEL32.dll
 0002:00000078       __imp__GetCurrentThread@0  0041e078     kernel32:KERNEL32.dll
 0002:0000007c       __imp__OpenFileMappingA@12 0041e07c     kernel32:KERNEL32.dll
 0002:00000080       __imp__InterlockedIncrement@4 0041e080     kernel32:KERNEL32.dll
 0002:00000084       __imp__InterlockedDecrement@4 0041e084     kernel32:KERNEL32.dll
 0002:00000088       __imp__GetModuleFileNameW@12 0041e088     kernel32:KERNEL32.dll
 0002:0000008c       __imp__GetLocaleInfoA@16   0041e08c     kernel32:KERNEL32.dll
 0002:00000090       __imp__InitializeCriticalSection@4 0041e090     kernel32:KERNEL32.dll
 0002:00000094       __imp__Sleep@4             0041e094     kernel32:KERNEL32.dll
 0002:00000098       __imp__InterlockedExchange@8 0041e098     kernel32:KERNEL32.dll
 0002:0000009c       __imp__GetVersionExA@4     0041e09c     kernel32:KERNEL32.dll
 0002:000000a0       __imp__FreeLibrary@4       0041e0a0     kernel32:KERNEL32.dll
 0002:000000a4       __imp__GetProcAddress@8    0041e0a4     kernel32:KERNEL32.dll
 0002:000000a8       __imp__LoadLibraryA@4      0041e0a8     kernel32:KERNEL32.dll
 0002:000000ac       __imp__Beep@8              0041e0ac     kernel32:KERNEL32.dll
 0002:000000b0       __imp__CreateMutexA@12     0041e0b0     kernel32:KERNEL32.dll
 0002:000000b4       __imp__OpenMutexA@12       0041e0b4     kernel32:KERNEL32.dll
 0002:000000b8       __imp__CloseHandle@4       0041e0b8     kernel32:KERNEL32.dll
 0002:000000bc       __imp__ReleaseMutex@4      0041e0bc     kernel32:KERNEL32.dll
 0002:000000c0       __imp__WaitForSingleObject@8 0041e0c0     kernel32:KERNEL32.dll
 0002:000000c4       __imp__GetLastError@0      0041e0c4     kernel32:KERNEL32.dll
 0002:000000c8       __imp__CreateProcessA@40   0041e0c8     kernel32:KERNEL32.dll
 0002:000000cc       __imp__GetExitCodeProcess@8 0041e0cc     kernel32:KERNEL32.dll
 0002:000000d0       __imp__GetCurrentDirectoryA@8 0041e0d0     kernel32:KERNEL32.dll
 0002:000000d4       __imp__GetWindowsDirectoryA@8 0041e0d4     kernel32:KERNEL32.dll
 0002:000000d8       __imp__GetEnvironmentVariableW@12 0041e0d8     kernel32:KERNEL32.dll
 0002:000000dc       __imp__GetVersion@0        0041e0dc     kernel32:KERNEL32.dll
 0002:000000e0       __imp__MultiByteToWideChar@24 0041e0e0     kernel32:KERNEL32.dll
 0002:000000e4       __imp__GetEnvironmentVariableA@12 0041e0e4     kernel32:KERNEL32.dll
 0002:000000e8       __imp__CompareStringW@24   0041e0e8     kernel32:KERNEL32.dll
 0002:000000ec       __imp__CompareStringA@24   0041e0ec     kernel32:KERNEL32.dll
 0002:000000f0       __imp__lstrlenW@4          0041e0f0     kernel32:KERNEL32.dll
 0002:000000f4       __imp__WideCharToMultiByte@32 0041e0f4     kernel32:KERNEL32.dll
 0002:000000f8       __imp__GetStringTypeExW@20 0041e0f8     kernel32:KERNEL32.dll
 0002:000000fc       __imp__GetStringTypeExA@20 0041e0fc     kernel32:KERNEL32.dll
 0002:00000100       __imp__lstrcmpiW@8         0041e100     kernel32:KERNEL32.dll
 0002:00000104       __imp__lstrcmpiA@8         0041e104     kernel32:KERNEL32.dll
 0002:00000108       __imp__lstrlenA@4          0041e108     kernel32:KERNEL32.dll
 0002:0000010c       __imp__DeleteCriticalSection@4 0041e10c     kernel32:KERNEL32.dll
 0002:00000110       __imp__RaiseException@16   0041e110     kernel32:KERNEL32.dll
 0002:00000114       __imp__MoveFileExA@12      0041e114     kernel32:KERNEL32.dll
 0002:00000118       __imp__FormatMessageA@28   0041e118     kernel32:KERNEL32.dll
 0002:0000011c       __imp__SetLastError@4      0041e11c     kernel32:KERNEL32.dll
 0002:00000120       __imp__FindClose@4         0041e120     kernel32:KERNEL32.dll
 0002:00000124       __imp__FindFirstFileA@8    0041e124     kernel32:KERNEL32.dll
 0002:00000128       __imp__GetFullPathNameA@16 0041e128     kernel32:KERNEL32.dll
 0002:0000012c       __imp__LoadLibraryExA@12   0041e12c     kernel32:KERNEL32.dll
 0002:00000130       __imp__ExitProcess@4       0041e130     kernel32:KERNEL32.dll
 0002:00000134       __imp__GetModuleHandleA@4  0041e134     kernel32:KERNEL32.dll
 0002:00000138       __imp__GetStartupInfoA@4   0041e138     kernel32:KERNEL32.dll
 0002:0000013c       __imp__QueryPerformanceCounter@4 0041e13c     kernel32:KERNEL32.dll
 0002:00000140       __imp__GetTickCount@0      0041e140     kernel32:KERNEL32.dll
 0002:00000144       __imp__GetCurrentThreadId@0 0041e144     kernel32:KERNEL32.dll
 0002:00000148       __imp__GetCurrentProcessId@0 0041e148     kernel32:KERNEL32.dll
 0002:0000014c       __imp__GetSystemTimeAsFileTime@4 0041e14c     kernel32:KERNEL32.dll
 0002:00000150       __imp__DebugBreak@0        0041e150     kernel32:KERNEL32.dll
 0002:00000154       __imp__HeapFree@12         0041e154     kernel32:KERNEL32.dll
 0002:00000158       __imp__HeapAlloc@12        0041e158     kernel32:KERNEL32.dll
 0002:0000015c       __imp__GetProcessHeap@0    0041e15c     kernel32:KERNEL32.dll
 0002:00000160       __imp__GetModuleFileNameA@12 0041e160     kernel32:KERNEL32.dll
 0002:00000164       __imp__GetCurrentProcess@0 0041e164     kernel32:KERNEL32.dll
 0002:00000168       __imp__GetThreadLocale@0   0041e168     kernel32:KERNEL32.dll
 0002:0000016c       \177KERNEL32_NULL_THUNK_DATA 0041e16c     kernel32:KERNEL32.dll
 0002:00000170       __imp_?CreateEx@CWnd@@UAEHKPBD0KABUtagRECT@@PAV1@IPAX@Z 0041e170     mfc71d:MFC71D.DLL
 0002:00000174       __imp_?Create@CWnd@@UAEHPBD0KABUtagRECT@@PAV1@IPAUCCreateContext@@@Z 0041e174     mfc71d:MFC71D.DLL
 0002:00000178       __imp_?PreSubclassWindow@CWnd@@UAEXXZ 0041e178     mfc71d:MFC71D.DLL
 0002:0000017c       __imp_?GetConnectionHook@CCmdTarget@@MAEPAUIConnectionPoint@@ABU_GUID@@@Z 0041e17c     mfc71d:MFC71D.DLL
 0002:00000180       __imp_?GetExtraConnectionPoints@CCmdTarget@@MAEHPAVCPtrArray@@@Z 0041e180     mfc71d:MFC71D.DLL
 0002:00000184       __imp_?GetInterfaceHook@CCmdTarget@@UAEPAUIUnknown@@PBX@Z 0041e184     mfc71d:MFC71D.DLL
 0002:00000188       __imp_?OnCreateAggregates@CCmdTarget@@UAEHXZ 0041e188     mfc71d:MFC71D.DLL
 0002:0000018c       __imp_?GetEventSinkMap@CCmdTarget@@MBEPBUAFX_EVENTSINKMAP@@XZ 0041e18c     mfc71d:MFC71D.DLL
 0002:00000190       __imp_?GetInterfaceMap@CWnd@@MBEPBUAFX_INTERFACEMAP@@XZ 0041e190     mfc71d:MFC71D.DLL
 0002:00000194       __imp_?GetConnectionMap@CCmdTarget@@MBEPBUAFX_CONNECTIONMAP@@XZ 0041e194     mfc71d:MFC71D.DLL
 0002:00000198       __imp_?GetDispatchMap@CCmdTarget@@MBEPBUAFX_DISPMAP@@XZ 0041e198     mfc71d:MFC71D.DLL
 0002:0000019c       __imp_?GetCommandMap@CCmdTarget@@MBEPBUAFX_OLECMDMAP@@XZ 0041e19c     mfc71d:MFC71D.DLL
 0002:000001a0       __imp_?GetTypeLib@CCmdTarget@@UAEJKPAPAUITypeLib@@@Z 0041e1a0     mfc71d:MFC71D.DLL
 0002:000001a4       __imp_?GetTypeLibCache@CCmdTarget@@UAEPAVCTypeLibCache@@XZ 0041e1a4     mfc71d:MFC71D.DLL
 0002:000001a8       __imp_?GetTypeInfoCount@CCmdTarget@@UAEIXZ 0041e1a8     mfc71d:MFC71D.DLL
 0002:000001ac       __imp_?GetDispatchIID@CCmdTarget@@UAEHPAU_GUID@@@Z 0041e1ac     mfc71d:MFC71D.DLL
 0002:000001b0       __imp_?IsInvokeAllowed@CCmdTarget@@UAEHJ@Z 0041e1b0     mfc71d:MFC71D.DLL
 0002:000001b4       __imp_?OnFinalRelease@CWnd@@UAEXXZ 0041e1b4     mfc71d:MFC71D.DLL
 0002:000001b8       __imp_?OnCmdMsg@CDialog@@UAEHIHPAXPAUAFX_CMDHANDLERINFO@@@Z 0041e1b8     mfc71d:MFC71D.DLL
 0002:000001bc       __imp_?Dump@CDialog@@UBEXAAVCDumpContext@@@Z 0041e1bc     mfc71d:MFC71D.DLL
 0002:000001c0       __imp_?AssertValid@CDialog@@UBEXXZ 0041e1c0     mfc71d:MFC71D.DLL
 0002:000001c4       __imp_?Serialize@CObject@@UAEXAAVCArchive@@@Z 0041e1c4     mfc71d:MFC71D.DLL
 0002:000001c8       __imp_?GetRuntimeClass@CDialog@@UBEPAUCRuntimeClass@@XZ 0041e1c8     mfc71d:MFC71D.DLL
 0002:000001cc       __imp_??1CDialog@@UAE@XZ   0041e1cc     mfc71d:MFC71D.DLL
 0002:000001d0       __imp_??0CDialog@@QAE@IPAVCWnd@@@Z 0041e1d0     mfc71d:MFC71D.DLL
 0002:000001d4       __imp_??3CObject@@SGXPAX@Z 0041e1d4     mfc71d:MFC71D.DLL
 0002:000001d8       __imp_??1CStatic@@UAE@XZ   0041e1d8     mfc71d:MFC71D.DLL
 0002:000001dc       __imp_??1?$CStringT@DV?$StrTraitMFC_DLL@DV?$ChTraitsCRT@D@ATL@@@@@ATL@@QAE@XZ 0041e1dc     mfc71d:MFC71D.DLL
 0002:000001e0       __imp_??1CFont@@UAE@XZ     0041e1e0     mfc71d:MFC71D.DLL
 0002:000001e4       __imp_?DoDataExchange@CWnd@@MAEXPAVCDataExchange@@@Z 0041e1e4     mfc71d:MFC71D.DLL
 0002:000001e8       __imp_?OnInitDialog@CDialog@@UAEHXZ 0041e1e8     mfc71d:MFC71D.DLL
 0002:000001ec       __imp_??B?$CSimpleStringT@D$00@ATL@@QBEPBDXZ 0041e1ec     mfc71d:MFC71D.DLL
 0002:000001f0       __imp_?Format@?$CStringT@DV?$StrTraitMFC_DLL@DV?$ChTraitsCRT@D@ATL@@@@@ATL@@QAAXPBDZZ 0041e1f0     mfc71d:MFC71D.DLL
 0002:000001f4       __imp_?GetDlgItem@CWnd@@QBEPAV1@H@Z 0041e1f4     mfc71d:MFC71D.DLL
 0002:000001f8       __imp_??0?$CStringT@DV?$StrTraitMFC_DLL@DV?$ChTraitsCRT@D@ATL@@@@@ATL@@QAE@XZ 0041e1f8     mfc71d:MFC71D.DLL
 0002:000001fc       __imp_??0?$CStringT@DV?$StrTraitMFC_DLL@DV?$ChTraitsCRT@D@ATL@@@@@ATL@@QAE@PBD@Z 0041e1fc     mfc71d:MFC71D.DLL
 0002:00000200       __imp_?SetWindowTextA@CWnd@@QAEXPBD@Z 0041e200     mfc71d:MFC71D.DLL
 0002:00000204       __imp_?SubclassDlgItem@CWnd@@QAEHIPAV1@@Z 0041e204     mfc71d:MFC71D.DLL
 0002:00000208       __imp_??3@YAXPAXPBDH@Z     0041e208     mfc71d:MFC71D.DLL
 0002:0000020c       __imp_??2@YAPAXIPBDH@Z     0041e20c     mfc71d:MFC71D.DLL
 0002:00000210       __imp_??3@YAXPAX@Z         0041e210     mfc71d:MFC71D.DLL
 0002:00000214       __imp_??3CObject@@SGXPAXPBDH@Z 0041e214     mfc71d:MFC71D.DLL
 0002:00000218       __imp_??2CObject@@SGPAXIPBDH@Z 0041e218     mfc71d:MFC71D.DLL
 0002:0000021c       __imp_?GetRuntimeClass@CObject@@UBEPAUCRuntimeClass@@XZ 0041e21c     mfc71d:MFC71D.DLL
 0002:00000220       __imp_??0CObject@@IAE@XZ   0041e220     mfc71d:MFC71D.DLL
 0002:00000224       __imp_?AfxThrowInvalidArgException@@YGXXZ 0041e224     mfc71d:MFC71D.DLL
 0002:00000228       __imp_?AfxAssertFailedLine@@YGHPBDH@Z 0041e228     mfc71d:MFC71D.DLL
 0002:0000022c       __imp_?AfxAssertValidObject@@YGXPBVCObject@@PBDH@Z 0041e22c     mfc71d:MFC71D.DLL
 0002:00000230       __imp_??1CObject@@UAE@XZ   0041e230     mfc71d:MFC71D.DLL
 0002:00000234       __imp_??_V@YAXPAX@Z        0041e234     mfc71d:MFC71D.DLL
 0002:00000238       __imp_?ReadCount@CArchive@@QAEKXZ 0041e238     mfc71d:MFC71D.DLL
 0002:0000023c       __imp_?WriteCount@CArchive@@QAEXK@Z 0041e23c     mfc71d:MFC71D.DLL
 0002:00000240       __imp_?IsStoring@CArchive@@QBEHXZ 0041e240     mfc71d:MFC71D.DLL
 0002:00000244       __imp_?GetDepth@CDumpContext@@QBEHXZ 0041e244     mfc71d:MFC71D.DLL
 0002:00000248       __imp_??6CDumpContext@@QAEAAV0@H@Z 0041e248     mfc71d:MFC71D.DLL
 0002:0000024c       __imp_??6CDumpContext@@QAEAAV0@PBD@Z 0041e24c     mfc71d:MFC71D.DLL
 0002:00000250       __imp_?Dump@CObject@@UBEXAAVCDumpContext@@@Z 0041e250     mfc71d:MFC71D.DLL
 0002:00000254       __imp_?AfxIsValidAddress@@YGHPBXIH@Z 0041e254     mfc71d:MFC71D.DLL
 0002:00000258       __imp_?AssertValid@CObject@@UBEXXZ 0041e258     mfc71d:MFC71D.DLL
 0002:0000025c       __imp_??_U@YAPAXI@Z        0041e25c     mfc71d:MFC71D.DLL
 0002:00000260       __imp_??_U@YAPAXIPBDH@Z    0041e260     mfc71d:MFC71D.DLL
 0002:00000264       __imp_?Read@CArchive@@QAEIPAXI@Z 0041e264     mfc71d:MFC71D.DLL
 0002:00000268       __imp_?Write@CArchive@@QAEXPBXI@Z 0041e268     mfc71d:MFC71D.DLL
 0002:0000026c       __imp_??1CEdit@@UAE@XZ     0041e26c     mfc71d:MFC71D.DLL
 0002:00000270       __imp_??1CSliderCtrl@@UAE@XZ 0041e270     mfc71d:MFC71D.DLL
 0002:00000274       __imp_??0CEdit@@QAE@XZ     0041e274     mfc71d:MFC71D.DLL
 0002:00000278       __imp_??0CSliderCtrl@@QAE@XZ 0041e278     mfc71d:MFC71D.DLL
 0002:0000027c       __imp_?DDX_Control@@YGXPAVCDataExchange@@HAAVCWnd@@@Z 0041e27c     mfc71d:MFC71D.DLL
 0002:00000280       __imp_?OnHScroll@CWnd@@IAEXIIPAVCScrollBar@@@Z 0041e280     mfc71d:MFC71D.DLL
 0002:00000284       __imp_?GetDlgCtrlID@CWnd@@QBEHXZ 0041e284     mfc71d:MFC71D.DLL
 0002:00000288       __imp_?SetTicFreq@CSliderCtrl@@QAEXH@Z 0041e288     mfc71d:MFC71D.DLL
 0002:0000028c       __imp_?SetPos@CSliderCtrl@@QAEXH@Z 0041e28c     mfc71d:MFC71D.DLL
 0002:00000290       __imp_?SetLimitText@CEdit@@QAEXI@Z 0041e290     mfc71d:MFC71D.DLL
 0002:00000294       __imp_?SetSel@CEdit@@QAEXHHH@Z 0041e294     mfc71d:MFC71D.DLL
 0002:00000298       __imp_?GetLength@?$CSimpleStringT@D$00@ATL@@QBEHXZ 0041e298     mfc71d:MFC71D.DLL
 0002:0000029c       __imp_?GetWindowTextA@CWnd@@QBEXAAV?$CStringT@DV?$StrTraitMFC_DLL@DV?$ChTraitsCRT@D@ATL@@@@@ATL@@@Z 0041e29c     mfc71d:MFC71D.DLL
 0002:000002a0       __imp_?GetThisMessageMap@CWnd@@KGPBUAFX_MSGMAP@@XZ 0041e2a0     mfc71d:MFC71D.DLL
 0002:000002a4       __imp_?DrawItem@CStatic@@UAEXPAUtagDRAWITEMSTRUCT@@@Z 0041e2a4     mfc71d:MFC71D.DLL
 0002:000002a8       __imp_?Create@CStatic@@UAEHPBDKABUtagRECT@@PAVCWnd@@I@Z 0041e2a8     mfc71d:MFC71D.DLL
 0002:000002ac       __imp_?SetOccDialogInfo@CWnd@@MAEHPAU_AFX_OCC_DIALOG_INFO@@@Z 0041e2ac     mfc71d:MFC71D.DLL
 0002:000002b0       __imp_?CheckAutoCenter@CWnd@@UAEHXZ 0041e2b0     mfc71d:MFC71D.DLL
 0002:000002b4       __imp_?OnChildNotify@CStatic@@MAEHIIJPAJ@Z 0041e2b4     mfc71d:MFC71D.DLL
 0002:000002b8       __imp_?PreTranslateMessage@CWnd@@UAEHPAUtagMSG@@@Z 0041e2b8     mfc71d:MFC71D.DLL
 0002:000002bc       __imp_?OnCmdMsg@CCmdTarget@@UAEHIHPAXPAUAFX_CMDHANDLERINFO@@@Z 0041e2bc     mfc71d:MFC71D.DLL
 0002:000002c0       __imp_?Dump@CWnd@@UBEXAAVCDumpContext@@@Z 0041e2c0     mfc71d:MFC71D.DLL
 0002:000002c4       __imp_?AssertValid@CWnd@@UBEXXZ 0041e2c4     mfc71d:MFC71D.DLL
 0002:000002c8       __imp_?GetRuntimeClass@CStatic@@UBEPAUCRuntimeClass@@XZ 0041e2c8     mfc71d:MFC71D.DLL
 0002:000002cc       __imp_??1CBrush@@UAE@XZ    0041e2cc     mfc71d:MFC71D.DLL
 0002:000002d0       __imp_??1CPen@@UAE@XZ      0041e2d0     mfc71d:MFC71D.DLL
 0002:000002d4       __imp_??0CBrush@@QAE@XZ    0041e2d4     mfc71d:MFC71D.DLL
 0002:000002d8       __imp_??0CPen@@QAE@XZ      0041e2d8     mfc71d:MFC71D.DLL
 0002:000002dc       __imp_??0CStatic@@QAE@XZ   0041e2dc     mfc71d:MFC71D.DLL
 0002:000002e0       __imp_??0CClientDC@@QAE@PAVCWnd@@@Z 0041e2e0     mfc71d:MFC71D.DLL
 0002:000002e4       __imp_??1CPaintDC@@UAE@XZ  0041e2e4     mfc71d:MFC71D.DLL
 0002:000002e8       __imp_??0CPaintDC@@QAE@PAVCWnd@@@Z 0041e2e8     mfc71d:MFC71D.DLL
 0002:000002ec       __imp_?OnTimer@CWnd@@IAEXI@Z 0041e2ec     mfc71d:MFC71D.DLL
 0002:000002f0       __imp_?GetClientRect@CWnd@@QBEXPAUtagRECT@@@Z 0041e2f0     mfc71d:MFC71D.DLL
 0002:000002f4       __imp_?KillTimer@CWnd@@QAEHI@Z 0041e2f4     mfc71d:MFC71D.DLL
 0002:000002f8       __imp_?SetTimer@CWnd@@QAEIIIP6GXPAUHWND__@@IIK@Z@Z 0041e2f8     mfc71d:MFC71D.DLL
 0002:000002fc       __imp_?SelectObject@CDC@@QAEPAVCBrush@@PAV2@@Z 0041e2fc     mfc71d:MFC71D.DLL
 0002:00000300       __imp_?SelectObject@CDC@@QAEPAVCPen@@PAV2@@Z 0041e300     mfc71d:MFC71D.DLL
 0002:00000304       __imp_?CreateSolidBrush@CBrush@@QAEHK@Z 0041e304     mfc71d:MFC71D.DLL
 0002:00000308       __imp_?CreatePen@CPen@@QAEHHHK@Z 0041e308     mfc71d:MFC71D.DLL
 0002:0000030c       __imp_?DeleteObject@CGdiObject@@QAEHXZ 0041e30c     mfc71d:MFC71D.DLL
 0002:00000310       __imp_?Ellipse@CDC@@QAEHHHHH@Z 0041e310     mfc71d:MFC71D.DLL
 0002:00000314       __imp_?CreateEx@CWnd@@UAEHKPBD0KHHHHPAUHWND__@@PAUHMENU__@@PAX@Z 0041e314     mfc71d:MFC71D.DLL
 0002:00000318       __imp_?MoveTo@CDC@@QAE?AVCPoint@@UtagPOINT@@@Z 0041e318     mfc71d:MFC71D.DLL
 0002:0000031c       __imp_?Ellipse@CDC@@QAEHPBUtagRECT@@@Z 0041e31c     mfc71d:MFC71D.DLL
 0002:00000320       __imp_?LineTo@CDC@@QAEHHH@Z 0041e320     mfc71d:MFC71D.DLL
 0002:00000324       __imp_?MoveTo@CDC@@QAE?AVCPoint@@HH@Z 0041e324     mfc71d:MFC71D.DLL
 0002:00000328       __imp_?FillRect@CDC@@QAEXPBUtagRECT@@PAVCBrush@@@Z 0041e328     mfc71d:MFC71D.DLL
 0002:0000032c       __imp_?EnableWindow@CWnd@@QAEHH@Z 0041e32c     mfc71d:MFC71D.DLL
 0002:00000330       __imp_?PostMessageA@CWnd@@QAEHIIJ@Z 0041e330     mfc71d:MFC71D.DLL
 0002:00000334       __imp_?GetParent@CWnd@@QBEPAV1@XZ 0041e334     mfc71d:MFC71D.DLL
 0002:00000338       __imp_?GetThisClass@CDialog@@SGPAUCRuntimeClass@@XZ 0041e338     mfc71d:MFC71D.DLL
 0002:0000033c       __imp_?GetCheck@CButton@@QBEHXZ 0041e33c     mfc71d:MFC71D.DLL
 0002:00000340       __imp_?GetCurSel@CListBox@@QBEHXZ 0041e340     mfc71d:MFC71D.DLL
 0002:00000344       __imp_?GetCurSel@CComboBox@@QBEHXZ 0041e344     mfc71d:MFC71D.DLL
 0002:00000348       __imp_?SetCheck@CButton@@QAEXH@Z 0041e348     mfc71d:MFC71D.DLL
 0002:0000034c       __imp_?SetCurSel@CListBox@@QAEHH@Z 0041e34c     mfc71d:MFC71D.DLL
 0002:00000350       __imp_?SetCurSel@CComboBox@@QAEHH@Z 0041e350     mfc71d:MFC71D.DLL
 0002:00000354       __imp_?GetCount@CListBox@@QBEHXZ 0041e354     mfc71d:MFC71D.DLL
 0002:00000358       __imp_?GetCount@CComboBox@@QBEHXZ 0041e358     mfc71d:MFC71D.DLL
 0002:0000035c       __imp_?AfxGetApp@@YGPAVCWinApp@@XZ 0041e35c     mfc71d:MFC71D.DLL
 0002:00000360       __imp_?RedrawWindow@CWnd@@QAEHPBUtagRECT@@PAVCRgn@@I@Z 0041e360     mfc71d:MFC71D.DLL
 0002:00000364       __imp_?LineScroll@CEdit@@QAEXHH@Z 0041e364     mfc71d:MFC71D.DLL
 0002:00000368       __imp_?GetLineCount@CEdit@@QBEHXZ 0041e368     mfc71d:MFC71D.DLL
 0002:0000036c       __imp_?GetText@CListBox@@QBEXHAAV?$CStringT@DV?$StrTraitMFC_DLL@DV?$ChTraitsCRT@D@ATL@@@@@ATL@@@Z 0041e36c     mfc71d:MFC71D.DLL
 0002:00000370       __imp_??4?$CStringT@DV?$StrTraitMFC_DLL@DV?$ChTraitsCRT@D@ATL@@@@@ATL@@QAEAAV01@PBD@Z 0041e370     mfc71d:MFC71D.DLL
 0002:00000374       __imp_?MoveWindow@CWnd@@QAEXPBUtagRECT@@H@Z 0041e374     mfc71d:MFC71D.DLL
 0002:00000378       __imp_?GetWindowRect@CWnd@@QBEXPAUtagRECT@@@Z 0041e378     mfc71d:MFC71D.DLL
 0002:0000037c       __imp_?OnShowWindow@CWnd@@IAEXHI@Z 0041e37c     mfc71d:MFC71D.DLL
 0002:00000380       __imp_??0?$CStringT@DV?$StrTraitMFC_DLL@DV?$ChTraitsCRT@D@ATL@@@@@ATL@@QAE@ABV01@@Z 0041e380     mfc71d:MFC71D.DLL
 0002:00000384       __imp_?Concatenate@?$CSimpleStringT@D$00@ATL@@KAXAAV12@PBDH1H@Z 0041e384     mfc71d:MFC71D.DLL
 0002:00000388       __imp_??0?$CStringT@DV?$StrTraitMFC_DLL@DV?$ChTraitsCRT@D@ATL@@@@@ATL@@QAE@PAUIAtlStringMgr@1@@Z 0041e388     mfc71d:MFC71D.DLL
 0002:0000038c       __imp_?GetManager@?$CSimpleStringT@D$00@ATL@@QBEPAUIAtlStringMgr@2@XZ 0041e38c     mfc71d:MFC71D.DLL
 0002:00000390       __imp_?OnHelp@CWinApp@@IAEXXZ 0041e390     mfc71d:MFC71D.DLL
 0002:00000394       __imp_?GetThisMessageMap@CWinApp@@KGPBUAFX_MSGMAP@@XZ 0041e394     mfc71d:MFC71D.DLL
 0002:00000398       __imp_?LoadSysPolicies@CWinApp@@UAEHXZ 0041e398     mfc71d:MFC71D.DLL
 0002:0000039c       __imp_?LoadAppLangResourceDLL@CWinApp@@UAEPAUHINSTANCE__@@XZ 0041e39c     mfc71d:MFC71D.DLL
 0002:000003a0       __imp_?WinHelpInternal@CWinApp@@UAEXKI@Z 0041e3a0     mfc71d:MFC71D.DLL
 0002:000003a4       __imp_?HtmlHelpA@CWinApp@@UAEXKI@Z 0041e3a4     mfc71d:MFC71D.DLL
 0002:000003a8       __imp_?WinHelpA@CWinApp@@UAEXKI@Z 0041e3a8     mfc71d:MFC71D.DLL
 0002:000003ac       __imp_?OnDDECommand@CWinApp@@UAEHPAD@Z 0041e3ac     mfc71d:MFC71D.DLL
 0002:000003b0       __imp_?DoWaitCursor@CWinApp@@UAEXH@Z 0041e3b0     mfc71d:MFC71D.DLL
 0002:000003b4       __imp_?DoMessageBox@CWinApp@@UAEHPBDII@Z 0041e3b4     mfc71d:MFC71D.DLL
 0002:000003b8       __imp_?SaveAllModified@CWinApp@@UAEHXZ 0041e3b8     mfc71d:MFC71D.DLL
 0002:000003bc       __imp_?InitApplication@CWinApp@@UAEHXZ 0041e3bc     mfc71d:MFC71D.DLL
 0002:000003c0       __imp_?AddToRecentFileList@CWinApp@@UAEXPBD@Z 0041e3c0     mfc71d:MFC71D.DLL
 0002:000003c4       __imp_?OpenDocumentFile@CWinApp@@UAEPAVCDocument@@PBD@Z 0041e3c4     mfc71d:MFC71D.DLL
 0002:000003c8       __imp_?Unregister@CWinApp@@UAEHXZ 0041e3c8     mfc71d:MFC71D.DLL
 0002:000003cc       __imp_?Register@CWinApp@@UAEHXZ 0041e3cc     mfc71d:MFC71D.DLL
 0002:000003d0       __imp_?InitLibId@CWinApp@@UAEXXZ 0041e3d0     mfc71d:MFC71D.DLL
 0002:000003d4       __imp_?Delete@CWinThread@@UAEXXZ 0041e3d4     mfc71d:MFC71D.DLL
 0002:000003d8       __imp_?GetMainWnd@CWinThread@@UAEPAVCWnd@@XZ 0041e3d8     mfc71d:MFC71D.DLL
 0002:000003dc       __imp_?ProcessMessageFilter@CWinThread@@UAEHHPAUtagMSG@@@Z 0041e3dc     mfc71d:MFC71D.DLL
 0002:000003e0       __imp_?ProcessWndProcException@CWinApp@@UAEJPAVCException@@PBUtagMSG@@@Z 0041e3e0     mfc71d:MFC71D.DLL
 0002:000003e4       __imp_?ExitInstance@CWinApp@@UAEHXZ 0041e3e4     mfc71d:MFC71D.DLL
 0002:000003e8       __imp_?IsIdleMessage@CWinThread@@UAEHPAUtagMSG@@@Z 0041e3e8     mfc71d:MFC71D.DLL
 0002:000003ec       __imp_?OnIdle@CWinApp@@UAEHJ@Z 0041e3ec     mfc71d:MFC71D.DLL
 0002:000003f0       __imp_?PumpMessage@CWinThread@@UAEHXZ 0041e3f0     mfc71d:MFC71D.DLL
 0002:000003f4       __imp_?PreTranslateMessage@CWinThread@@UAEHPAUtagMSG@@@Z 0041e3f4     mfc71d:MFC71D.DLL
 0002:000003f8       __imp_?Run@CWinApp@@UAEHXZ 0041e3f8     mfc71d:MFC71D.DLL
 0002:000003fc       __imp_?GetInterfaceMap@CCmdTarget@@MBEPBUAFX_INTERFACEMAP@@XZ 0041e3fc     mfc71d:MFC71D.DLL
 0002:00000400       __imp_?OnFinalRelease@CCmdTarget@@UAEXXZ 0041e400     mfc71d:MFC71D.DLL
 0002:00000404       __imp_?Dump@CWinApp@@UBEXAAVCDumpContext@@@Z 0041e404     mfc71d:MFC71D.DLL
 0002:00000408       __imp_?AssertValid@CWinApp@@UBEXXZ 0041e408     mfc71d:MFC71D.DLL
 0002:0000040c       __imp_?GetRuntimeClass@CWinApp@@UBEPAUCRuntimeClass@@XZ 0041e40c     mfc71d:MFC71D.DLL
 0002:00000410       __imp_??0CWinApp@@QAE@PBD@Z 0041e410     mfc71d:MFC71D.DLL
 0002:00000414       __imp_??1CWinApp@@UAE@XZ   0041e414     mfc71d:MFC71D.DLL
 0002:00000418       __imp_??1CProgressCtrl@@UAE@XZ 0041e418     mfc71d:MFC71D.DLL
 0002:0000041c       __imp_?LoadIconA@CWinApp@@QBEPAUHICON__@@I@Z 0041e41c     mfc71d:MFC71D.DLL
 0002:00000420       __imp_??0CProgressCtrl@@QAE@XZ 0041e420     mfc71d:MFC71D.DLL
 0002:00000424       __imp_?DDX_Check@@YGXPAVCDataExchange@@HAAH@Z 0041e424     mfc71d:MFC71D.DLL
 0002:00000428       __imp_?SendMessageA@CWnd@@QAEJIIJ@Z 0041e428     mfc71d:MFC71D.DLL
 0002:0000042c       __imp_?SetBkColor@CProgressCtrl@@QAEKK@Z 0041e42c     mfc71d:MFC71D.DLL
 0002:00000430       __imp_?SetRange@CProgressCtrl@@QAEXFF@Z 0041e430     mfc71d:MFC71D.DLL
 0002:00000434       __imp_?LoadMenuA@CMenu@@QAEHI@Z 0041e434     mfc71d:MFC71D.DLL
 0002:00000438       __imp_??0CMenu@@QAE@XZ     0041e438     mfc71d:MFC71D.DLL
 0002:0000043c       __imp_?ModifyStyleEx@CWnd@@QAEHKKI@Z 0041e43c     mfc71d:MFC71D.DLL
 0002:00000440       __imp_?EnableToolTips@CWnd@@QAEHH@Z 0041e440     mfc71d:MFC71D.DLL
 0002:00000444       __imp_?SetIcon@CWnd@@QAEPAUHICON__@@PAU2@H@Z 0041e444     mfc71d:MFC71D.DLL
 0002:00000448       __imp_?OnDestroy@CWnd@@IAEXXZ 0041e448     mfc71d:MFC71D.DLL
 0002:0000044c       __imp_?OnPaint@CDialog@@IAEXXZ 0041e44c     mfc71d:MFC71D.DLL
 0002:00000450       __imp_?DrawIcon@CDC@@QAEHHHPAUHICON__@@@Z 0041e450     mfc71d:MFC71D.DLL
 0002:00000454       __imp_?GetSafeHdc@CDC@@QBEPAUHDC__@@XZ 0041e454     mfc71d:MFC71D.DLL
 0002:00000458       __imp_?IsIconic@CWnd@@QBEHXZ 0041e458     mfc71d:MFC71D.DLL
 0002:0000045c       __imp_?AfxGetModuleState@@YGPAVAFX_MODULE_STATE@@XZ 0041e45c     mfc71d:MFC71D.DLL
 0002:00000460       __imp_?ShowWindow@CWnd@@QAEHH@Z 0041e460     mfc71d:MFC71D.DLL
 0002:00000464       __imp_?InsertString@CListBox@@QAEHHPBD@Z 0041e464     mfc71d:MFC71D.DLL
 0002:00000468       __imp_?SetDlgItemTextA@CWnd@@QAEXHPBD@Z 0041e468     mfc71d:MFC71D.DLL
 0002:0000046c       __imp_?GetWindowPlacement@CWnd@@QBEHPAUtagWINDOWPLACEMENT@@@Z 0041e46c     mfc71d:MFC71D.DLL
 0002:00000470       __imp_?GetSubMenu@CMenu@@QBEPAV1@H@Z 0041e470     mfc71d:MFC71D.DLL
 0002:00000474       __imp_??1CMenu@@UAE@XZ     0041e474     mfc71d:MFC71D.DLL
 0002:00000478       __imp_?OnWindowPosChanging@CWnd@@IAEXPAUtagWINDOWPOS@@@Z 0041e478     mfc71d:MFC71D.DLL
 0002:0000047c       __imp_??4?$CStringT@DV?$StrTraitMFC_DLL@DV?$ChTraitsCRT@D@ATL@@@@@ATL@@QAEAAV01@ABV01@@Z 0041e47c     mfc71d:MFC71D.DLL
 0002:00000480       __imp_?IsWindowEnabled@CWnd@@QBEHXZ 0041e480     mfc71d:MFC71D.DLL
 0002:00000484       __imp_?AfxGetResourceHandle@@YGPAUHINSTANCE__@@XZ 0041e484     mfc71d:MFC71D.DLL
 0002:00000488       __imp_?InsertString@CComboBox@@QAEHHPBD@Z 0041e488     mfc71d:MFC71D.DLL
 0002:0000048c       __imp_?ResetContent@CListBox@@QAEXXZ 0041e48c     mfc71d:MFC71D.DLL
 0002:00000490       __imp_?OnSetCursor@CWnd@@IAEHPAV1@II@Z 0041e490     mfc71d:MFC71D.DLL
 0002:00000494       __imp_?MessageBoxA@CWnd@@QAEHPBD0I@Z 0041e494     mfc71d:MFC71D.DLL
 0002:00000498       __imp_?GetStyle@CWnd@@QBEKXZ 0041e498     mfc71d:MFC71D.DLL
 0002:0000049c       __imp_?Detach@CMenu@@QAEPAUHMENU__@@XZ 0041e49c     mfc71d:MFC71D.DLL
 0002:000004a0       __imp_?SetMenu@CWnd@@QAEHPAVCMenu@@@Z 0041e4a0     mfc71d:MFC71D.DLL
 0002:000004a4       __imp_?InsertMenuA@CMenu@@QAEHIIIPBD@Z 0041e4a4     mfc71d:MFC71D.DLL
 0002:000004a8       __imp_?GetSafeHmenu@CMenu@@QBEPAUHMENU__@@XZ 0041e4a8     mfc71d:MFC71D.DLL
 0002:000004ac       __imp_?AppendMenuA@CMenu@@QAEHIIPBD@Z 0041e4ac     mfc71d:MFC71D.DLL
 0002:000004b0       __imp_?CreatePopupMenu@CMenu@@QAEHXZ 0041e4b0     mfc71d:MFC71D.DLL
 0002:000004b4       __imp_?Find@?$CStringT@DV?$StrTraitMFC_DLL@DV?$ChTraitsCRT@D@ATL@@@@@ATL@@QBEHPBDH@Z 0041e4b4     mfc71d:MFC71D.DLL
 0002:000004b8       __imp_?GetMenuStringA@CMenu@@QBEHIAAV?$CStringT@DV?$StrTraitMFC_DLL@DV?$ChTraitsCRT@D@ATL@@@@@ATL@@I@Z 0041e4b8     mfc71d:MFC71D.DLL
 0002:000004bc       __imp_?CheckMenuItem@CMenu@@QAEIII@Z 0041e4bc     mfc71d:MFC71D.DLL
 0002:000004c0       __imp_?GetMenuState@CMenu@@QBEIII@Z 0041e4c0     mfc71d:MFC71D.DLL
 0002:000004c4       __imp_?Attach@CMenu@@QAEHPAUHMENU__@@@Z 0041e4c4     mfc71d:MFC71D.DLL
 0002:000004c8       __imp_?SetWindowPos@CWnd@@QAEHPBV1@HHHHI@Z 0041e4c8     mfc71d:MFC71D.DLL
 0002:000004cc       __imp_?wndTopMost@CWnd@@2V1@B 0041e4cc     mfc71d:MFC71D.DLL
 0002:000004d0       __imp_?SetPos@CProgressCtrl@@QAEHH@Z 0041e4d0     mfc71d:MFC71D.DLL
 0002:000004d4       __imp_?EnableMenuItem@CMenu@@QAEIII@Z 0041e4d4     mfc71d:MFC71D.DLL
 0002:000004d8       __imp_??BCMenu@@QBEPAUHMENU__@@XZ 0041e4d8     mfc71d:MFC71D.DLL
 0002:000004dc       __imp_?OnSysCommand@CWnd@@IAEXIJ@Z 0041e4dc     mfc71d:MFC71D.DLL
 0002:000004e0       __imp_?MoveWindow@CWnd@@QAEXHHHHH@Z 0041e4e0     mfc71d:MFC71D.DLL
 0002:000004e4       __imp_?GetThisClass@CStatic@@SGPAUCRuntimeClass@@XZ 0041e4e4     mfc71d:MFC71D.DLL
 0002:000004e8       __imp_??0CFont@@QAE@XZ     0041e4e8     mfc71d:MFC71D.DLL
 0002:000004ec       __imp_?SetBkMode@CDC@@QAEHH@Z 0041e4ec     mfc71d:MFC71D.DLL
 0002:000004f0       __imp_?CreateFontIndirectA@CFont@@QAEHPBUtagLOGFONTA@@@Z 0041e4f0     mfc71d:MFC71D.DLL
 0002:000004f4       __imp_?GetObjectA@CGdiObject@@QBEHHPAX@Z 0041e4f4     mfc71d:MFC71D.DLL
 0002:000004f8       __imp_?GetFont@CWnd@@QBEPAVCFont@@XZ 0041e4f8     mfc71d:MFC71D.DLL
 0002:000004fc       __imp_??BCFont@@QBEPAUHFONT__@@XZ 0041e4fc     mfc71d:MFC71D.DLL
 0002:00000500       __imp_?Invalidate@CWnd@@QAEXH@Z 0041e500     mfc71d:MFC71D.DLL
 0002:00000504       __imp_?IsEmpty@?$CSimpleStringT@D$00@ATL@@QBE_NXZ 0041e504     mfc71d:MFC71D.DLL
 0002:00000508       __imp_??Y?$CStringT@DV?$StrTraitMFC_DLL@DV?$ChTraitsCRT@D@ATL@@@@@ATL@@QAEAAV01@PBD@Z 0041e508     mfc71d:MFC71D.DLL
 0002:0000050c       __imp_?ReleaseBuffer@?$CSimpleStringT@D$00@ATL@@QAEXH@Z 0041e50c     mfc71d:MFC71D.DLL
 0002:00000510       __imp_?GetBuffer@?$CSimpleStringT@D$00@ATL@@QAEPADH@Z 0041e510     mfc71d:MFC71D.DLL
 0002:00000514       __imp_?AfxThrowOleException@@YGXJ@Z 0041e514     mfc71d:MFC71D.DLL
 0002:00000518       __imp_?AfxThrowMemoryException@@YGXXZ 0041e518     mfc71d:MFC71D.DLL
 0002:0000051c       __imp_?SetFocus@CWnd@@QAEPAV1@XZ 0041e51c     mfc71d:MFC71D.DLL
 0002:00000520       __imp_?GetWindowTextA@CWnd@@QBEHPADH@Z 0041e520     mfc71d:MFC71D.DLL
 0002:00000524       __imp_?OnNcDestroy@CWnd@@IAEXXZ 0041e524     mfc71d:MFC71D.DLL
 0002:00000528       __imp_?put_accValue@CWnd@@UAEJUtagVARIANT@@PA_W@Z 0041e528     mfc71d:MFC71D.DLL
 0002:0000052c       __imp_?put_accName@CWnd@@UAEJUtagVARIANT@@PA_W@Z 0041e52c     mfc71d:MFC71D.DLL
 0002:00000530       __imp_?get_accDefaultAction@CWnd@@UAEJUtagVARIANT@@PAPA_W@Z 0041e530     mfc71d:MFC71D.DLL
 0002:00000534       __imp_?get_accKeyboardShortcut@CWnd@@UAEJUtagVARIANT@@PAPA_W@Z 0041e534     mfc71d:MFC71D.DLL
 0002:00000538       __imp_?get_accHelpTopic@CWnd@@UAEJPAPA_WUtagVARIANT@@PAJ@Z 0041e538     mfc71d:MFC71D.DLL
 0002:0000053c       __imp_?get_accHelp@CWnd@@UAEJUtagVARIANT@@PAPA_W@Z 0041e53c     mfc71d:MFC71D.DLL
 0002:00000540       __imp_?get_accDescription@CWnd@@UAEJUtagVARIANT@@PAPA_W@Z 0041e540     mfc71d:MFC71D.DLL
 0002:00000544       __imp_?get_accValue@CWnd@@UAEJUtagVARIANT@@PAPA_W@Z 0041e544     mfc71d:MFC71D.DLL
 0002:00000548       __imp_?get_accName@CWnd@@UAEJUtagVARIANT@@PAPA_W@Z 0041e548     mfc71d:MFC71D.DLL
 0002:0000054c       __imp_?DestroyWindow@CWnd@@UAEHXZ 0041e54c     mfc71d:MFC71D.DLL
 0002:00000550       __imp_?PreCreateWindow@CWnd@@UAEHAAUtagCREATESTRUCTA@@@Z 0041e550     mfc71d:MFC71D.DLL
 0002:00000554       __imp_?CalcWindowRect@CWnd@@UAEXPAUtagRECT@@I@Z 0041e554     mfc71d:MFC71D.DLL
 0002:00000558       __imp_?OnToolHitTest@CWnd@@UBEHVCPoint@@PAUtagTOOLINFOA@@@Z 0041e558     mfc71d:MFC71D.DLL
 0002:0000055c       __imp_?GetScrollBarCtrl@CWnd@@UBEPAVCScrollBar@@H@Z 0041e55c     mfc71d:MFC71D.DLL
 0002:00000560       __imp_?WinHelpA@CWnd@@UAEXKI@Z 0041e560     mfc71d:MFC71D.DLL
 0002:00000564       __imp_?HtmlHelpA@CWnd@@UAEXKI@Z 0041e564     mfc71d:MFC71D.DLL
 0002:00000568       __imp_?WinHelpInternal@CWnd@@UAEXKI@Z 0041e568     mfc71d:MFC71D.DLL
 0002:0000056c       __imp_?ContinueModal@CWnd@@UAEHXZ 0041e56c     mfc71d:MFC71D.DLL
 0002:00000570       __imp_?EndModalLoop@CWnd@@UAEXH@Z 0041e570     mfc71d:MFC71D.DLL
 0002:00000574       __imp_?EnsureStdObj@CWnd@@UAEJXZ 0041e574     mfc71d:MFC71D.DLL
 0002:00000578       __imp_?get_accParent@CWnd@@UAEJPAPAUIDispatch@@@Z 0041e578     mfc71d:MFC71D.DLL
 0002:0000057c       __imp_?get_accChildCount@CWnd@@UAEJPAJ@Z 0041e57c     mfc71d:MFC71D.DLL
 0002:00000580       __imp_?get_accChild@CWnd@@UAEJUtagVARIANT@@PAPAUIDispatch@@@Z 0041e580     mfc71d:MFC71D.DLL
 0002:00000584       __imp_?get_accRole@CWnd@@UAEJUtagVARIANT@@PAU2@@Z 0041e584     mfc71d:MFC71D.DLL
 0002:00000588       __imp_?get_accState@CWnd@@UAEJUtagVARIANT@@PAU2@@Z 0041e588     mfc71d:MFC71D.DLL
 0002:0000058c       __imp_?get_accFocus@CWnd@@UAEJPAUtagVARIANT@@@Z 0041e58c     mfc71d:MFC71D.DLL
 0002:00000590       __imp_?get_accSelection@CWnd@@UAEJPAUtagVARIANT@@@Z 0041e590     mfc71d:MFC71D.DLL
 0002:00000594       __imp_?accSelect@CWnd@@UAEJJUtagVARIANT@@@Z 0041e594     mfc71d:MFC71D.DLL
 0002:00000598       __imp_?accLocation@CWnd@@UAEJPAJ000UtagVARIANT@@@Z 0041e598     mfc71d:MFC71D.DLL
 0002:0000059c       __imp_?accNavigate@CWnd@@UAEJJUtagVARIANT@@PAU2@@Z 0041e59c     mfc71d:MFC71D.DLL
 0002:000005a0       __imp_?accHitTest@CWnd@@UAEJJJPAUtagVARIANT@@@Z 0041e5a0     mfc71d:MFC71D.DLL
 0002:000005a4       __imp_?accDoDefaultAction@CWnd@@UAEJUtagVARIANT@@@Z 0041e5a4     mfc71d:MFC71D.DLL
 0002:000005a8       __imp_?SetProxy@CWnd@@UAEJPAUIAccessibleProxy@@@Z 0041e5a8     mfc71d:MFC71D.DLL
 0002:000005ac       __imp_?CreateAccessibleProxy@CWnd@@UAEJIJPAJ@Z 0041e5ac     mfc71d:MFC71D.DLL
 0002:000005b0       __imp_?OnCommand@CWnd@@MAEHIJ@Z 0041e5b0     mfc71d:MFC71D.DLL
 0002:000005b4       __imp_?OnNotify@CWnd@@MAEHIJPAJ@Z 0041e5b4     mfc71d:MFC71D.DLL
 0002:000005b8       __imp_?GetSuperWndProcAddr@CWnd@@MAEPAP6GJPAUHWND__@@IIJ@ZXZ 0041e5b8     mfc71d:MFC71D.DLL
 0002:000005bc       __imp_?BeginModalState@CWnd@@UAEXXZ 0041e5bc     mfc71d:MFC71D.DLL
 0002:000005c0       __imp_?EndModalState@CWnd@@UAEXXZ 0041e5c0     mfc71d:MFC71D.DLL
 0002:000005c4       __imp_?PreTranslateMessage@CDialog@@UAEHPAUtagMSG@@@Z 0041e5c4     mfc71d:MFC71D.DLL
 0002:000005c8       __imp_?OnAmbientProperty@CWnd@@UAEHPAVCOleControlSite@@JPAUtagVARIANT@@@Z 0041e5c8     mfc71d:MFC71D.DLL
 0002:000005cc       __imp_?WindowProc@CWnd@@MAEJIIJ@Z 0041e5cc     mfc71d:MFC71D.DLL
 0002:000005d0       __imp_?OnWndMsg@CWnd@@MAEHIIJPAJ@Z 0041e5d0     mfc71d:MFC71D.DLL
 0002:000005d4       __imp_?DefWindowProcA@CWnd@@MAEJIIJ@Z 0041e5d4     mfc71d:MFC71D.DLL
 0002:000005d8       __imp_?PostNcDestroy@CWnd@@MAEXXZ 0041e5d8     mfc71d:MFC71D.DLL
 0002:000005dc       __imp_?OnChildNotify@CWnd@@MAEHIIJPAJ@Z 0041e5dc     mfc71d:MFC71D.DLL
 0002:000005e0       __imp_?CheckAutoCenter@CDialog@@UAEHXZ 0041e5e0     mfc71d:MFC71D.DLL
 0002:000005e4       __imp_?IsFrameWnd@CWnd@@UBEHXZ 0041e5e4     mfc71d:MFC71D.DLL
 0002:000005e8       __imp_?CreateControlContainer@CWnd@@MAEHPAPAVCOleControlContainer@@@Z 0041e5e8     mfc71d:MFC71D.DLL
 0002:000005ec       __imp_?CreateControlSite@CWnd@@MAEHPAVCOleControlContainer@@PAPAVCOleControlSite@@IABU_GUID@@@Z 0041e5ec     mfc71d:MFC71D.DLL
 0002:000005f0       __imp_?SetOccDialogInfo@CDialog@@MAEHPAU_AFX_OCC_DIALOG_INFO@@@Z 0041e5f0     mfc71d:MFC71D.DLL
 0002:000005f4       __imp_?Create@CDialog@@UAEHIPAVCWnd@@@Z 0041e5f4     mfc71d:MFC71D.DLL
 0002:000005f8       __imp_?Create@CDialog@@UAEHPBDPAVCWnd@@@Z 0041e5f8     mfc71d:MFC71D.DLL
 0002:000005fc       __imp_?CreateIndirect@CDialog@@UAEHPAXPAVCWnd@@@Z 0041e5fc     mfc71d:MFC71D.DLL
 0002:00000600       __imp_?CreateIndirect@CDialog@@UAEHPBUDLGTEMPLATE@@PAVCWnd@@PAX@Z 0041e600     mfc71d:MFC71D.DLL
 0002:00000604       __imp_?DoModal@CDialog@@UAEHXZ 0041e604     mfc71d:MFC71D.DLL
 0002:00000608       __imp_?OnSetFont@CDialog@@UAEXPAVCFont@@@Z 0041e608     mfc71d:MFC71D.DLL
 0002:0000060c       __imp_?OnOK@CDialog@@MAEXXZ 0041e60c     mfc71d:MFC71D.DLL
 0002:00000610       __imp_?OnCancel@CDialog@@MAEXXZ 0041e610     mfc71d:MFC71D.DLL
 0002:00000614       __imp_?PreInitDialog@CDialog@@MAEXXZ 0041e614     mfc71d:MFC71D.DLL
 0002:00000618       __imp_?GetThisMessageMap@CDialog@@KGPBUAFX_MSGMAP@@XZ 0041e618     mfc71d:MFC71D.DLL
 0002:0000061c       __imp_??2@YAPAXI@Z         0041e61c     mfc71d:MFC71D.DLL
 0002:00000620       __imp_?AfxWinMain@@YGHPAUHINSTANCE__@@0PADH@Z 0041e620     mfc71d:MFC71D.DLL
 0002:00000624       __imp_?Arc@CDC@@QAEHPBUtagRECT@@UtagPOINT@@1@Z 0041e624     mfc71d:MFC71D.DLL
 0002:00000628       __imp_?Compare@?$CStringT@DV?$StrTraitMFC_DLL@DV?$ChTraitsCRT@D@ATL@@@@@ATL@@QBEHPBD@Z 0041e628     mfc71d:MFC71D.DLL
 0002:0000062c       \177MFC71D_NULL_THUNK_DATA 0041e62c     mfc71d:MFC71D.DLL
 0002:00000630       __imp___controlfp          0041e630     msvcrtd:MSVCR71D.dll
 0002:00000634       __imp___CRT_RTC_INIT       0041e634     msvcrtd:MSVCR71D.dll
 0002:00000638       __imp____set_app_type      0041e638     msvcrtd:MSVCR71D.dll
 0002:0000063c       __imp____p__fmode          0041e63c     msvcrtd:MSVCR71D.dll
 0002:00000640       __imp____p__commode        0041e640     msvcrtd:MSVCR71D.dll
 0002:00000644       __imp___adjust_fdiv        0041e644     msvcrtd:MSVCR71D.dll
 0002:00000648       __imp____setusermatherr    0041e648     msvcrtd:MSVCR71D.dll
 0002:0000064c       __imp___initterm           0041e64c     msvcrtd:MSVCR71D.dll
 0002:00000650       __imp____getmainargs       0041e650     msvcrtd:MSVCR71D.dll
 0002:00000654       __imp___amsg_exit          0041e654     msvcrtd:MSVCR71D.dll
 0002:00000658       __imp___acmdln             0041e658     msvcrtd:MSVCR71D.dll
 0002:0000065c       __imp___ismbblead          0041e65c     msvcrtd:MSVCR71D.dll
 0002:00000660       __imp__exit                0041e660     msvcrtd:MSVCR71D.dll
 0002:00000664       __imp___cexit              0041e664     msvcrtd:MSVCR71D.dll
 0002:00000668       __imp___XcptFilter         0041e668     msvcrtd:MSVCR71D.dll
 0002:0000066c       __imp___exit               0041e66c     msvcrtd:MSVCR71D.dll
 0002:00000670       __imp___c_exit             0041e670     msvcrtd:MSVCR71D.dll
 0002:00000674       __imp___onexit             0041e674     msvcrtd:MSVCR71D.dll
 0002:00000678       __imp____dllonexit         0041e678     msvcrtd:MSVCR71D.dll
 0002:0000067c       __imp_?terminate@@YAXXZ    0041e67c     msvcrtd:MSVCR71D.dll
 0002:00000680       __imp____security_error_handler 0041e680     msvcrtd:MSVCR71D.dll
 0002:00000684       __imp___mbscmp             0041e684     msvcrtd:MSVCR71D.dll
 0002:00000688       __imp__strcat              0041e688     msvcrtd:MSVCR71D.dll
 0002:0000068c       __imp___mbsnbcpy           0041e68c     msvcrtd:MSVCR71D.dll
 0002:00000690       __imp__free                0041e690     msvcrtd:MSVCR71D.dll
 0002:00000694       __imp__malloc              0041e694     msvcrtd:MSVCR71D.dll
 0002:00000698       __imp__wcscpy              0041e698     msvcrtd:MSVCR71D.dll
 0002:0000069c       __imp___except_handler3    0041e69c     msvcrtd:MSVCR71D.dll
 0002:000006a0       __imp___resetstkoflw       0041e6a0     msvcrtd:MSVCR71D.dll
 0002:000006a4       __imp___CrtDbgReport       0041e6a4     msvcrtd:MSVCR71D.dll
 0002:000006a8       __imp__fclose              0041e6a8     msvcrtd:MSVCR71D.dll
 0002:000006ac       __imp__fopen               0041e6ac     msvcrtd:MSVCR71D.dll
 0002:000006b0       __imp__time                0041e6b0     msvcrtd:MSVCR71D.dll
 0002:000006b4       __imp__asctime             0041e6b4     msvcrtd:MSVCR71D.dll
 0002:000006b8       __imp__fflush              0041e6b8     msvcrtd:MSVCR71D.dll
 0002:000006bc       __imp__strlen              0041e6bc     msvcrtd:MSVCR71D.dll
 0002:000006c0       __imp___ftime              0041e6c0     msvcrtd:MSVCR71D.dll
 0002:000006c4       __imp__localtime           0041e6c4     msvcrtd:MSVCR71D.dll
 0002:000006c8       __imp__fprintf             0041e6c8     msvcrtd:MSVCR71D.dll
 0002:000006cc       __imp__sprintf             0041e6cc     msvcrtd:MSVCR71D.dll
 0002:000006d0       __imp__strcpy              0041e6d0     msvcrtd:MSVCR71D.dll
 0002:000006d4       __imp__sscanf              0041e6d4     msvcrtd:MSVCR71D.dll
 0002:000006d8       __imp__memset              0041e6d8     msvcrtd:MSVCR71D.dll
 0002:000006dc       __imp__memcpy              0041e6dc     msvcrtd:MSVCR71D.dll
 0002:000006e0       __imp__memmove             0041e6e0     msvcrtd:MSVCR71D.dll
 0002:000006e4       __imp__strstr              0041e6e4     msvcrtd:MSVCR71D.dll
 0002:000006e8       __imp__strcmp              0041e6e8     msvcrtd:MSVCR71D.dll
 0002:000006ec       __imp__ceil                0041e6ec     msvcrtd:MSVCR71D.dll
 0002:000006f0       __imp____CxxFrameHandler   0041e6f0     msvcrtd:MSVCR71D.dll
 0002:000006f4       __imp___setmbcp            0041e6f4     msvcrtd:MSVCR71D.dll
 0002:000006f8       __imp___itoa               0041e6f8     msvcrtd:MSVCR71D.dll
 0002:000006f8       __imp__itoa                0041e6f8     msvcrtd:MSVCR71D.dll
 0002:000006fc       __imp___strdup             0041e6fc     msvcrtd:MSVCR71D.dll
 0002:000006fc       __imp__strdup              0041e6fc     msvcrtd:MSVCR71D.dll
 0002:00000700       __imp__wcsncpy             0041e700     msvcrtd:MSVCR71D.dll
 0002:00000704       __imp_??1type_info@@UAE@XZ 0041e704     msvcrtd:MSVCR71D.dll
 0002:00000708       __imp__wcslen              0041e708     msvcrtd:MSVCR71D.dll
 0002:0000070c       __imp__wcscmp              0041e70c     msvcrtd:MSVCR71D.dll
 0002:00000710       __imp__memcmp              0041e710     msvcrtd:MSVCR71D.dll
 0002:00000714       __imp__realloc             0041e714     msvcrtd:MSVCR71D.dll
 0002:00000718       __imp___snwprintf          0041e718     msvcrtd:MSVCR71D.dll
 0002:0000071c       __imp___vsnwprintf         0041e71c     msvcrtd:MSVCR71D.dll
 0002:00000720       __imp___vsnprintf          0041e720     msvcrtd:MSVCR71D.dll
 0002:00000724       __imp___CxxThrowException@8 0041e724     msvcrtd:MSVCR71D.dll
 0002:00000728       __imp___snprintf           0041e728     msvcrtd:MSVCR71D.dll
 0002:0000072c       \177MSVCR71D_NULL_THUNK_DATA 0041e72c     msvcrtd:MSVCR71D.dll
 0002:00000730       __imp__SysFreeString@4     0041e730     oleaut32:OLEAUT32.dll
 0002:00000734       \177OLEAUT32_NULL_THUNK_DATA 0041e734     oleaut32:OLEAUT32.dll
 0002:00000738       __imp__Shell_NotifyIconA@8 0041e738     shell32:SHELL32.dll
 0002:0000073c       __imp__ShellExecuteA@24    0041e73c     shell32:SHELL32.dll
 0002:00000740       \177SHELL32_NULL_THUNK_DATA 0041e740     shell32:SHELL32.dll
 0002:00000744       __imp__SetCursor@4         0041e744     user32:USER32.dll
 0002:00000748       __imp__CharLowerW@4        0041e748     user32:USER32.dll
 0002:0000074c       __imp__CharLowerA@4        0041e74c     user32:USER32.dll
 0002:00000750       __imp__CharUpperW@4        0041e750     user32:USER32.dll
 0002:00000754       __imp__CharUpperA@4        0041e754     user32:USER32.dll
 0002:00000758       __imp__UnregisterClassA@8  0041e758     user32:USER32.dll
 0002:0000075c       __imp__PtInRect@12         0041e75c     user32:USER32.dll
 0002:00000760       __imp__SetRect@20          0041e760     user32:USER32.dll
 0002:00000764       __imp__LoadCursorA@8       0041e764     user32:USER32.dll
 0002:00000768       __imp__MsgWaitForMultipleObjects@20 0041e768     user32:USER32.dll
 0002:0000076c       __imp__PeekMessageA@20     0041e76c     user32:USER32.dll
 0002:00000770       __imp__EqualRect@8         0041e770     user32:USER32.dll
 0002:00000774       __imp__IsWindowUnicode@4   0041e774     user32:USER32.dll
 0002:00000778       __imp__GetMessageW@16      0041e778     user32:USER32.dll
 0002:0000077c       __imp__GetMessageA@16      0041e77c     user32:USER32.dll
 0002:00000780       __imp__TranslateMessage@4  0041e780     user32:USER32.dll
 0002:00000784       __imp__DispatchMessageW@4  0041e784     user32:USER32.dll
 0002:00000788       __imp__DispatchMessageA@4  0041e788     user32:USER32.dll
 0002:0000078c       __imp__SubtractRect@12     0041e78c     user32:USER32.dll
 0002:00000790       __imp__CopyIcon@4          0041e790     user32:USER32.dll
 0002:00000794       __imp__SetWindowLongA@12   0041e794     user32:USER32.dll
 0002:00000798       __imp__MessageBeep@4       0041e798     user32:USER32.dll
 0002:0000079c       __imp__SetRectEmpty@4      0041e79c     user32:USER32.dll
 0002:000007a0       __imp__IsWindow@4          0041e7a0     user32:USER32.dll
 0002:000007a4       __imp__UnionRect@12        0041e7a4     user32:USER32.dll
 0002:000007a8       __imp__GetWindowInfo@8     0041e7a8     user32:USER32.dll
 0002:000007ac       __imp__SystemParametersInfoA@16 0041e7ac     user32:USER32.dll
 0002:000007b0       __imp__GetDlgCtrlID@4      0041e7b0     user32:USER32.dll
 0002:000007b4       __imp__SetMenuDefaultItem@12 0041e7b4     user32:USER32.dll
 0002:000007b8       __imp__EnableMenuItem@12   0041e7b8     user32:USER32.dll
 0002:000007bc       __imp__GetCursorPos@4      0041e7bc     user32:USER32.dll
 0002:000007c0       __imp__SetForegroundWindow@4 0041e7c0     user32:USER32.dll
 0002:000007c4       __imp__TrackPopupMenu@28   0041e7c4     user32:USER32.dll
 0002:000007c8       __imp__DestroyIcon@4       0041e7c8     user32:USER32.dll
 0002:000007cc       __imp__RegisterWindowMessageA@4 0041e7cc     user32:USER32.dll
 0002:000007d0       __imp__MessageBoxA@16      0041e7d0     user32:USER32.dll
 0002:000007d4       __imp__PostMessageA@16     0041e7d4     user32:USER32.dll
 0002:000007d8       __imp__IsRectEmpty@4       0041e7d8     user32:USER32.dll
 0002:000007dc       __imp__GetSystemMetrics@4  0041e7dc     user32:USER32.dll
 0002:000007e0       __imp__IntersectRect@12    0041e7e0     user32:USER32.dll
 0002:000007e4       __imp__OffsetRect@12       0041e7e4     user32:USER32.dll
 0002:000007e8       __imp__InflateRect@12      0041e7e8     user32:USER32.dll
 0002:000007ec       __imp__CopyRect@8          0041e7ec     user32:USER32.dll
 0002:000007f0       \177USER32_NULL_THUNK_DATA 0041e7f0     user32:USER32.dll
 0002:000007f4       __imp__mixerGetLineInfoA@12 0041e7f4     winmm:WINMM.dll
 0002:000007f8       __imp__mixerGetControlDetailsA@12 0041e7f8     winmm:WINMM.dll
 0002:000007fc       __imp__mixerSetControlDetails@12 0041e7fc     winmm:WINMM.dll
 0002:00000800       __imp__waveInGetNumDevs@0  0041e800     winmm:WINMM.dll
 0002:00000804       __imp__mixerGetLineControlsA@12 0041e804     winmm:WINMM.dll
 0002:00000808       __imp__mixerGetNumDevs@0   0041e808     winmm:WINMM.dll
 0002:0000080c       __imp__waveInClose@4       0041e80c     winmm:WINMM.dll
 0002:00000810       __imp__mixerGetID@12       0041e810     winmm:WINMM.dll
 0002:00000814       __imp__waveInOpen@24       0041e814     winmm:WINMM.dll
 0002:00000818       __imp__mixerGetDevCapsA@12 0041e818     winmm:WINMM.dll
 0002:0000081c       __imp__mixerOpen@20        0041e81c     winmm:WINMM.dll
 0002:00000820       \177WINMM_NULL_THUNK_DATA  0041e820     winmm:WINMM.dll
 0002:00000824       __imp__SppAudioHdrLoggerStop@0 0041e824     Wave2Joystick:Wave2Joystick.dll
 0002:00000828       __imp__SppAudioHdrLoggerStart@4 0041e828     Wave2Joystick:Wave2Joystick.dll
 0002:0000082c       __imp__SppAudioHdrLoggerGetStat@4 0041e82c     Wave2Joystick:Wave2Joystick.dll
 0002:00000830       __imp__SppPulseLoggerStop@0 0041e830     Wave2Joystick:Wave2Joystick.dll
 0002:00000834       __imp__SppPulseLoggerStart@4 0041e834     Wave2Joystick:Wave2Joystick.dll
 0002:00000838       __imp__SppPulseLoggerGetStat@4 0041e838     Wave2Joystick:Wave2Joystick.dll
 0002:0000083c       __imp__SppRawPulseLoggerStop@0 0041e83c     Wave2Joystick:Wave2Joystick.dll
 0002:00000840       __imp__SppRawPulseLoggerStart@4 0041e840     Wave2Joystick:Wave2Joystick.dll
 0002:00000844       __imp__SppRawPulseLoggerGetStat@4 0041e844     Wave2Joystick:Wave2Joystick.dll
 0002:00000848       __imp__SppStart@0          0041e848     Wave2Joystick:Wave2Joystick.dll
 0002:0000084c       __imp__SetFilterInterface@4 0041e84c     Wave2Joystick:Wave2Joystick.dll
 0002:00000850       __imp__SppSetActiveAudioDevice@4 0041e850     Wave2Joystick:Wave2Joystick.dll
 0002:00000854       __imp__GetWave2JoystickObject@0 0041e854     Wave2Joystick:Wave2Joystick.dll
 0002:00000858       __imp__SppSetModulation@4  0041e858     Wave2Joystick:Wave2Joystick.dll
 0002:0000085c       __imp__SppSetShift@4       0041e85c     Wave2Joystick:Wave2Joystick.dll
 0002:00000860       __imp__StopInterfaces@0    0041e860     Wave2Joystick:Wave2Joystick.dll
 0002:00000864       __imp__StopPPJoyInterface@4 0041e864     Wave2Joystick:Wave2Joystick.dll
 0002:00000868       __imp__StartPPJoyInterface@4 0041e868     Wave2Joystick:Wave2Joystick.dll
 0002:0000086c       __imp__SppGetFilteredPos@4 0041e86c     Wave2Joystick:Wave2Joystick.dll
 0002:00000870       __imp__SppGetAudioLevel@4  0041e870     Wave2Joystick:Wave2Joystick.dll
 0002:00000874       __imp__TestPPJoyInterface@4 0041e874     Wave2Joystick:Wave2Joystick.dll
 0002:00000878       __imp__SppSetAntiJitter@4  0041e878     Wave2Joystick:Wave2Joystick.dll
 0002:0000087c       __imp__SppWaveLoggerGetStat@4 0041e87c     Wave2Joystick:Wave2Joystick.dll
 0002:00000880       __imp__SppWaveLoggerStart@4 0041e880     Wave2Joystick:Wave2Joystick.dll
 0002:00000884       __imp__SppWaveLoggerPlay@4 0041e884     Wave2Joystick:Wave2Joystick.dll
 0002:00000888       __imp__SppWaveLoggerStop@0 0041e888     Wave2Joystick:Wave2Joystick.dll
 0002:0000088c       \177Wave2Joystick_NULL_THUNK_DATA 0041e88c     Wave2Joystick:Wave2Joystick.dll
 0002:00000890       __imp__GetOpenFileNameA@4  0041e890     comdlg32:comdlg32.dll
 0002:00000894       __imp__GetSaveFileNameA@4  0041e894     comdlg32:comdlg32.dll
 0002:00000898       \177comdlg32_NULL_THUNK_DATA 0041e898     comdlg32:comdlg32.dll
 0002:0000089c       __imp__CoMarshalInterface@24 0041e89c     ole32:ole32.dll
 0002:000008a0       __imp__CoRevokeClassObject@4 0041e8a0     ole32:ole32.dll
 0002:000008a4       __imp__CoRegisterClassObject@20 0041e8a4     ole32:ole32.dll
 0002:000008a8       __imp__CoReleaseMarshalData@4 0041e8a8     ole32:ole32.dll
 0002:000008ac       __imp__CoUnmarshalInterface@12 0041e8ac     ole32:ole32.dll
 0002:000008b0       __imp__CreateStreamOnHGlobal@12 0041e8b0     ole32:ole32.dll
 0002:000008b4       \177ole32_NULL_THUNK_DATA  0041e8b4     ole32:ole32.dll
 0002:00000acc       ?messageMap@CAboutDlg@@1UAFX_MSGMAP@@B 0041eacc     AboutDlg.obj
 0002:00000ad4       ?_messageEntries@CAboutDlg@@0QBUAFX_MSGMAP_ENTRY@@B 0041ead4     AboutDlg.obj
 0002:00000af0       ??_7CAboutDlg@@6B@         0041eaf0     AboutDlg.obj
 0002:00002af0       __real@4059000000000000    00420af0     AudioInput.obj
 0002:00002af8       ??_7CAudioInput@@6B@       00420af8     AudioInput.obj
 0002:00002afc       ??_7CMixerDevice@CAudioInput@@6B@ 00420afc     AudioInput.obj
 0002:00002b00       ??_7CInputLine@CMixerDevice@CAudioInput@@6B@ 00420b00     AudioInput.obj
 0002:00002b04       ??_7CPhysicalDevice@CMixerDevice@CAudioInput@@6B@ 00420b04     AudioInput.obj
 0002:00002b08       ??_7?$CArray@PAVCInputLine@CMixerDevice@CAudioInput@@PAV123@@@6B@ 00420b08     AudioInput.obj
 0002:00002b20       ??_C@_0FB@ICGCDCIL@C?3?2Program?5Files?2Microsoft?5Visua@ 00420b20     AudioInput.obj
 0002:00002b74       ??_7?$CArray@PAVCPhysicalDevice@CMixerDevice@CAudioInput@@PAV123@@@6B@ 00420b74     AudioInput.obj
 0002:00002b88       ??_7?$CArray@PAVCMixerDevice@CAudioInput@@PAV12@@@6B@ 00420b88     AudioInput.obj
 0002:00002b9c       ??_7?$CArray@UsMuteLine@CInputLine@CMixerDevice@CAudioInput@@U1234@@@6B@ 00420b9c     AudioInput.obj
 0002:00003d8c       ?messageMap@CDefVolumeDlg@@1UAFX_MSGMAP@@B 00421d8c     DefVolumeDlg.obj
 0002:00003d98       ?_messageEntries@CDefVolumeDlg@@0QBUAFX_MSGMAP_ENTRY@@B 00421d98     DefVolumeDlg.obj
 0002:00003e28       ??_7CDefVolumeDlg@@6B@     00421e28     DefVolumeDlg.obj
 0002:00003f88       ?messageMap@CDynamicLED@@1UAFX_MSGMAP@@B 00421f88     DynamicLED.obj
 0002:00003f90       ?_messageEntries@CDynamicLED@@0QBUAFX_MSGMAP_ENTRY@@B 00421f90     DynamicLED.obj
 0002:00003fd8       ??_7CDynamicLED@@6B@       00421fd8     DynamicLED.obj
 0002:00004150       ??_7CLogAudioHdrs@@6B@     00422150     LogAudioHdrs.obj
 0002:00004318       ??_7CLogFmsConn@@6B@       00422318     LogFmsConn.obj
 0002:000044d0       ??_7CLogPulse@@6B@         004224d0     LogPulses.obj
 0002:00004698       ??_7CLogRawPulse@@6B@      00422698     LogRawPulse.obj
 0002:00005a4c       ?messageMap@CScanInputs@@1UAFX_MSGMAP@@B 00423a4c     ScanInputs.obj
 0002:00005a58       ?_messageEntries@CScanInputs@@0QBUAFX_MSGMAP_ENTRY@@B 00423a58     ScanInputs.obj
 0002:00005ad0       ?classCScanInputs@CScanInputs@@2UCRuntimeClass@@B 00423ad0     ScanInputs.obj
 0002:00005af0       ??_7CScanInputs@@6B@       00423af0     ScanInputs.obj
 0002:00006e24       ?messageMap@CSppConsoleApp@@1UAFX_MSGMAP@@B 00424e24     SppConsole.obj
 0002:00006e30       ?_messageEntries@CSppConsoleApp@@0QBUAFX_MSGMAP_ENTRY@@B 00424e30     SppConsole.obj
 0002:00006e78       ??_7CSppConsoleApp@@6B@    00424e78     SppConsole.obj
 0002:00008bdc       ?messageMap@CSppConsoleDlg@@1UAFX_MSGMAP@@B 00426bdc     SppConsoleDlg.obj
 0002:00008be8       ?_messageEntries@CSppConsoleDlg@@0QBUAFX_MSGMAP_ENTRY@@B 00426be8     SppConsoleDlg.obj
 0002:000090b0       ??_7CSppConsoleDlg@@6B@    004270b0     SppConsoleDlg.obj
 0002:00009210       ??_C@_0FC@FINOHAED@C?3?2Program?5Files?2Microsoft?5Visua@ 00427210     SppConsoleDlg.obj
 0002:000092d0       ?messageMap@CStaticLink@@1UAFX_MSGMAP@@B 004272d0     StatLink.obj
 0002:000092d8       ?_messageEntries@CStaticLink@@0QBUAFX_MSGMAP_ENTRY@@B 004272d8     StatLink.obj
 0002:00009338       ?classCStaticLink@CStaticLink@@2UCRuntimeClass@@B 00427338     StatLink.obj
 0002:00009358       ??_7CStaticLink@@6B@       00427358     StatLink.obj
 0002:00009600       ?cbNeverDelete@CRegParser@ATL@@1HB 00427600     StdAfx.obj
 0002:00009604       ?rgszNeverDelete@CRegParser@ATL@@1QBQBDB 00427604     StdAfx.obj
 0002:00009634       ?MAX_TYPE@CRegParser@ATL@@1HB 00427634     StdAfx.obj
 0002:00009638       ?MAX_VALUE@CRegParser@ATL@@1HB 00427638     StdAfx.obj
 0002:0000963c       _CLSID_StdGlobalInterfaceTable 0042763c     StdAfx.obj
 0002:0000964c       _IID_IAxWinAmbientDispatchEx 0042764c     StdAfx.obj
 0002:0000965c       _IID_IAxWinHostWindowLic   0042765c     StdAfx.obj
 0002:0000966c       _IID_IDocHostUIHandlerDispatch 0042766c     StdAfx.obj
 0002:0000967c       _IID_IInternalConnection   0042767c     StdAfx.obj
 0002:0000968c       _IID_IAxWinAmbientDispatch 0042768c     StdAfx.obj
 0002:0000969c       _IID_IAxWinHostWindow      0042769c     StdAfx.obj
 0002:000096ac       _IID_IRegistrar            004276ac     StdAfx.obj
 0002:000096bc       _CLSID_Registrar           004276bc     StdAfx.obj
 0002:000096cc       _LIBID_ATLLib              004276cc     StdAfx.obj
 0002:000096dc       ?pmField@?$CVarTypeInfo@PATtagCY@@@ATL@@2QQtagVARIANT@@PATtagCY@@Q3@ 004276dc     StdAfx.obj
 0002:000096e0       ?VT@?$CVarTypeInfo@PATtagCY@@@ATL@@2GB 004276e0     StdAfx.obj
 0002:000096e4       ?pmField@?$CVarTypeInfo@TtagCY@@@ATL@@2QQtagVARIANT@@TtagCY@@Q3@ 004276e4     StdAfx.obj
 0002:000096e8       ?VT@?$CVarTypeInfo@TtagCY@@@ATL@@2GB 004276e8     StdAfx.obj
 0002:000096ec       ?pmField@?$CVarTypeInfo@PAPAUIDispatch@@@ATL@@2QQtagVARIANT@@PAPAUIDispatch@@Q3@ 004276ec     StdAfx.obj
 0002:000096f0       ?VT@?$CVarTypeInfo@PAPAUIDispatch@@@ATL@@2GB 004276f0     StdAfx.obj
 0002:000096f4       ?pmField@?$CVarTypeInfo@PAUIDispatch@@@ATL@@2QQtagVARIANT@@PAUIDispatch@@Q3@ 004276f4     StdAfx.obj
 0002:000096f8       ?VT@?$CVarTypeInfo@PAUIDispatch@@@ATL@@2GB 004276f8     StdAfx.obj
 0002:000096fc       ?pmField@?$CVarTypeInfo@PAPAUIUnknown@@@ATL@@2QQtagVARIANT@@PAPAUIUnknown@@Q3@ 004276fc     StdAfx.obj
 0002:00009700       ?VT@?$CVarTypeInfo@PAPAUIUnknown@@@ATL@@2GB 00427700     StdAfx.obj
 0002:00009704       ?pmField@?$CVarTypeInfo@PAUIUnknown@@@ATL@@2QQtagVARIANT@@PAUIUnknown@@Q3@ 00427704     StdAfx.obj
 0002:00009708       ?VT@?$CVarTypeInfo@PAUIUnknown@@@ATL@@2GB 00427708     StdAfx.obj
 0002:0000970c       ?pmField@?$CVarTypeInfo@PAPAG@ATL@@2QQtagVARIANT@@PAPAGQ3@ 0042770c     StdAfx.obj
 0002:00009710       ?VT@?$CVarTypeInfo@PAPAG@ATL@@2GB 00427710     StdAfx.obj
 0002:00009714       ?pmField@?$CVarTypeInfo@PAG@ATL@@2QQtagVARIANT@@PAGQ3@ 00427714     StdAfx.obj
 0002:00009718       ?VT@?$CVarTypeInfo@PAG@ATL@@2GB 00427718     StdAfx.obj
 0002:0000971c       ?VT@?$CVarTypeInfo@UtagVARIANT@@@ATL@@2GB 0042771c     StdAfx.obj
 0002:00009720       ?pmField@?$CVarTypeInfo@PAN@ATL@@2QQtagVARIANT@@PANQ3@ 00427720     StdAfx.obj
 0002:00009724       ?VT@?$CVarTypeInfo@PAN@ATL@@2GB 00427724     StdAfx.obj
 0002:00009728       ?pmField@?$CVarTypeInfo@N@ATL@@2QQtagVARIANT@@NQ3@ 00427728     StdAfx.obj
 0002:0000972c       ?VT@?$CVarTypeInfo@N@ATL@@2GB 0042772c     StdAfx.obj
 0002:00009730       ?pmField@?$CVarTypeInfo@PAM@ATL@@2QQtagVARIANT@@PAMQ3@ 00427730     StdAfx.obj
 0002:00009734       ?VT@?$CVarTypeInfo@PAM@ATL@@2GB 00427734     StdAfx.obj
 0002:00009738       ?pmField@?$CVarTypeInfo@M@ATL@@2QQtagVARIANT@@MQ3@ 00427738     StdAfx.obj
 0002:0000973c       ?VT@?$CVarTypeInfo@M@ATL@@2GB 0042773c     StdAfx.obj
 0002:00009740       ?pmField@?$CVarTypeInfo@PA_K@ATL@@2QQtagVARIANT@@PA_KQ3@ 00427740     StdAfx.obj
 0002:00009744       ?VT@?$CVarTypeInfo@PA_K@ATL@@2GB 00427744     StdAfx.obj
 0002:00009748       ?pmField@?$CVarTypeInfo@_K@ATL@@2QQtagVARIANT@@_KQ3@ 00427748     StdAfx.obj
 0002:0000974c       ?VT@?$CVarTypeInfo@_K@ATL@@2GB 0042774c     StdAfx.obj
 0002:00009750       ?pmField@?$CVarTypeInfo@PA_J@ATL@@2QQtagVARIANT@@PA_JQ3@ 00427750     StdAfx.obj
 0002:00009754       ?VT@?$CVarTypeInfo@PA_J@ATL@@2GB 00427754     StdAfx.obj
 0002:00009758       ?pmField@?$CVarTypeInfo@_J@ATL@@2QQtagVARIANT@@_JQ3@ 00427758     StdAfx.obj
 0002:0000975c       ?VT@?$CVarTypeInfo@_J@ATL@@2GB 0042775c     StdAfx.obj
 0002:00009760       ?pmField@?$CVarTypeInfo@PAK@ATL@@2QQtagVARIANT@@PAKQ3@ 00427760     StdAfx.obj
 0002:00009764       ?VT@?$CVarTypeInfo@PAK@ATL@@2GB 00427764     StdAfx.obj
 0002:00009768       ?pmField@?$CVarTypeInfo@K@ATL@@2QQtagVARIANT@@KQ3@ 00427768     StdAfx.obj
 0002:0000976c       ?VT@?$CVarTypeInfo@K@ATL@@2GB 0042776c     StdAfx.obj
 0002:00009770       ?pmField@?$CVarTypeInfo@PAJ@ATL@@2QQtagVARIANT@@PAJQ3@ 00427770     StdAfx.obj
 0002:00009774       ?VT@?$CVarTypeInfo@PAJ@ATL@@2GB 00427774     StdAfx.obj
 0002:00009778       ?pmField@?$CVarTypeInfo@J@ATL@@2QQtagVARIANT@@JQ3@ 00427778     StdAfx.obj
 0002:0000977c       ?VT@?$CVarTypeInfo@J@ATL@@2GB 0042777c     StdAfx.obj
 0002:00009780       ?pmField@?$CVarTypeInfo@PAI@ATL@@2QQtagVARIANT@@PAIQ3@ 00427780     StdAfx.obj
 0002:00009784       ?VT@?$CVarTypeInfo@PAI@ATL@@2GB 00427784     StdAfx.obj
 0002:00009788       ?pmField@?$CVarTypeInfo@I@ATL@@2QQtagVARIANT@@IQ3@ 00427788     StdAfx.obj
 0002:0000978c       ?VT@?$CVarTypeInfo@I@ATL@@2GB 0042778c     StdAfx.obj
 0002:00009790       ?pmField@?$CVarTypeInfo@PAH@ATL@@2QQtagVARIANT@@PAHQ3@ 00427790     StdAfx.obj
 0002:00009794       ?VT@?$CVarTypeInfo@PAH@ATL@@2GB 00427794     StdAfx.obj
 0002:00009798       ?pmField@?$CVarTypeInfo@H@ATL@@2QQtagVARIANT@@HQ3@ 00427798     StdAfx.obj
 0002:0000979c       ?VT@?$CVarTypeInfo@H@ATL@@2GB 0042779c     StdAfx.obj
 0002:000097a0       ?pmField@?$CVarTypeInfo@G@ATL@@2QQtagVARIANT@@GQ3@ 004277a0     StdAfx.obj
 0002:000097a4       ?VT@?$CVarTypeInfo@G@ATL@@2GB 004277a4     StdAfx.obj
 0002:000097a8       ?pmField@?$CVarTypeInfo@PAF@ATL@@2QQtagVARIANT@@PAFQ3@ 004277a8     StdAfx.obj
 0002:000097ac       ?VT@?$CVarTypeInfo@PAF@ATL@@2GB 004277ac     StdAfx.obj
 0002:000097b0       ?pmField@?$CVarTypeInfo@F@ATL@@2QQtagVARIANT@@FQ3@ 004277b0     StdAfx.obj
 0002:000097b4       ?VT@?$CVarTypeInfo@F@ATL@@2GB 004277b4     StdAfx.obj
 0002:000097b8       ?pmField@?$CVarTypeInfo@PAE@ATL@@2QQtagVARIANT@@PAEQ3@ 004277b8     StdAfx.obj
 0002:000097bc       ?VT@?$CVarTypeInfo@PAE@ATL@@2GB 004277bc     StdAfx.obj
 0002:000097c0       ?pmField@?$CVarTypeInfo@PAD@ATL@@2QQtagVARIANT@@PADQ3@ 004277c0     StdAfx.obj
 0002:000097c4       ?VT@?$CVarTypeInfo@PAD@ATL@@2GB 004277c4     StdAfx.obj
 0002:000097c8       ?pmField@?$CVarTypeInfo@E@ATL@@2QQtagVARIANT@@EQ3@ 004277c8     StdAfx.obj
 0002:000097cc       ?VT@?$CVarTypeInfo@E@ATL@@2GB 004277cc     StdAfx.obj
 0002:000097d0       ?pmField@?$CVarTypeInfo@D@ATL@@2QQtagVARIANT@@DQ3@ 004277d0     StdAfx.obj
 0002:000097d4       ?VT@?$CVarTypeInfo@D@ATL@@2GB 004277d4     StdAfx.obj
 0002:000097d8       ?szInvalidDateTimeSpan@ATL@@3QBDB 004277d8     StdAfx.obj
 0002:000097dc       ?szInvalidDateTime@ATL@@3QBDB 004277dc     StdAfx.obj
 0002:000097e0       ?Week@CFileTime@ATL@@2_KB  004277e0     StdAfx.obj
 0002:000097e8       ?Day@CFileTime@ATL@@2_KB   004277e8     StdAfx.obj
 0002:000097f0       ?Hour@CFileTime@ATL@@2_KB  004277f0     StdAfx.obj
 0002:000097f8       ?Minute@CFileTime@ATL@@2_KB 004277f8     StdAfx.obj
 0002:00009800       ?Second@CFileTime@ATL@@2_KB 00427800     StdAfx.obj
 0002:00009808       ?Millisecond@CFileTime@ATL@@2_KB 00427808     StdAfx.obj
 0002:00009810       ?c_bIsMFCDLLTraits@?$_MFCDLLTraitsCheck@GV?$StrTraitMFC_DLL@GV?$ChTraitsCRT@G@ATL@@@@@_CSTRING_IMPL_@ATL@@2_NB 00427810     StdAfx.obj
 0002:00009811       ?c_bIsMFCDLLTraits@?$_MFCDLLTraitsCheck@DV?$StrTraitMFC_DLL@DV?$ChTraitsCRT@D@ATL@@@@@_CSTRING_IMPL_@ATL@@2_NB 00427811     StdAfx.obj
 0002:00009818       ??_C@_0FB@DNILBHEN@C?3?2Program?5Files?2Microsoft?5Visua@ 00427818     StdAfx.obj
 0002:0000986c       ??_C@_0BA@CLMJJCOM@nSize?5?$DO?$DN?5nSizeW?$AA@ 0042786c     StdAfx.obj
 0002:0000988c       ??_C@_01GBGANLPD@0?$AA@    0042788c     StdAfx.obj
 0002:00009890       ??_C@_08DMHHBMMN@lpa?5?$CB?$DN?50?$AA@ 00427890     StdAfx.obj
 0002:000098a0       ??_C@_0FA@OHHMODBN@C?3?2Program?5Files?2Microsoft?5Visua@ 004278a0     StdAfx.obj
 0002:000098f0       ??_C@_08DIHJLFDJ@lpw?5?$CB?$DN?50?$AA@ 004278f0     StdAfx.obj
 0002:00009900       ??_C@_0FC@CFIFHLCH@C?3?2Program?5Files?2Microsoft?5Visua@ 00427900     StdAfx.obj
 0002:00009954       ??_C@_0BF@IAAKIJDJ@AtlThrow?3?5hr?5?$DN?50x?$CFx?6?$AA@ 00427954     StdAfx.obj
 0002:00009970       ??_C@_0FB@IAFJMJBP@C?3?2Program?5Files?2Microsoft?5Visua@ 00427970     StdAfx.obj
 0002:000099c4       ??_C@_08GPODJFIN@m_p?5?$DN?$DN?50?$AA@ 004279c4     StdAfx.obj
 0002:000099d0       ??_C@_0FE@GCCFFNOH@C?3?2Program?5Files?2Microsoft?5Visua@ 004279d0     StdAfx.obj
 0002:00009a24       ??_C@_0CA@CLKCNBMB@nIndex?5?$DO?$DN?50?5?$CG?$CG?5nIndex?5?$DM?5m_nSize?$AA@ 00427a24     StdAfx.obj
 0002:00009ab4       ?messageMap@CWaveRec@@1UAFX_MSGMAP@@B 00427ab4     WaveRec.obj
 0002:00009ac0       ?_messageEntries@CWaveRec@@0QBUAFX_MSGMAP_ENTRY@@B 00427ac0     WaveRec.obj
 0002:00009b50       ?classCWaveRec@CWaveRec@@2UCRuntimeClass@@B 00427b50     WaveRec.obj
 0002:00009b70       ??_7CWaveRec@@6B@          00427b70     WaveRec.obj
 0002:00009d80       ??_C@_07KJLOKDKB@TypeLib?$AA@ 00427d80     mfcs71d:stdafx.obj
 0002:00009d88       ??_C@_08KEKAJNJI@Software?$AA@ 00427d88     mfcs71d:stdafx.obj
 0002:00009d94       ??_C@_06FDHFNJBJ@SYSTEM?$AA@ 00427d94     mfcs71d:stdafx.obj
 0002:00009d9c       ??_C@_08LOPHEHKG@SECURITY?$AA@ 00427d9c     mfcs71d:stdafx.obj
 0002:00009da8       ??_C@_03DDIMFGBA@SAM?$AA@  00427da8     mfcs71d:stdafx.obj
 0002:00009dac       ??_C@_04IHBFOLAC@Mime?$AA@ 00427dac     mfcs71d:stdafx.obj
 0002:00009db4       ??_C@_08PPIOJEA@Hardware?$AA@ 00427db4     mfcs71d:stdafx.obj
 0002:00009dc0       ??_C@_09JKPGEJCH@Interface?$AA@ 00427dc0     mfcs71d:stdafx.obj
 0002:00009dcc       ??_C@_08PICKODJL@FileType?$AA@ 00427dcc     mfcs71d:stdafx.obj
 0002:00009dd8       ??_C@_0BF@HDDNNDFH@Component?5Categories?$AA@ 00427dd8     mfcs71d:stdafx.obj
 0002:00009df0       ??_C@_05GIBEAPNE@CLSID?$AA@ 00427df0     mfcs71d:stdafx.obj
 0002:00009df8       ??_C@_05PDIKPLII@AppID?$AA@ 00427df8     mfcs71d:stdafx.obj
 0002:00009e20       ??_C@_06JBKGCNBB@Delete?$AA@ 00427e20     mfcs71d:stdafx.obj
 0002:00009e28       ??_C@_08KAAPDIAN@NoRemove?$AA@ 00427e28     mfcs71d:stdafx.obj
 0002:00009e34       ??_C@_0M@DBGDLGLL@ForceRemove?$AA@ 00427e34     mfcs71d:stdafx.obj
 0002:00009e40       ??_C@_03LAIAPFCB@Val?$AA@  00427e40     mfcs71d:stdafx.obj
 0002:00009e44       ??_C@_01HMGJMAIH@B?$AA@    00427e44     mfcs71d:stdafx.obj
 0002:00009e48       ??_C@_01CKDDGHAB@D?$AA@    00427e48     mfcs71d:stdafx.obj
 0002:00009e4c       ??_C@_01PLPBNMEI@M?$AA@    00427e4c     mfcs71d:stdafx.obj
 0002:00009e50       ??_C@_01CPLAODJH@S?$AA@    00427e50     mfcs71d:stdafx.obj
 0002:00009e54       ?pmField@?$CVarTypeInfo@PAPA_W@ATL@@2QQtagVARIANT@@PAPA_WQ3@ 00427e54     mfcs71d:stdafx.obj
 0002:00009e58       ?VT@?$CVarTypeInfo@PAPA_W@ATL@@2GB 00427e58     mfcs71d:stdafx.obj
 0002:00009e5c       ?pmField@?$CVarTypeInfo@PA_W@ATL@@2QQtagVARIANT@@PA_WQ3@ 00427e5c     mfcs71d:stdafx.obj
 0002:00009e60       ?VT@?$CVarTypeInfo@PA_W@ATL@@2GB 00427e60     mfcs71d:stdafx.obj
 0002:00009e64       ??_C@_0BF@GPPHKJFN@Invalid?5DateTimeSpan?$AA@ 00427e64     mfcs71d:stdafx.obj
 0002:00009e7c       ??_C@_0BB@KEKMKJPM@Invalid?5DateTime?$AA@ 00427e7c     mfcs71d:stdafx.obj
 0002:00009e8d       ?c_bIsMFCDLLTraits@?$_MFCDLLTraitsCheck@_WV?$StrTraitMFC_DLL@_WV?$ChTraitsCRT@_W@ATL@@@@@_CSTRING_IMPL_@ATL@@2_NB 00427e8d     mfcs71d:stdafx.obj
 0002:00009e90       ??_C@_0DM@GAHMOPPO@f?3?2vs70builds?26030?2vc?2MFCATL?2shi@ 00427e90     mfcs71d:stdafx.obj
 0002:00009ecc       ??_C@_0DL@HIJPFCOH@f?3?2vs70builds?26030?2vc?2MFCATL?2shi@ 00427ecc     mfcs71d:stdafx.obj
 0002:00009f08       ??_C@_0DN@HHLAGOOJ@f?3?2vs70builds?26030?2vc?2MFCATL?2shi@ 00427f08     mfcs71d:stdafx.obj
 0002:00009f48       ??_C@_0DM@NNKODBKM@f?3?2vs70builds?26030?2vc?2MFCATL?2shi@ 00427f48     mfcs71d:stdafx.obj
 0002:00009f84       ??_C@_0DP@FKIBBBPJ@f?3?2vs70builds?26030?2vc?2MFCATL?2shi@ 00427f84     mfcs71d:stdafx.obj
 0002:0000a034       ??_C@_0CK@CNLNOEPB@Local?5variable?5used?5before?5initi@ 00428034     msvcrtd:userapi.obj
 0002:0000a060       ??_C@_0BI@CIGMDCBH@Stack?5memory?5corruption?$AA@ 00428060     msvcrtd:userapi.obj
 0002:0000a078       ??_C@_0CK@FEGOIOPB@Cast?5to?5smaller?5type?5causing?5los@ 00428078     msvcrtd:userapi.obj
 0002:0000a0a4       ??_C@_0BJ@HEGAHDFO@Stack?5pointer?5corruption?$AA@ 004280a4     msvcrtd:userapi.obj
 0002:0000a0d4       ??_C@_0BO@GNIAFIKK@Unknown?5Runtime?5Check?5Error?6?$AN?$AA@ 004280d4     msvcrtd:error.obj
 0002:0000a0f4       ??_C@_0DG@HKJMLLLP@A?5local?5variable?5was?5used?5before@ 004280f4     msvcrtd:error.obj
 0002:0000a12c       ??_C@_0BN@FFOINMNJ@Stack?5memory?5was?5corrupted?6?$AN?$AA@ 0042812c     msvcrtd:error.obj
 0002:0000a150       ??_C@_0BBN@GPMLNJCF@A?5cast?5to?5a?5smaller?5data?5type?5ha@ 00428150     msvcrtd:error.obj
 0002:0000a270       ??_C@_0NN@NGPKDKPD@The?5value?5of?5ESP?5was?5not?5properl@ 00428270     msvcrtd:error.obj
 0002:0000a350       ??_C@_0CA@IODNCDPG@Run?9Time?5Check?5Failure?5?$CD?$CFd?5?9?5?$CFs?$AA@ 00428350     msvcrtd:error.obj
 0002:0000a38c       ??_C@_0L@CJCNHJJG@?6?$ANModule?3?7?$AA@ 0042838c     msvcrtd:error.obj
 0002:0000a398       ??_C@_08GJEJCAJD@?6?$ANLine?3?7?$AA@ 00428398     msvcrtd:error.obj
 0002:0000a3a4       ??_C@_0CI@INCLAPNB@Invalid?5pointer?5was?5assigned?5at?6@ 004283a4     msvcrtd:error.obj
 0002:0000a3cc       ??_C@_0BB@JEGFEAAM@?8?5was?5corrupted?4?$AA@ 004283cc     msvcrtd:error.obj
 0002:0000a3e0       ??_C@_0BM@FGFAMDLF@Stack?5around?5the?5variable?5?8?$AA@ 004283e0     msvcrtd:error.obj
 0002:0000a3fc       ??_C@_0DA@BEGFPCGG@A?5variable?5is?5being?5used?5without@ 004283fc     msvcrtd:error.obj
 0002:0000a42c       ??_C@_0CH@LOIIHGKM@?8?5is?5being?5used?5without?5being?5de@ 0042842c     msvcrtd:error.obj
 0002:0000a454       ??_C@_0P@HLKMHJCG@The?5variable?5?8?$AA@ 00428454     msvcrtd:error.obj
 0002:0000a464       ??_C@_0BC@KNBMEBEO@IsDebuggerPresent?$AA@ 00428464     msvcrtd:error.obj
 0002:0000a478       ??_C@_0N@HAOHNMDE@Kernel32?4dll?$AA@ 00428478     msvcrtd:error.obj
 0002:0000a488       ??_C@_0M@HHEBEAAO@MSPDB71?4DLL?$AA@ 00428488     msvcrtd:pdblkup.obj
 0002:0000a494       ??_C@_01KDCPPGHE@r?$AA@    00428494     msvcrtd:pdblkup.obj
 0002:0000a496       ??_C@_00CNPNBAHC@?$AA@     00428496     msvcrtd:pdblkup.obj
 0002:0000a498       ??_C@_08ONJBEOFA@PDBClose?$AA@ 00428498     msvcrtd:pdblkup.obj
 0002:0000a4a4       ??_C@_08NINFAAFA@DBIClose?$AA@ 004284a4     msvcrtd:pdblkup.obj
 0002:0000a4b0       ??_C@_08LIGPJJNA@ModClose?$AA@ 004284b0     msvcrtd:pdblkup.obj
 0002:0000a4bc       ??_C@_0O@IPLOKOKN@ModQueryLines?$AA@ 004284bc     msvcrtd:pdblkup.obj
 0002:0000a4cc       ??_C@_0BE@GDNPNLGH@DBIQueryModFromAddr?$AA@ 004284cc     msvcrtd:pdblkup.obj
 0002:0000a4e0       ??_C@_0L@KPMOCKEL@PDBOpenDBI?$AA@ 004284e0     msvcrtd:pdblkup.obj
 0002:0000a4ec       ??_C@_0BB@PENKIMFE@PDBOpenValidate3?$AA@ 004284ec     msvcrtd:pdblkup.obj
 0002:0000a500       ??_C@_0N@KIGOLBLC@Module32Next?$AA@ 00428500     msvcrtd:pdblkup.obj
 0002:0000a510       ??_C@_0O@CNMFJJGO@Module32First?$AA@ 00428510     msvcrtd:pdblkup.obj
 0002:0000a520       ??_C@_0BF@OCLFCNKN@GetModuleInformation?$AA@ 00428520     msvcrtd:pdblkup.obj
 0002:0000a538       ??_C@_0BD@FIEJBLME@EnumProcessModules?$AA@ 00428538     msvcrtd:pdblkup.obj
 0002:0000a54c       ??_C@_09EPMADGLA@PSAPI?4DLL?$AA@ 0042854c     msvcrtd:pdblkup.obj
 0002:0000a558       ??_C@_0BJ@JEFKDHMD@CreateToolhelp32Snapshot?$AA@ 00428558     msvcrtd:pdblkup.obj
 0002:0000a574       ??_C@_0O@CHDGJGFP@ImageNtHeader?$AA@ 00428574     msvcrtd:pdblkup.obj
 0002:0000a584       ??_C@_0N@KBGMOMJO@IMAGEHLP?4DLL?$AA@ 00428584     msvcrtd:pdblkup.obj
 0002:0000a594       ??_C@_0N@NHGLKGEC@KERNEL32?4DLL?$AA@ 00428594     msvcrtd:pdblkup.obj
 0002:0000a5a4       ??_C@_0BF@BMIHBHCA@EnvironmentDirectory?$AA@ 004285a4     msvcrtd:pdblkup.obj
 0002:0000a5bc       ??_C@_0CN@KGLAKABH@SOFTWARE?2Microsoft?2VisualStudio?2@ 004285bc     msvcrtd:pdblkup.obj
 0002:0000a5ec       ??_C@_0M@HLOHPNFA@RegCloseKey?$AA@ 004285ec     msvcrtd:pdblkup.obj
 0002:0000a5f8       ??_C@_0BB@HHEIPGME@RegQueryValueExA?$AA@ 004285f8     msvcrtd:pdblkup.obj
 0002:0000a60c       ??_C@_0O@DCOGKJGG@RegOpenKeyExA?$AA@ 0042860c     msvcrtd:pdblkup.obj
 0002:0000a61c       ??_C@_0N@JJPEKNFO@ADVAPI32?4DLL?$AA@ 0042861c     msvcrtd:pdblkup.obj
 0002:0000bd44       __GUID_b196b284_bab4_101a_b69c_00aa00341d07 00429d44     atlsd:atlfuncs.obj
 0002:0000bd54       __GUID_00000000_0000_0000_c000_000000000046 00429d54     atlsd:atlfuncs.obj
 0002:0000bd64       ??_C@_0DN@PDNBECNA@f?3?2vs70builds?26030?2vc?2MFCATL?2shi@ 00429d64     atlsd:atlfuncs.obj
 0002:0000bda4       ??_C@_04DBLLIIGB@p?$DN?$DN0?$AA@ 00429da4     atlsd:atlfuncs.obj
 0002:0000bdac       ??_C@_04CLHEGAEG@p?$CB?$DN0?$AA@ 00429dac     atlsd:atlfuncs.obj
 0002:0000bdc4       ??_C@_05LAPONLG@false?$AA@ 00429dc4     atlsd:atlfuncs.obj
 0002:0000bdcc       ??_C@_0DL@DODOJDGB@f?3?2vs70builds?26030?2vc?2MFCATL?2shi@ 00429dcc     atlsd:atlfuncs.obj
 0002:0000be08       ??_C@_09HIEJFN@m_bLocked?$AA@ 00429e08     atlsd:atlfuncs.obj
 0002:0000be14       ??_C@_0L@MPGHMANA@?$CBm_bLocked?$AA@ 00429e14     atlsd:atlfuncs.obj
 0002:0000be20       _GUID_ATLVer30             00429e20     atlsd:atlbase.obj
 0002:0000be30       _GUID_ATLVer70             00429e30     atlsd:atlbase.obj
 0002:0000c5a8       ??_C@_0EO@EBKHEIBN@f?3?2vs70builds?26030?2vc?2mfcatl?2shi@ 0042a5a8     atlsd:Allocate.obj
 0002:0000c5f8       ??_C@_0N@HGPIKDNG@nCookie?5?$CB?$DN?50?$AA@ 0042a5f8     atlsd:Allocate.obj
 0002:0000c838       ??_C@_0N@OHCOOONG@appmodul?4cpp?$AA@ 0042a838     mfcs71d:appmodul.obj
 0002:0000c84c       ??_7type_info@@6B@         0042a84c     msvcrtd:ti_inst.obj
 0002:0000c850       __load_config_used         0042a850     msvcrtd:loadcfg.obj
 0002:0000c8ec       ??_R1A@?0A@A@type_info@@8  0042a8ec     msvcrtd:ti_inst.obj
 0002:0000c904       ??_R2type_info@@8          0042a904     msvcrtd:ti_inst.obj
 0002:0000c90c       ??_R3type_info@@8          0042a90c     msvcrtd:ti_inst.obj
 0002:0000c91c       ??_R4type_info@@6B@        0042a91c     msvcrtd:ti_inst.obj
 0002:0000c930       ___safe_se_handler_table   0042a930     <linker-defined>
 0002:0000ca50       ___rtc_iaa                 0042aa50     msvcrtd:initsect.obj
 0002:0000ca58       ___rtc_izz                 0042aa58     msvcrtd:initsect.obj
 0002:0000ca5c       ___rtc_taa                 0042aa5c     msvcrtd:initsect.obj
 0002:0000ca64       ___rtc_tzz                 0042aa64     msvcrtd:initsect.obj
 0002:0000d66c       __CT??_R0?AVCAtlException@ATL@@@84 0042b66c     atlsd:Externs.obj
 0002:0000d688       __CTA1?AVCAtlException@ATL@@ 0042b688     atlsd:Externs.obj
 0002:0000d690       __TI1?AVCAtlException@ATL@@ 0042b690     atlsd:Externs.obj
 0002:0000d6a0       ___pobjMapEntryFirst       0042b6a0     StdAfx.obj
 0002:0000d6a4       ___pobjMapEntryLast        0042b6a4     StdAfx.obj
 0002:0000d6a8       __IMPORT_DESCRIPTOR_WINMM  0042b6a8     winmm:WINMM.dll
 0002:0000d6bc       __IMPORT_DESCRIPTOR_Wave2Joystick 0042b6bc     Wave2Joystick:Wave2Joystick.dll
 0002:0000d6d0       __IMPORT_DESCRIPTOR_MFC71D 0042b6d0     mfc71d:MFC71D.DLL
 0002:0000d6e4       __IMPORT_DESCRIPTOR_MSVCR71D 0042b6e4     msvcrtd:MSVCR71D.dll
 0002:0000d6f8       __IMPORT_DESCRIPTOR_KERNEL32 0042b6f8     kernel32:KERNEL32.dll
 0002:0000d70c       __IMPORT_DESCRIPTOR_USER32 0042b70c     user32:USER32.dll
 0002:0000d720       __IMPORT_DESCRIPTOR_GDI32  0042b720     gdi32:GDI32.dll
 0002:0000d734       __IMPORT_DESCRIPTOR_comdlg32 0042b734     comdlg32:comdlg32.dll
 0002:0000d748       __IMPORT_DESCRIPTOR_ADVAPI32 0042b748     advapi32:ADVAPI32.dll
 0002:0000d75c       __IMPORT_DESCRIPTOR_SHELL32 0042b75c     shell32:SHELL32.dll
 0002:0000d770       __IMPORT_DESCRIPTOR_OLEAUT32 0042b770     oleaut32:OLEAUT32.dll
 0002:0000d784       __IMPORT_DESCRIPTOR_ole32  0042b784     ole32:ole32.dll
 0002:0000d798       __NULL_IMPORT_DESCRIPTOR   0042b798     winmm:WINMM.dll
 0003:00000000       ___xc_a                    0042d000     msvcrtd:cinitexe.obj
 0003:00000090       ___xc_z                    0042d090     msvcrtd:cinitexe.obj
 0003:00000094       ___xi_a                    0042d094     msvcrtd:cinitexe.obj
 0003:00000098       ___xi_z                    0042d098     msvcrtd:cinitexe.obj
 0003:000000a0       ?g_pfnGetThreadACP@ATL@@3P6GIXZA 0042d0a0     AboutDlg.obj
 0003:00000138       ?_strthunks@ATL@@3U_AtlStringThunks@1@A 0042d138     StdAfx.obj
 0003:00000fc0       ___security_cookie         0042dfc0     msvcrtd:seccook.obj
 0003:00000fd0       ___defaultmatherr          0042dfd0     msvcrtd:merr.obj
 0003:00000fe4       ?_RTC_ErrorLevels@@3PAHA   0042dfe4     msvcrtd:error.obj
 0003:0000100c       ?rcDefault@CWindow@ATL@@2UtagRECT@@A 0042e00c     atlsd:atltypes.obj
 0003:0000101c       ?g_pszUpdateEventName@@3PBDB 0042e01c     atlsd:Externs.obj
 0003:00001020       ?g_pszAllocFileMapName@@3PBDB 0042e020     atlsd:Externs.obj
 0003:00001024       ?g_pszKernelObjFmt@@3PBDB  0042e024     atlsd:Externs.obj
 0003:00001028       ??_R0?AVCAtlException@ATL@@@8 0042e028     atlsd:Externs.obj
 0003:00001048       ??_R0?AVtype_info@@@8      0042e048     msvcrtd:ti_inst.obj
 0003:00001068       ?theApp@@3VCSppConsoleApp@@A 0042e068     SppConsole.obj
 0003:00001134       ?WM_DESTROYMODELESS@CDHtmlDialog@@1IA 0042e134     StdAfx.obj
 0003:00001138       ?ATL_CREATE_OBJECT@CComApartment@ATL@@2IA 0042e138     StdAfx.obj
 0003:0000113c       ?_pModule@ATL@@3PAVCComModule@1@A 0042e13c     StdAfx.obj
 0003:00001140       ?m_libid@CAtlModule@ATL@@2U_GUID@@A 0042e140     StdAfx.obj
 0003:00001150       ?_pAtlModule@ATL@@3PAVCAtlModule@1@A 0042e150     StdAfx.obj
 0003:00001154       ?_pPerfUnRegFunc@ATL@@3P6AJXZA 0042e154     StdAfx.obj
 0003:00001158       ?_pPerfRegFunc@ATL@@3P6AJPAUHINSTANCE__@@@ZA 0042e158     StdAfx.obj
 0003:0000115c       ?s_pLog@CFixedStringMgr@ATL@@2PAVIFixedStringLog@2@A 0042e15c     StdAfx.obj
 0003:00001160       ?m_bInitFailed@CAtlBaseModule@ATL@@2_NA 0042e160     StdAfx.obj
 0003:00001164       ?s_pfnPrevHook@CNoUIAssertHook@ATL@@0P6AHHPADPAH@ZA 0042e164     StdAfx.obj
 0003:00001168       ?_pAtlAutoThreadModule@ATL@@3PAUIAtlAutoThreadModule@1@A 0042e168     StdAfx.obj
 0003:0000116c       ?s_bWin9x@?1??_AtlInstallStringThunk@ATL@@YAXPAPAXPAX1@Z@4_NA 0042e16c     StdAfx.obj
 0003:00001170       ??_B?1??_AtlInstallStringThunk@ATL@@YAXPAPAXPAX1@Z@51 0042e170     StdAfx.obj
 0003:00001174       ?_AtlWinModule@ATL@@3VCAtlWinModule@1@A 0042e174     StdAfx.obj
 0003:000011ac       ?ConvertChannels@@3P6APAU_JS_CHANNELS@@PAU1@HH@ZA 0042e1ac     FilterIf:FilterIf.obj
 0003:000011b0       __afxForceEXCLUDE          0042e1b0     mfcs71d:nolib.obj
 0003:000011b4       __afxForceSTDAFX           0042e1b4     mfcs71d:stdafx.obj
 0003:000011bc       __dowildcard               0042e1bc     msvcrtd:wildcard.obj
 0003:000011c0       __newmode                  0042e1c0     msvcrtd:_newmode.obj
 0003:000011c4       __commode                  0042e1c4     msvcrtd:xncommod.obj
 0003:000011c8       __fmode                    0042e1c8     msvcrtd:xtxtmode.obj
 0003:00001238       ?g_Allocator@@3VCAtlAllocator@@A 0042e238     atlsd:Externs.obj
 0003:0000126c       ?s_trace@CTrace@ATL@@2V12@A 0042e26c     atlsd:Externs.obj
 0003:00001274       ?atlTraceGeneral@ATL@@3VCTraceCategory@1@A 0042e274     atlsd:atltrace.obj
 0003:00001278       ?atlTraceCOM@ATL@@3VCTraceCategory@1@A 0042e278     atlsd:atltrace.obj
 0003:0000127c       ?atlTraceQI@ATL@@3VCTraceCategory@1@A 0042e27c     atlsd:atltrace.obj
 0003:00001280       ?atlTraceRegistrar@ATL@@3VCTraceCategory@1@A 0042e280     atlsd:atltrace.obj
 0003:00001284       ?atlTraceRefcount@ATL@@3VCTraceCategory@1@A 0042e284     atlsd:atltrace.obj
 0003:00001288       ?atlTraceWindowing@ATL@@3VCTraceCategory@1@A 0042e288     atlsd:atltrace.obj
 0003:0000128c       ?atlTraceControls@ATL@@3VCTraceCategory@1@A 0042e28c     atlsd:atltrace.obj
 0003:00001290       ?atlTraceHosting@ATL@@3VCTraceCategory@1@A 0042e290     atlsd:atltrace.obj
 0003:00001294       ?atlTraceDBClient@ATL@@3VCTraceCategory@1@A 0042e294     atlsd:atltrace.obj
 0003:00001298       ?atlTraceDBProvider@ATL@@3VCTraceCategory@1@A 0042e298     atlsd:atltrace.obj
 0003:0000129c       ?atlTraceSnapin@ATL@@3VCTraceCategory@1@A 0042e29c     atlsd:atltrace.obj
 0003:000012a0       ?atlTraceNotImpl@ATL@@3VCTraceCategory@1@A 0042e2a0     atlsd:atltrace.obj
 0003:000012a4       ?atlTraceAllocation@ATL@@3VCTraceCategory@1@A 0042e2a4     atlsd:atltrace.obj
 0003:000012a8       ?atlTraceException@ATL@@3VCTraceCategory@1@A 0042e2a8     atlsd:atltrace.obj
 0003:000012ac       ?atlTraceTime@ATL@@3VCTraceCategory@1@A 0042e2ac     atlsd:atltrace.obj
 0003:000012b0       ?atlTraceCache@ATL@@3VCTraceCategory@1@A 0042e2b0     atlsd:atltrace.obj
 0003:000012b4       ?atlTraceStencil@ATL@@3VCTraceCategory@1@A 0042e2b4     atlsd:atltrace.obj
 0003:000012b8       ?atlTraceString@ATL@@3VCTraceCategory@1@A 0042e2b8     atlsd:atltrace.obj
 0003:000012bc       ?atlTraceMap@ATL@@3VCTraceCategory@1@A 0042e2bc     atlsd:atltrace.obj
 0003:000012c0       ?atlTraceUtil@ATL@@3VCTraceCategory@1@A 0042e2c0     atlsd:atltrace.obj
 0003:000012c4       ?atlTraceSecurity@ATL@@3VCTraceCategory@1@A 0042e2c4     atlsd:atltrace.obj
 0003:000012c8       ?atlTraceSync@ATL@@3VCTraceCategory@1@A 0042e2c8     atlsd:atltrace.obj
 0003:000012cc       ?atlTraceISAPI@ATL@@3VCTraceCategory@1@A 0042e2cc     atlsd:atltrace.obj
 0003:000012d0       ?atlTraceUser@ATL@@3VCTraceCategory@1@A 0042e2d0     atlsd:atltrace.obj
 0003:000012d4       ?atlTraceUser2@ATL@@3VCTraceCategory@1@A 0042e2d4     atlsd:atltrace.obj
 0003:000012d8       ?atlTraceUser3@ATL@@3VCTraceCategory@1@A 0042e2d8     atlsd:atltrace.obj
 0003:000012dc       ?atlTraceUser4@ATL@@3VCTraceCategory@1@A 0042e2dc     atlsd:atltrace.obj
 0003:000012e0       ?_AtlBaseModule@ATL@@3VCAtlBaseModule@1@A 0042e2e0     atlsd:atlbase.obj
 0003:0000131c       ?_afxInitAppState@@3DA     0042e31c     mfcs71d:appmodul.obj
 0003:00001320       __adjust_fdiv              0042e320     <common>
 0003:00001324       ___onexitend               0042e324     <common>
 0003:00001328       ___onexitbegin             0042e328     <common>

 entry point at        0001:000137b0

 Static symbols

 0001:fffff000       $L175073                   00400000 f   mfcs71d:stdafx.obj
 0001:fffff000       $L186438                   00400000 f   SppConsoleDlg.obj
 0001:fffff000       $L184357                   00400000 f   SppConsole.obj
 0001:fffff000       $L178746                   00400000 f   StatLink.obj
 0001:fffff000       $L186098                   00400000 f   SppConsoleDlg.obj
 0001:fffff000       $L184367                   00400000 f   SppConsole.obj
 0001:fffff000       $L186278                   00400000 f   SppConsoleDlg.obj
 0001:fffff008       $L186279                   00400008 f   SppConsoleDlg.obj
 0001:fffff008       $L178747                   00400008 f   StatLink.obj
 0001:fffff008       $L184368                   00400008 f   SppConsole.obj
 0001:fffff008       $L186099                   00400008 f   SppConsoleDlg.obj
 0001:fffff008       __ehhandler$??1CAboutDlg@@UAE@XZ 00400008 f   SppConsole.obj
 0001:fffff008       __ehhandler$??1CAtlWinModule@ATL@@QAE@XZ 00400008 f   mfcs71d:stdafx.obj
 0001:fffff009       __ehhandler$??HATL@@YA?AV?$CStringT@DV?$StrTraitMFC_DLL@DV?$ChTraitsCRT@D@ATL@@@@@0@ABV10@0@Z 00400009 f   SppConsoleDlg.obj
 0001:fffff013       $L186280                   00400013 f   SppConsoleDlg.obj
 0001:fffff013       $L186100                   00400013 f   SppConsoleDlg.obj
 0001:fffff014       __ehhandler$??1CStaticLink@@UAE@XZ 00400014 f   StatLink.obj
 0001:fffff014       __ehhandler$??1CStaticLink@@UAE@XZ 00400014 f   SppConsole.obj
 0001:fffff021       $L186101                   00400021 f   SppConsoleDlg.obj
 0001:fffff021       $L186281                   00400021 f   SppConsoleDlg.obj
 0001:fffff02f       $L186282                   0040002f f   SppConsoleDlg.obj
 0001:fffff02f       __ehhandler$??1CSppConsoleDlg@@UAE@XZ 0040002f f   SppConsoleDlg.obj
 0001:fffff03d       $L186283                   0040003d f   SppConsoleDlg.obj
 0001:fffff04b       $L186284                   0040004b f   SppConsoleDlg.obj
 0001:fffff059       $L186285                   00400059 f   SppConsoleDlg.obj
 0001:fffff067       __ehhandler$??1CDefVolumeDlg@@UAE@XZ 00400067 f   SppConsoleDlg.obj
 0001:00013390       _report_failure            00414390 f   msvcrtd:secchk.obj
 0001:00013610       ?ArrayUnwindFilter@@YAHPAU_EXCEPTION_POINTERS@@@Z 00414610 f   msvcrtd:ehvecdtr.obj
 0001:00013a40       _check_managed_app         00414a40 f   msvcrtd:crtexew.obj
 0001:00013f10       ?failwithmessage@@YAXPAXHHPBD@Z 00414f10 f   msvcrtd:error.obj
 0001:00014000       ?DebuggerProbe@@YAHK@Z     00415000 f   msvcrtd:error.obj
 0001:00014080       ?DebuggerRuntime@@YAHKHPAXPB_W@Z 00415080 f   msvcrtd:error.obj
 0001:00014310       ?IntToString@@YAPADH@Z     00415310 f   msvcrtd:error.obj
 0001:00014500       ?_IsDebuggerPresent@@YAHXZ 00415500 f   msvcrtd:error.obj
 0001:00014530       ?Initialize@@YAHXZ         00415530 f   msvcrtd:error.obj
 0001:000145b0       ?Win95IsDebuggerPresent@@YGHXZ 004155b0 f   msvcrtd:error.obj
 0001:000145c0       ?WinGetDebugContext@@YAPAXXZ 004155c0 f   msvcrtd:error.obj
 0001:000145d0       ?GetCurrentTib@@YAPAU_TIB@@XZ 004155d0 f   msvcrtd:error.obj
 0001:00014980       ?GetImageInfo@@YAPAUImageInfo@@K@Z 00415980 f   msvcrtd:pdblkup.obj
 0001:00014d40       ?GetPdbDll@@YAPAUHINSTANCE__@@XZ 00415d40 f   msvcrtd:pdblkup.obj
 0001:00016550       ?Init@@YG_NXZ              00417550 f   atlsd:Externs.obj
 0001:00017880       ?ShouldTraceOutput@ATL@@YG_NKKIPAPBVCAtlTraceCategory@@PAP6AHHPBDH11ZZ@Z 00418880 f   atlsd:AtlDebugAPI.obj
 0001:0001b160       $L179070                   0041c160 f   AboutDlg.obj
 0001:0001b168       __ehhandler$??0CAboutDlg@@QAE@PAVCWnd@@@Z 0041c168 f   AboutDlg.obj
 0001:0001b172       $L179112                   0041c172 f   AboutDlg.obj
 0001:0001b17b       $L179113                   0041c17b f   AboutDlg.obj
 0001:0001b184       __ehhandler$?OnInitDialog@CAboutDlg@@MAEHXZ 0041c184 f   AboutDlg.obj
 0001:0001b190       $L179083                   0041c190 f   AboutDlg.obj
 0001:0001b198       __ehhandler$??1CAboutDlg@@UAE@XZ 0041c198 f   AboutDlg.obj
 0001:0001b1b0       $L179093                   0041c1b0 f   AboutDlg.obj
 0001:0001b1b8       $L179094                   0041c1b8 f   AboutDlg.obj
 0001:0001b1c4       __ehhandler$??1CStaticLink@@UAE@XZ 0041c1c4 f   AboutDlg.obj
 0001:0001b1d0       $L185717                   0041c1d0 f   AudioInput.obj
 0001:0001b1db       $L185718                   0041c1db f   AudioInput.obj
 0001:0001b1f2       __ehhandler$??0CAudioInput@@QAE@PAUHWND__@@@Z 0041c1f2 f   AudioInput.obj
 0001:0001b1fc       $L185734                   0041c1fc f   AudioInput.obj
 0001:0001b207       __ehhandler$??1CAudioInput@@UAE@XZ 0041c207 f   AudioInput.obj
 0001:0001b211       $L185751                   0041c211 f   AudioInput.obj
 0001:0001b21c       $L185752                   0041c21c f   AudioInput.obj
 0001:0001b227       __ehhandler$??0CMixerDevice@CAudioInput@@QAE@XZ 0041c227 f   AudioInput.obj
 0001:0001b231       $L185769                   0041c231 f   AudioInput.obj
 0001:0001b23c       $L185770                   0041c23c f   AudioInput.obj
 0001:0001b247       __ehhandler$??1CMixerDevice@CAudioInput@@UAE@XZ 0041c247 f   AudioInput.obj
 0001:0001b251       $L185777                   0041c251 f   AudioInput.obj
 0001:0001b25c       $L185778                   0041c25c f   AudioInput.obj
 0001:0001b267       __ehhandler$??0CMixerDevice@CAudioInput@@QAE@HPAUHWND__@@@Z 0041c267 f   AudioInput.obj
 0001:0001b271       $L185791                   0041c271 f   AudioInput.obj
 0001:0001b28b       __ehhandler$?CreateInputLineArray@CMixerDevice@CAudioInput@@IAEHXZ 0041c28b f   AudioInput.obj
 0001:0001b295       $L185803                   0041c295 f   AudioInput.obj
 0001:0001b2af       __ehhandler$?CreatePhysicalDevArray@CMixerDevice@CAudioInput@@QAEHXZ 0041c2af f   AudioInput.obj
 0001:0001b2b9       $L185849                   0041c2b9 f   AudioInput.obj
 0001:0001b2d0       __ehhandler$?CreateArrayMuteCtrl@CInputLine@CMixerDevice@CAudioInput@@IAEPAV?$CArray@UsMuteLine@CInputLine@CMixerDevice@CAudioInput@@U1234@@@KPBD@Z 0041c2d0 f   AudioInput.obj
 0001:0001b2e0       $L185904                   0041c2e0 f   AudioInput.obj
 0001:0001b2e8       __ehhandler$??1?$CArray@PAVCInputLine@CMixerDevice@CAudioInput@@PAV123@@@UAE@XZ 0041c2e8 f   AudioInput.obj
 0001:0001b300       $L185944                   0041c300 f   AudioInput.obj
 0001:0001b308       __ehhandler$??1?$CArray@PAVCPhysicalDevice@CMixerDevice@CAudioInput@@PAV123@@@UAE@XZ 0041c308 f   AudioInput.obj
 0001:0001b320       $L185984                   0041c320 f   AudioInput.obj
 0001:0001b328       __ehhandler$??1?$CArray@PAVCMixerDevice@CAudioInput@@PAV12@@@UAE@XZ 0041c328 f   AudioInput.obj
 0001:0001b340       $L186043                   0041c340 f   AudioInput.obj
 0001:0001b348       __ehhandler$??1?$CArray@UsMuteLine@CInputLine@CMixerDevice@CAudioInput@@U1234@@@UAE@XZ 0041c348 f   AudioInput.obj
 0001:0001b360       $L183743                   0041c360 f   DefVolumeDlg.obj
 0001:0001b368       $L183744                   0041c368 f   DefVolumeDlg.obj
 0001:0001b373       $L183745                   0041c373 f   DefVolumeDlg.obj
 0001:0001b381       $L183746                   0041c381 f   DefVolumeDlg.obj
 0001:0001b38f       $L183747                   0041c38f f   DefVolumeDlg.obj
 0001:0001b39d       $L183748                   0041c39d f   DefVolumeDlg.obj
 0001:0001b3ab       $L183749                   0041c3ab f   DefVolumeDlg.obj
 0001:0001b3b9       $L183750                   0041c3b9 f   DefVolumeDlg.obj
 0001:0001b3c7       __ehhandler$??0CDefVolumeDlg@@QAE@PAVCWnd@@@Z 0041c3c7 f   DefVolumeDlg.obj
 0001:0001b3d1       $L183783                   0041c3d1 f   DefVolumeDlg.obj
 0001:0001b3da       __ehhandler$?OnHScroll@CDefVolumeDlg@@IAEXIIPAVCScrollBar@@@Z 0041c3da f   DefVolumeDlg.obj
 0001:0001b3e4       $L183797                   0041c3e4 f   DefVolumeDlg.obj
 0001:0001b3ed       __ehhandler$?ChangeEdt@CDefVolumeDlg@@IAEHHPAVCEdit@@PAVCSliderCtrl@@@Z 0041c3ed f   DefVolumeDlg.obj
 0001:0001b400       $L183763                   0041c400 f   DefVolumeDlg.obj
 0001:0001b408       $L183764                   0041c408 f   DefVolumeDlg.obj
 0001:0001b413       $L183765                   0041c413 f   DefVolumeDlg.obj
 0001:0001b421       $L183766                   0041c421 f   DefVolumeDlg.obj
 0001:0001b42f       $L183767                   0041c42f f   DefVolumeDlg.obj
 0001:0001b43d       $L183768                   0041c43d f   DefVolumeDlg.obj
 0001:0001b44b       $L183769                   0041c44b f   DefVolumeDlg.obj
 0001:0001b459       $L183770                   0041c459 f   DefVolumeDlg.obj
 0001:0001b467       __ehhandler$??1CDefVolumeDlg@@UAE@XZ 0041c467 f   DefVolumeDlg.obj
 0001:0001b480       $L178784                   0041c480 f   DynamicLED.obj
 0001:0001b488       $L178785                   0041c488 f   DynamicLED.obj
 0001:0001b493       $L178786                   0041c493 f   DynamicLED.obj
 0001:0001b49e       $L178787                   0041c49e f   DynamicLED.obj
 0001:0001b4a9       $L178788                   0041c4a9 f   DynamicLED.obj
 0001:0001b4b4       __ehhandler$??0CDynamicLED@@QAE@XZ 0041c4b4 f   DynamicLED.obj
 0001:0001b4be       $L178805                   0041c4be f   DynamicLED.obj
 0001:0001b4c6       $L178806                   0041c4c6 f   DynamicLED.obj
 0001:0001b4d1       $L178807                   0041c4d1 f   DynamicLED.obj
 0001:0001b4dc       $L178808                   0041c4dc f   DynamicLED.obj
 0001:0001b4e7       $L178809                   0041c4e7 f   DynamicLED.obj
 0001:0001b4f2       $L178810                   0041c4f2 f   DynamicLED.obj
 0001:0001b4fd       __ehhandler$??1CDynamicLED@@UAE@XZ 0041c4fd f   DynamicLED.obj
 0001:0001b507       $L178822                   0041c507 f   DynamicLED.obj
 0001:0001b518       __ehhandler$?InitLed@CDynamicLED@@QAEXPAVCWnd@@II@Z 0041c518 f   DynamicLED.obj
 0001:0001b522       $L178829                   0041c522 f   DynamicLED.obj
 0001:0001b52a       __ehhandler$?OnPaint@CDynamicLED@@IAEXXZ 0041c52a f   DynamicLED.obj
 0001:0001b534       $L178852                   0041c534 f   DynamicLED.obj
 0001:0001b53c       $L178853                   0041c53c f   DynamicLED.obj
 0001:0001b544       __ehhandler$?DrawRoundLed@CDynamicLED@@AAEXVCRect@@@Z 0041c544 f   DynamicLED.obj
 0001:0001b54e       $L178861                   0041c54e f   DynamicLED.obj
 0001:0001b556       __ehhandler$?DrawSquareLed@CDynamicLED@@AAEXVCRect@@@Z 0041c556 f   DynamicLED.obj
 0001:0001b560       $L184462                   0041c560 f   ScanInputs.obj
 0001:0001b568       $L184463                   0041c568 f   ScanInputs.obj
 0001:0001b573       __ehhandler$??0CScanInputs@@QAE@PAVCWnd@@@Z 0041c573 f   ScanInputs.obj
 0001:0001b57d       $L184475                   0041c57d f   ScanInputs.obj
 0001:0001b585       __ehhandler$??1CScanInputs@@UAE@XZ 0041c585 f   ScanInputs.obj
 0001:0001b58f       $L184489                   0041c58f f   ScanInputs.obj
 0001:0001b598       $L184490                   0041c598 f   ScanInputs.obj
 0001:0001b5a1       $L184491                   0041c5a1 f   ScanInputs.obj
 0001:0001b5aa       $L184492                   0041c5aa f   ScanInputs.obj
 0001:0001b5b3       $L184493                   0041c5b3 f   ScanInputs.obj
 0001:0001b5bc       __ehhandler$?LogAudioLevel@CScanInputs@@IAEXHHH@Z 0041c5bc f   ScanInputs.obj
 0001:0001b5c6       $L184501                   0041c5c6 f   ScanInputs.obj
 0001:0001b5cf       $L184502                   0041c5cf f   ScanInputs.obj
 0001:0001b5d8       $L184503                   0041c5d8 f   ScanInputs.obj
 0001:0001b5e1       $L184504                   0041c5e1 f   ScanInputs.obj
 0001:0001b5ea       __ehhandler$?LogModulation@CScanInputs@@IAEXHH@Z 0041c5ea f   ScanInputs.obj
 0001:0001b600       $L184511                   0041c600 f   ScanInputs.obj
 0001:0001b609       __ehhandler$??HATL@@YA?AV?$CStringT@DV?$StrTraitMFC_DLL@DV?$ChTraitsCRT@D@ATL@@@@@0@ABV10@0@Z 0041c609 f   ScanInputs.obj
 0001:0001b620       $L184327                   0041c620 f   SppConsole.obj
 0001:0001b62b       __ehhandler$?InitInstance@CSppConsoleApp@@UAEHXZ 0041c62b f   SppConsole.obj
 0001:0001b635       $L184351                   0041c635 f   SppConsole.obj
 0001:0001b640       __ehhandler$?OnAbout@CSppConsoleApp@@QAEXXZ 0041c640 f   SppConsole.obj
 0001:0001b650       $L184337                   0041c650 f   SppConsole.obj
 0001:0001b658       $L184338                   0041c658 f   SppConsole.obj
 0001:0001b663       $L184339                   0041c663 f   SppConsole.obj
 0001:0001b671       $L184340                   0041c671 f   SppConsole.obj
 0001:0001b67f       __ehhandler$??1CSppConsoleDlg@@UAE@XZ 0041c67f f   SppConsole.obj
 0001:0001b690       $L186082                   0041c690 f   SppConsoleDlg.obj
 0001:0001b698       $L186083                   0041c698 f   SppConsoleDlg.obj
 0001:0001b6a3       $L186084                   0041c6a3 f   SppConsoleDlg.obj
 0001:0001b6b1       $L186085                   0041c6b1 f   SppConsoleDlg.obj
 0001:0001b6bf       $L186086                   0041c6bf f   SppConsoleDlg.obj
 0001:0001b6d7       __ehhandler$??0CSppConsoleDlg@@QAE@PAVCWnd@@@Z 0041c6d7 f   SppConsoleDlg.obj
 0001:0001b6e1       $L186126                   0041c6e1 f   SppConsoleDlg.obj
 0001:0001b6fb       $L186127                   0041c6fb f   SppConsoleDlg.obj
 0001:0001b712       __ehhandler$?OnInitDialog@CSppConsoleDlg@@MAEHXZ 0041c712 f   SppConsoleDlg.obj
 0001:0001b71c       $L186142                   0041c71c f   SppConsoleDlg.obj
 0001:0001b727       __ehhandler$?OnPaint@CSppConsoleDlg@@IAEXXZ 0041c727 f   SppConsoleDlg.obj
 0001:0001b731       $L186151                   0041c731 f   SppConsoleDlg.obj
 0001:0001b73a       __ehhandler$?OnSelchangeModType@CSppConsoleDlg@@IAEXXZ 0041c73a f   SppConsoleDlg.obj
 0001:0001b744       $L186195                   0041c744 f   SppConsoleDlg.obj
 0001:0001b74c       __ehhandler$?ShowTrayIconMenu@CSppConsoleDlg@@IAEXI@Z 0041c74c f   SppConsoleDlg.obj
 0001:0001b756       $L186207                   0041c756 f   SppConsoleDlg.obj
 0001:0001b75f       $L186208                   0041c75f f   SppConsoleDlg.obj
 0001:0001b768       $L186209                   0041c768 f   SppConsoleDlg.obj
 0001:0001b771       __ehhandler$?OnInterSppApps@CSppConsoleDlg@@IAEJIJ@Z 0041c771 f   SppConsoleDlg.obj
 0001:0001b77b       $L186221                   0041c77b f   SppConsoleDlg.obj
 0001:0001b784       $L186222                   0041c784 f   SppConsoleDlg.obj
 0001:0001b78d       $L186223                   0041c78d f   SppConsoleDlg.obj
 0001:0001b796       $L186224                   0041c796 f   SppConsoleDlg.obj
 0001:0001b79f       $L186225                   0041c79f f   SppConsoleDlg.obj
 0001:0001b7a8       $L186226                   0041c7a8 f   SppConsoleDlg.obj
 0001:0001b7b1       $L186227                   0041c7b1 f   SppConsoleDlg.obj
 0001:0001b7ba       $L186228                   0041c7ba f   SppConsoleDlg.obj
 0001:0001b7c3       $L186229                   0041c7c3 f   SppConsoleDlg.obj
 0001:0001b7cc       __ehhandler$?GetStatusString@CSppConsoleDlg@@QAE?AV?$CStringT@DV?$StrTraitMFC_DLL@DV?$ChTraitsCRT@D@ATL@@@@@ATL@@XZ 0041c7cc f   SppConsoleDlg.obj
 0001:0001b7d6       $L186260                   0041c7d6 f   SppConsoleDlg.obj
 0001:0001b7df       __ehhandler$?OnSelSrc@CSppConsoleDlg@@IAEXXZ 0041c7df f   SppConsoleDlg.obj
 0001:0001b7e9       $L186266                   0041c7e9 f   SppConsoleDlg.obj
 0001:0001b7f2       __ehhandler$?OnAudioDst@CSppConsoleDlg@@IAEXXZ 0041c7f2 f   SppConsoleDlg.obj
 0001:0001b7fc       $L186272                   0041c7fc f   SppConsoleDlg.obj
 0001:0001b807       __ehhandler$?OnAudioVol@CSppConsoleDlg@@IAEXXZ 0041c807 f   SppConsoleDlg.obj
 0001:0001b811       $L186295                   0041c811 f   SppConsoleDlg.obj
 0001:0001b81a       __ehhandler$?OnAudioPrint@CSppConsoleDlg@@IAEXXZ 0041c81a f   SppConsoleDlg.obj
 0001:0001b824       $L186302                   0041c824 f   SppConsoleDlg.obj
 0001:0001b82d       __ehhandler$?OnPpjoyex@CSppConsoleDlg@@IAEXXZ 0041c82d f   SppConsoleDlg.obj
 0001:0001b837       $L186316                   0041c837 f   SppConsoleDlg.obj
 0001:0001b84e       $L186317                   0041c84e f   SppConsoleDlg.obj
 0001:0001b857       $L186318                   0041c857 f   SppConsoleDlg.obj
 0001:0001b86b       $L186319                   0041c86b f   SppConsoleDlg.obj
 0001:0001b874       __ehhandler$?UpdateFilterMenu@CSppConsoleDlg@@IAEXXZ 0041c874 f   SppConsoleDlg.obj
 0001:0001b87e       $L186325                   0041c87e f   SppConsoleDlg.obj
 0001:0001b887       $L186326                   0041c887 f   SppConsoleDlg.obj
 0001:0001b88f       __ehhandler$?OnFilterSelect@CSppConsoleDlg@@IAEXI@Z 0041c88f f   SppConsoleDlg.obj
 0001:0001b899       $L186335                   0041c899 f   SppConsoleDlg.obj
 0001:0001b8a2       __ehhandler$?OnTimer@CSppConsoleDlg@@QAEXI@Z 0041c8a2 f   SppConsoleDlg.obj
 0001:0001b8ac       $L186347                   0041c8ac f   SppConsoleDlg.obj
 0001:0001b8c0       __ehhandler$?OnWaveRec@CSppConsoleDlg@@IAEXXZ 0041c8c0 f   SppConsoleDlg.obj
 0001:0001b8ca       $L186358                   0041c8ca f   SppConsoleDlg.obj
 0001:0001b8d2       $L186359                   0041c8d2 f   SppConsoleDlg.obj
 0001:0001b8db       __ehhandler$?UpdateJitterStatus@CSppConsoleDlg@@IAEXHH@Z 0041c8db f   SppConsoleDlg.obj
 0001:0001b8e5       $L186366                   0041c8e5 f   SppConsoleDlg.obj
 0001:0001b8f0       __ehhandler$?UpdateFmsMenuItem@CSppConsoleDlg@@IAEXH@Z 0041c8f0 f   SppConsoleDlg.obj
 0001:0001b8fa       $L186374                   0041c8fa f   SppConsoleDlg.obj
 0001:0001b906       __ehhandler$?OnRunFms@CSppConsoleDlg@@QAEXXZ 0041c906 f   SppConsoleDlg.obj
 0001:0001b910       $L186386                   0041c910 f   SppConsoleDlg.obj
 0001:0001b924       __ehhandler$?OnLogAudioHdrs@CSppConsoleDlg@@QAEXXZ 0041c924 f   SppConsoleDlg.obj
 0001:0001b92e       $L186397                   0041c92e f   SppConsoleDlg.obj
 0001:0001b942       __ehhandler$?OnLogPulse@CSppConsoleDlg@@QAEXXZ 0041c942 f   SppConsoleDlg.obj
 0001:0001b94c       $L186408                   0041c94c f   SppConsoleDlg.obj
 0001:0001b960       __ehhandler$?OnLogFmsConn@CSppConsoleDlg@@QAEXXZ 0041c960 f   SppConsoleDlg.obj
 0001:0001b96a       $L186423                   0041c96a f   SppConsoleDlg.obj
 0001:0001b97e       __ehhandler$?OnLogRawPulse@CSppConsoleDlg@@QAEXXZ 0041c97e f   SppConsoleDlg.obj
 0001:0001b988       $L186430                   0041c988 f   SppConsoleDlg.obj
 0001:0001b993       __ehhandler$?OnBnClickedScandlg@CSppConsoleDlg@@QAEXXZ 0041c993 f   SppConsoleDlg.obj
 0001:0001b9a0       $L178732                   0041c9a0 f   StatLink.obj
 0001:0001b9a8       $L178733                   0041c9a8 f   StatLink.obj
 0001:0001b9b4       __ehhandler$??0CStaticLink@@QAE@XZ 0041c9b4 f   StatLink.obj
 0001:0001b9be       $L178768                   0041c9be f   StatLink.obj
 0001:0001b9c7       __ehhandler$?SetDefaultCursor@CStaticLink@@QAEXXZ 0041c9c7 f   StatLink.obj
 0001:0001b9d1       $L178775                   0041c9d1 f   StatLink.obj
 0001:0001b9da       $L178776                   0041c9da f   StatLink.obj
 0001:0001b9e3       __ehhandler$?SetLink@CStaticLink@@QAE?AV?$CStringT@DV?$StrTraitMFC_DLL@DV?$ChTraitsCRT@D@ATL@@@@@ATL@@V23@@Z 0041c9e3 f   StatLink.obj
 0001:0001b9f0       $L179747                   0041c9f0 f   StdAfx.obj
 0001:0001b9fb       $L179748                   0041c9fb f   StdAfx.obj
 0001:0001ba06       __ehhandler$?GetEnvironmentVariableWFake@ATL@@YGKPBGPAGK@Z 0041ca06 f   StdAfx.obj
 0001:0001ba10       $L179775                   0041ca10 f   StdAfx.obj
 0001:0001ba18       __ehhandler$?CompareStringWFake@ATL@@YGHKKPBGH0H@Z 0041ca18 f   StdAfx.obj
 0001:0001ba30       $L179820                   0041ca30 f   StdAfx.obj
 0001:0001ba3b       __ehhandler$?GetStringTypeExWFake@ATL@@YGHKKPBGHPAG@Z 0041ca3b f   StdAfx.obj
 0001:0001ba50       $L179918                   0041ca50 f   StdAfx.obj
 0001:0001ba58       __ehhandler$??1CAtlWinModule@ATL@@QAE@XZ 0041ca58 f   StdAfx.obj
 0001:0001ba70       $L183109                   0041ca70 f   WaveRec.obj
 0001:0001ba78       __ehhandler$??0CWaveRec@@QAE@PAVCWnd@@@Z 0041ca78 f   WaveRec.obj
 0001:0001ba82       $L183122                   0041ca82 f   WaveRec.obj
 0001:0001ba8a       __ehhandler$??1CWaveRec@@UAE@XZ 0041ca8a f   WaveRec.obj
 0001:0001ba94       $L183150                   0041ca94 f   WaveRec.obj
 0001:0001ba9d       __ehhandler$?OnInitDialog@CWaveRec@@UAEHXZ 0041ca9d f   WaveRec.obj
 0001:0001bab0       $L174902                   0041cab0 f   mfcs71d:stdafx.obj
 0001:0001babb       $L174903                   0041cabb f   mfcs71d:stdafx.obj
 0001:0001bac6       __ehhandler$?GetEnvironmentVariableWFake@ATL@@YGKPB_WPA_WK@Z 0041cac6 f   mfcs71d:stdafx.obj
 0001:0001bad0       $L174930                   0041cad0 f   mfcs71d:stdafx.obj
 0001:0001bad8       __ehhandler$?CompareStringWFake@ATL@@YGHKKPB_WH0H@Z 0041cad8 f   mfcs71d:stdafx.obj
 0001:0001baf0       $L174975                   0041caf0 f   mfcs71d:stdafx.obj
 0001:0001bafb       __ehhandler$?GetStringTypeExWFake@ATL@@YGHKKPB_WHPAG@Z 0041cafb f   mfcs71d:stdafx.obj
 0001:0001bb10       _$E5                       0041cb10 f   SppConsole.obj
 0001:0001bb30       _$E1                       0041cb30 f   StdAfx.obj
 0001:0001bb50       _$E1                       0041cb50 f   mfcs71d:stdafx.obj
 0001:0001bb70       _$E1                       0041cb70 f   atlsd:atltypes.obj
 0001:0001bb90       _$E5                       0041cb90 f   atlsd:Externs.obj
 0001:0001bbb0       _$E8                       0041cbb0 f   atlsd:Externs.obj
 0001:0001bbc0       _$E10                      0041cbc0 f   atlsd:Externs.obj
 0001:0001bbf0       _$E1                       0041cbf0 f   atlsd:Externs.obj
 0001:0001bc10       _$E5                       0041cc10 f   atlsd:atltrace.obj
 0001:0001bc30       _$E7                       0041cc30 f   atlsd:atltrace.obj
 0001:0001bc50       _$E9                       0041cc50 f   atlsd:atltrace.obj
 0001:0001bc70       _$E11                      0041cc70 f   atlsd:atltrace.obj
 0001:0001bc90       _$E13                      0041cc90 f   atlsd:atltrace.obj
 0001:0001bcb0       _$E15                      0041ccb0 f   atlsd:atltrace.obj
 0001:0001bcd0       _$E17                      0041ccd0 f   atlsd:atltrace.obj
 0001:0001bcf0       _$E19                      0041ccf0 f   atlsd:atltrace.obj
 0001:0001bd10       _$E21                      0041cd10 f   atlsd:atltrace.obj
 0001:0001bd30       _$E23                      0041cd30 f   atlsd:atltrace.obj
 0001:0001bd50       _$E25                      0041cd50 f   atlsd:atltrace.obj
 0001:0001bd70       _$E27                      0041cd70 f   atlsd:atltrace.obj
 0001:0001bd90       _$E29                      0041cd90 f   atlsd:atltrace.obj
 0001:0001bdb0       _$E31                      0041cdb0 f   atlsd:atltrace.obj
 0001:0001bdd0       _$E33                      0041cdd0 f   atlsd:atltrace.obj
 0001:0001bdf0       _$E35                      0041cdf0 f   atlsd:atltrace.obj
 0001:0001be10       _$E37                      0041ce10 f   atlsd:atltrace.obj
 0001:0001be30       _$E39                      0041ce30 f   atlsd:atltrace.obj
 0001:0001be50       _$E41                      0041ce50 f   atlsd:atltrace.obj
 0001:0001be70       _$E43                      0041ce70 f   atlsd:atltrace.obj
 0001:0001be90       _$E45                      0041ce90 f   atlsd:atltrace.obj
 0001:0001beb0       _$E47                      0041ceb0 f   atlsd:atltrace.obj
 0001:0001bed0       _$E49                      0041ced0 f   atlsd:atltrace.obj
 0001:0001bef0       _$E51                      0041cef0 f   atlsd:atltrace.obj
 0001:0001bf10       _$E53                      0041cf10 f   atlsd:atltrace.obj
 0001:0001bf30       _$E55                      0041cf30 f   atlsd:atltrace.obj
 0001:0001bf50       _$E57                      0041cf50 f   atlsd:atltrace.obj
 0001:0001bf70       _$E1                       0041cf70 f   atlsd:atltrace.obj
 0001:0001bf90       _$E1                       0041cf90 f   atlsd:AtlDebugAPI.obj
 0001:0001bfb0       _$E1                       0041cfb0 f   atlsd:atlfuncs.obj
 0001:0001bfd0       _$E5                       0041cfd0 f   atlsd:atlbase.obj
 0001:0001bff0       _$E1                       0041cff0 f   atlsd:atlbase.obj
 0001:0001c010       _$E1                       0041d010 f   atlsd:Allocate.obj
 0001:0001c030       _$E1                       0041d030 f   atlsd:AtlTraceModuleManager.obj
 0001:0001c050       _$E5                       0041d050 f   mfcs71d:appmodul.obj
 0001:0001c070       _$E6                       0041d070 f   SppConsole.obj
 0001:0001c080       _$E2                       0041d080 f   StdAfx.obj
 0001:0001c090       _$E2                       0041d090 f   mfcs71d:stdafx.obj
 0001:0001c0a0       _$E2                       0041d0a0 f   atlsd:atltypes.obj
 0001:0001c0b0       _$E6                       0041d0b0 f   atlsd:Externs.obj
 0001:0001c0c0       _$E11                      0041d0c0 f   atlsd:Externs.obj
 0001:0001c0d0       _$E2                       0041d0d0 f   atlsd:Externs.obj
 0001:0001c0e0       _$E2                       0041d0e0 f   atlsd:atltrace.obj
 0001:0001c0f0       _$E2                       0041d0f0 f   atlsd:AtlDebugAPI.obj
 0001:0001c100       _$E2                       0041d100 f   atlsd:atlfuncs.obj
 0001:0001c110       _$E6                       0041d110 f   atlsd:atlbase.obj
 0001:0001c120       _$E2                       0041d120 f   atlsd:atlbase.obj
 0001:0001c130       _$E2                       0041d130 f   atlsd:Allocate.obj
 0001:0001c140       _$E2                       0041d140 f   atlsd:AtlTraceModuleManager.obj

Line numbers for .\Debug\WaveRec.obj(c:\program files\microsoft visual studio .net 2003\vc7\include\tchar.h) segment .text

   843 0001:0000fac0

Line numbers for .\Debug\WaveRec.obj(c:\code\smartpropoplus\341\sppconsole\waverec.cpp) segment .text

    17 0001:0000ee30    17 0001:0000ee40    17 0001:0000ee50    23 0001:0000ee60
    24 0001:0000eecc    25 0001:0000eed3    26 0001:0000eee0    27 0001:0000eeed
    28 0001:0000eefa    29 0001:0000ef07    32 0001:0000ef30    33 0001:0000ef5c
    36 0001:0000ef90    37 0001:0000ef97    38 0001:0000efa3    39 0001:0000efbb
    42 0001:0000efd0    42 0001:0000efe0    54 0001:0000eff0    56 0001:0000f003
    59 0001:0000f015    62 0001:0000f023    63 0001:0000f039    64 0001:0000f047
    67 0001:0000f04f    69 0001:0000f05d    70 0001:0000f06b    75 0001:0000f081
    76 0001:0000f08b    77 0001:0000f095    78 0001:0000f0a3    79 0001:0000f0b7
    80 0001:0000f0d3    83 0001:0000f0eb    84 0001:0000f0f9    87 0001:0000f110
    91 0001:0000f123    92 0001:0000f141    93 0001:0000f15d    94 0001:0000f15f
    95 0001:0000f16c    98 0001:0000f17e   101 0001:0000f18c   103 0001:0000f1a5
   104 0001:0000f1af   106 0001:0000f1b9   107 0001:0000f1bb   110 0001:0000f1c5
   111 0001:0000f1d3   114 0001:0000f1e7   115 0001:0000f201   119 0001:0000f210
   120 0001:0000f219   121 0001:0000f229   122 0001:0000f22f   124 0001:0000f267
   125 0001:0000f277   126 0001:0000f27d   128 0001:0000f2b5   129 0001:0000f2c5
   130 0001:0000f2cb   132 0001:0000f303   133 0001:0000f313   134 0001:0000f319
   135 0001:0000f351   138 0001:0000f360   139 0001:0000f37e   140 0001:0000f38c
   141 0001:0000f39c   142 0001:0000f3b8   143 0001:0000f3d6   144 0001:0000f3f4
   147 0001:0000f410   148 0001:0000f417   149 0001:0000f42f   152 0001:0000f440
   153 0001:0000f447   154 0001:0000f45f   156 0001:0000f470   157 0001:0000f477
   158 0001:0000f48f   160 0001:0000f4a0   161 0001:0000f4a7   162 0001:0000f4bf
   165 0001:0000f4d0   166 0001:0000f4d7   168 0001:0000f4e5   169 0001:0000f4fb
   172 0001:0000f4fd   174 0001:0000f50b   175 0001:0000f521   178 0001:0000f523
   181 0001:0000f531   182 0001:0000f53f   184 0001:0000f54d   185 0001:0000f558
   186 0001:0000f560   190 0001:0000f570   192 0001:0000f589   196 0001:0000f59b
   199 0001:0000f5b9   200 0001:0000f5c8   201 0001:0000f5d2   202 0001:0000f5dc
   203 0001:0000f5e8   204 0001:0000f5f2   205 0001:0000f5fc   206 0001:0000f606
   207 0001:0000f610   208 0001:0000f61a   209 0001:0000f62c   210 0001:0000f636
   211 0001:0000f640   214 0001:0000f64a   215 0001:0000f65d   216 0001:0000f666
   219 0001:0000f668   220 0001:0000f687   221 0001:0000f690   222 0001:0000f6ae
   225 0001:0000f6c0   227 0001:0000f6d9   231 0001:0000f6eb   234 0001:0000f709
   235 0001:0000f718   236 0001:0000f722   237 0001:0000f72c   238 0001:0000f738
   239 0001:0000f742   240 0001:0000f74c   241 0001:0000f756   242 0001:0000f760
   243 0001:0000f76a   244 0001:0000f77c   245 0001:0000f786   246 0001:0000f790
   249 0001:0000f79a   250 0001:0000f7ad   251 0001:0000f7ba   252 0001:0000f7bc
   255 0001:0000f7d0   261 0001:0000f7e3   263 0001:0000f7e9   265 0001:0000f7f5
   266 0001:0000f826   267 0001:0000f83e   268 0001:0000f84a   270 0001:0000f852
   273 0001:0000f854   275 0001:0000f85a   276 0001:0000f866   277 0001:0000f872
   278 0001:0000f87a   281 0001:0000f87c   282 0001:0000f888   288 0001:0000f8a0
   290 0001:0000f8a9   293 0001:0000f8b7   294 0001:0000f8c7   295 0001:0000f8d1
   296 0001:0000f8ed   299 0001:0000f8fb   300 0001:0000f90b   301 0001:0000f911
   302 0001:0000f91b   304 0001:0000f930   305 0001:0000f946   306 0001:0000f954
   307 0001:0000f96a   312 0001:0000f96f   314 0001:0000f988   315 0001:0000f992
   317 0001:0000f99c   319 0001:0000f99e   320 0001:0000f9a8   321 0001:0000f9b6
   326 0001:0000f9cc   327 0001:0000f9da   330 0001:0000f9ee   333 0001:0000fa01
   335 0001:0000fa18   339 0001:0000fa20   340 0001:0000fa30   341 0001:0000fa50
   342 0001:0000fa70

Line numbers for .\Debug\StdAfx.obj(c:\program files\microsoft visual studio .net 2003\vc7\atlmfc\include\atlsimpcoll.h) segment .text

    97 0001:0000eb60   100 0001:0000ed00   101 0001:0000ed07   102 0001:0000ed0f
   135 0001:0000ed20   136 0001:0000ed27   137 0001:0000ed2d   173 0001:0000ed40
   174 0001:0000ed49   176 0001:0000ed51   177 0001:0000ed6e   178 0001:0000ed70
   179 0001:0000ed7f   181 0001:0000ed88   182 0001:0000ed92   183 0001:0000ed9c
   194 0001:0000eda0   195 0001:0000eda7   196 0001:0000edda   198 0001:0000edeb
   200 0001:0000edf7   201 0001:0000ee02

Line numbers for .\Debug\StdAfx.obj(c:\program files\microsoft visual studio .net 2003\vc7\atlmfc\include\atlcore.h) segment .text

   114 0001:0000eb40   116 0001:0000eb47   117 0001:0000eb57   206 0001:0000ec00
   207 0001:0000ec07   208 0001:0000ec0d   147 0001:0000ece0   148 0001:0000ece7
   149 0001:0000ecf1   150 0001:0000ecf3

Line numbers for .\Debug\StdAfx.obj(c:\program files\microsoft visual studio .net 2003\vc7\atlmfc\include\atlbase.h) segment .text

  2573 0001:0000ead0  2575 0001:0000eae1  2576 0001:0000eaea  2577 0001:0000eaf6
  2578 0001:0000eafc  2579 0001:0000eb03  2582 0001:0000eb90  2583 0001:0000ebb3
  2584 0001:0000ebbb  2587 0001:0000ebe0  2588 0001:0000ebe7  2589 0001:0000ebfb
  6215 0001:0000ec40  6216 0001:0000ec44  6217 0001:0000ec4a  6218 0001:0000ec51
  6219 0001:0000ec59  6220 0001:0000ec5d  6221 0001:0000ec65  6223 0001:0000ec6c
  6224 0001:0000ec8e  6225 0001:0000ecad  6226 0001:0000ecb8  6227 0001:0000ecc3
  6228 0001:0000eccc  6229 0001:0000ecce  2602 0001:0001bb30

Line numbers for .\Debug\StdAfx.obj(c:\program files\microsoft visual studio .net 2003\vc7\atlmfc\include\atlcomcli.h) segment .text

   628 0001:0000e720   629 0001:0000e727   630 0001:0000e733

Line numbers for .\Debug\StdAfx.obj(c:\program files\microsoft visual studio .net 2003\vc7\atlmfc\include\atltrace.h) segment .text

   161 0001:0000e0e0   162 0001:0000e0e4   163 0001:0000e0ea   164 0001:0000e114
   165 0001:0000e11b

Line numbers for .\Debug\StdAfx.obj(c:\program files\microsoft visual studio .net 2003\vc7\atlmfc\include\atlexcept.h) segment .text

    61 0001:0000e080    62 0001:0000e086    64 0001:0000e0b4    66 0001:0000e0bd
    70 0001:0000e0c2    75 0001:0000e0cb    80 0001:0000ea20    81 0001:0000ea26
    82 0001:0000ea2f    83 0001:0000ea5e    26 0001:0000ee10    27 0001:0000ee13
    28 0001:0000ee25

Line numbers for .\Debug\StdAfx.obj(c:\program files\microsoft visual studio .net 2003\vc7\atlmfc\include\atlalloc.h) segment .text

   331 0001:0000df10   332 0001:0000df36   334 0001:0000df3a   336 0001:0000df41
   341 0001:0000df66   343 0001:0000df81   344 0001:0000df85   346 0001:0000df92
   347 0001:0000df95   373 0001:0000e740   375 0001:0000e760   376 0001:0000e769
   377 0001:0000e77b   378 0001:0000e781   381 0001:0000e785   382 0001:0000e78f
   384 0001:0000e797   385 0001:0000e79f    30 0001:0000e7b0    31 0001:0000e7b3
    32 0001:0000e7c0   387 0001:0000e7d0   389 0001:0000e7d9   391 0001:0000e7e1
   392 0001:0000e7e9   393 0001:0000e7f5   394 0001:0000e801   395 0001:0000e803
    35 0001:0000e810    36 0001:0000e813    37 0001:0000e820   216 0001:0000e830
   217 0001:0000e840   225 0001:0000e850   226 0001:0000e857   228 0001:0000e864
   230 0001:0000e86c   233 0001:0000e870   234 0001:0000e877   235 0001:0000e87c
   243 0001:0000e880   244 0001:0000e887   245 0001:0000e893   276 0001:0000e910
   277 0001:0000e917   278 0001:0000e941   280 0001:0000e94a   282 0001:0000e956
   284 0001:0000e958   287 0001:0000e963   288 0001:0000e968   312 0001:0000e970
   313 0001:0000e977   314 0001:0000e985   365 0001:0000ea70   366 0001:0000ea77
   367 0001:0000ea7d   292 0001:0000ea90   293 0001:0000ea99   294 0001:0000eaa8
   296 0001:0000eaae   298 0001:0000eab8   299 0001:0000eac0

Line numbers for .\Debug\StdAfx.obj(c:\program files\microsoft visual studio .net 2003\vc7\atlmfc\include\atlconv.h) segment .text

   157 0001:0000dce0   158 0001:0000dce3   159 0001:0000dce9   573 0001:0000dfb0
   574 0001:0000dfb4   575 0001:0000dfdc   576 0001:0000e004   577 0001:0000e010
   581 0001:0000e014   582 0001:0000e01a   583 0001:0000e03b   585 0001:0000e041
   586 0001:0000e067   588 0001:0000e06b   589 0001:0000e06e   554 0001:0000e4a0
   555 0001:0000e4a4   556 0001:0000e4cc   557 0001:0000e4f4   558 0001:0000e500
   562 0001:0000e504   563 0001:0000e50c   564 0001:0000e529   566 0001:0000e52f
   567 0001:0000e555   569 0001:0000e559   570 0001:0000e55c   419 0001:0000e8a0
   420 0001:0000e8b2   421 0001:0000e8c4   428 0001:0000e8d0   429 0001:0000e8d7
   431 0001:0000e8e4   433 0001:0000e8f3   436 0001:0000e900   437 0001:0000e907
   438 0001:0000e90c   442 0001:0000e990   443 0001:0000e999   445 0001:0000e99f
   446 0001:0000e9a8   448 0001:0000e9aa   449 0001:0000e9ba   451 0001:0000e9c2
   453 0001:0000e9cb   454 0001:0000e9dd   456 0001:0000e9e5   460 0001:0000e9ef
   462 0001:0000ea15   464 0001:0000ea1a

Line numbers for .\Debug\StdAfx.obj(c:\program files\microsoft visual studio .net 2003\vc7\atlmfc\include\cstringt.h) segment .text

   183 0001:0000da60   185 0001:0000da63   187 0001:0000da7b   188 0001:0000da8d
   115 0001:0000daa0   119 0001:0000daa4   124 0001:0000dad3   125 0001:0000dade
   126 0001:0000dae4   132 0001:0000dae6   135 0001:0000daec   136 0001:0000daf9
   159 0001:0000db00   162 0001:0000db28   163 0001:0000db3a   165 0001:0000db4d
   166 0001:0000db66   167 0001:0000db6c   169 0001:0000dba2   170 0001:0000dbb3
   172 0001:0000dbd5   173 0001:0000dbfb   174 0001:0000dc01   175 0001:0000dc39
   176 0001:0000dc66   178 0001:0000dc8d   179 0001:0000dcc0   216 0001:0000dcf0
   217 0001:0000dcf3   219 0001:0000dd0b   220 0001:0000dd29   192 0001:0000dd30
   193 0001:0000dd4b   195 0001:0000dd77   196 0001:0000dd7e   198 0001:0000dd88
   199 0001:0000de10   200 0001:0000de16   203 0001:0000de20   204 0001:0000de27
   206 0001:0000de31   207 0001:0000deb9   208 0001:0000debf   211 0001:0000dec9
   212 0001:0000defc   240 0001:0000e120   241 0001:0000e123   243 0001:0000e13b
   244 0001:0000e155   224 0001:0000e160   226 0001:0000e188   228 0001:0000e19a
   229 0001:0000e1be   230 0001:0000e1d0   232 0001:0000e1fd   233 0001:0000e203
   235 0001:0000e20d   236 0001:0000e250   254 0001:0000e270   255 0001:0000e273
   257 0001:0000e28b   258 0001:0000e299   247 0001:0000e2a0   248 0001:0000e2a6
   250 0001:0000e2c3   251 0001:0000e36f   273 0001:0000e380   274 0001:0000e383
   276 0001:0000e39b   277 0001:0000e3a5   261 0001:0000e3b0   262 0001:0000e3b6
   265 0001:0000e3d3   266 0001:0000e428   267 0001:0000e432   269 0001:0000e493
   270 0001:0000e496   292 0001:0000e570   293 0001:0000e573   295 0001:0000e58b
   296 0001:0000e595   280 0001:0000e5a0   281 0001:0000e5a6   284 0001:0000e5c3
   285 0001:0000e618   286 0001:0000e622   288 0001:0000e683   289 0001:0000e686

Line numbers for .\Debug\StatLink.obj(c:\program files\microsoft visual studio .net 2003\vc7\atlmfc\include\atltrace.h) segment .text

   158 0001:0000d9a0   173 0001:0000d9d0   174 0001:0000d9d4   175 0001:0000d9da
   176 0001:0000da09   177 0001:0000da10   121 0001:0000da20   122 0001:0000da23
   123 0001:0000da4a   202 0001:0000da50   203 0001:0000da57   204 0001:0000da5c

Line numbers for .\Debug\StatLink.obj(c:\code\smartpropoplus\341\sppconsole\statlink.cpp) segment .text

    19 0001:0000d4c0    19 0001:0000d4d0    19 0001:0000d4e0    21 0001:0000d4f0
    21 0001:0000d500    30 0001:0000d510    31 0001:0000d55f    32 0001:0000d569
    33 0001:0000d573    34 0001:0000d57d    35 0001:0000d587    41 0001:0000d5a0
    42 0001:0000d5b3    43 0001:0000d5ca    44 0001:0000d5d5    47 0001:0000d5e0
    50 0001:0000d5f9    51 0001:0000d600    54 0001:0000d612    57 0001:0000d621
    58 0001:0000d636    59 0001:0000d63a    63 0001:0000d649    64 0001:0000d65b
    65 0001:0000d687    67 0001:0000d691    70 0001:0000d699    72 0001:0000d6a4
    73 0001:0000d6a7    78 0001:0000d6c0    79 0001:0000d6c9    80 0001:0000d6dc
    85 0001:0000d6eb    86 0001:0000d70e    87 0001:0000d724    88 0001:0000d72e
    89 0001:0000d738    90 0001:0000d73a    91 0001:0000d742    94 0001:0000d76c
    99 0001:0000d770   100 0001:0000d78e   103 0001:0000d79b   104 0001:0000d7ab
   105 0001:0000d7c5   107 0001:0000d7d0   109 0001:0000d7de   110 0001:0000d7f1
   111 0001:0000d7f7   112 0001:0000d806   113 0001:0000d80c   115 0001:0000d81c
   116 0001:0000d826   117 0001:0000d836   120 0001:0000d850   121 0001:0000d857
   123 0001:0000d860   124 0001:0000d86d   126 0001:0000d874   127 0001:0000d876
   133 0001:0000d880   134 0001:0000d8ac   136 0001:0000d8b9   137 0001:0000d8c9
   139 0001:0000d902   140 0001:0000d912   141 0001:0000d922   142 0001:0000d958

Line numbers for .\Debug\SppConsoleDlg.obj(c:\program files\microsoft visual studio .net 2003\vc7\atlmfc\include\afxwin4.inl) segment .text

    52 0001:0000d480

Line numbers for .\Debug\SppConsoleDlg.obj(c:\code\smartpropoplus\341\sppconsole\sppconsoledlg.cpp) segment .text

    48 0001:00008a20    50 0001:00008b7d    53 0001:00008b8a    54 0001:00008ba4
    57 0001:00008bc0    58 0001:00008bc7    60 0001:00008bd3    61 0001:00008be8
    62 0001:00008bff    63 0001:00008c17    64 0001:00008c2f    65 0001:00008c46
    66 0001:00008c5e    67 0001:00008c76    68 0001:00008c8d    69 0001:00008ca5
    70 0001:00008cbd    71 0001:00008cd4    72 0001:00008cec    74 0001:00008d04
    75 0001:00008d1b    80 0001:00008d30    80 0001:00008d40   141 0001:00008d50
   143 0001:00008d56   147 0001:00008d5d   149 0001:00008d6a   153 0001:00008d70
   160 0001:00008d82   165 0001:00008d88   166 0001:00008d98   168 0001:00008d9f
   170 0001:00008da9   172 0001:00008daf   176 0001:00008dce   178 0001:00008dd8
   179 0001:00008ddb   183 0001:00008de0   184 0001:00008de3   185 0001:00008df3
   186 0001:00008e03   187 0001:00008e13   188 0001:00008e23   189 0001:00008e33
   192 0001:00008e40   193 0001:00008e43   194 0001:00008e53   195 0001:00008e63
   201 0001:00008e70   206 0001:00008e9e   208 0001:00008eae   209 0001:00008ebe
   211 0001:00008ec7   212 0001:00008ee2   216 0001:00008efb   219 0001:00008f28
   220 0001:00008f39   222 0001:00008f4f   223 0001:00008f5a   226 0001:00008f61
   231 0001:00008f7c   232 0001:00008f96   233 0001:00008fb0   237 0001:00008fbd
   239 0001:00008fd1   240 0001:00008ff3   241 0001:00009004   244 0001:00009019
   247 0001:00009024   250 0001:00009034   253 0001:0000903f   254 0001:000090b5
   255 0001:000090c0   256 0001:000090d1   257 0001:000090dc   261 0001:000090f4
   262 0001:0000915d   263 0001:00009173   264 0001:0000917e   268 0001:0000918b
   269 0001:0000919c   271 0001:000091ab   272 0001:000091c0   274 0001:000091d9
   275 0001:000091ea   276 0001:00009202   277 0001:0000920a   278 0001:00009215
   279 0001:00009220   280 0001:0000922b   282 0001:00009236   283 0001:00009256
   288 0001:00009273   292 0001:0000927e   295 0001:0000929a   296 0001:000092b2
   297 0001:000092c8   300 0001:000092e5   302 0001:000092f0   304 0001:000092f5
   307 0001:00009310   309 0001:00009319   310 0001:0000932b   311 0001:0000933d
   312 0001:0000935b   313 0001:0000938b   314 0001:0000939a   315 0001:000093a7
   316 0001:000093af   317 0001:000093b7   324 0001:000093c0   325 0001:000093ee
   327 0001:00009401   329 0001:0000941a   332 0001:00009435   333 0001:00009443
   334 0001:00009451   335 0001:00009459   336 0001:00009468   337 0001:00009481
   340 0001:0000949a   341 0001:000094ba   342 0001:000094cc   344 0001:000094ce
   346 0001:000094d9   359 0001:00009500   360 0001:00009507   361 0001:00009510
   364 0001:00009520   365 0001:00009527   366 0001:0000952f   367 0001:00009537
   368 0001:0000953f   369 0001:00009550   372 0001:00009560   375 0001:0000957e
   376 0001:0000958e   377 0001:00009594   380 0001:00009599   381 0001:000095a9
   382 0001:000095b4   385 0001:000095c4   386 0001:000095cb   387 0001:000095dd
   388 0001:000095f6   391 0001:00009608   392 0001:0000960e   395 0001:00009616
   396 0001:0000962e   397 0001:00009646   398 0001:0000965e   399 0001:00009676
   400 0001:00009684   403 0001:000096b0   404 0001:000096b7   405 0001:000096c4
   408 0001:000096d0   410 0001:000096d9   411 0001:000096e9   412 0001:000096ef
   415 0001:000096f1   418 0001:000096fc   421 0001:00009708   422 0001:0000970e
   425 0001:00009715   427 0001:00009717   428 0001:00009727   429 0001:00009732
   430 0001:00009738   431 0001:00009740   432 0001:00009742   436 0001:0000974a
   437 0001:00009750   438 0001:0000975a   439 0001:0000975c   441 0001:00009766
   444 0001:00009770   445 0001:00009777   446 0001:00009784   448 0001:00009790
   449 0001:00009797   450 0001:000097a1   451 0001:000097a8   453 0001:000097b0
   454 0001:000097b7   455 0001:000097c4   458 0001:000097d0   459 0001:000097d7
   460 0001:000097e1   461 0001:000097e8   465 0001:000097f0   466 0001:000097f7
   467 0001:00009805   468 0001:00009807   469 0001:00009811   471 0001:0000981b
   475 0001:00009820   476 0001:00009827   477 0001:00009835   478 0001:00009837
   479 0001:00009841   481 0001:0000984b   486 0001:00009850   489 0001:00009859
   490 0001:00009866   491 0001:00009875   495 0001:0000987d   496 0001:0000988d
   497 0001:00009893   501 0001:0000989b   502 0001:000098a2   504 0001:000098b0
   505 0001:000098d3   506 0001:000098dc   509 0001:000098de   510 0001:000098ed
   511 0001:000098f6   512 0001:000098f8   515 0001:000098ff   518 0001:0000990b
   519 0001:0000991b   520 0001:0000992a   521 0001:0000993a   522 0001:0000994a
   523 0001:00009959   526 0001:0000996e   527 0001:00009977   528 0001:00009981
   529 0001:00009983   530 0001:0000998d   531 0001:00009990   541 0001:000099a0
   542 0001:000099a9   543 0001:000099b9   545 0001:000099c9   547 0001:000099d1
   548 0001:000099e3   549 0001:000099f5   550 0001:000099ff   552 0001:00009a09
   554 0001:00009a0b   555 0001:00009a1d   556 0001:00009a2f   557 0001:00009a39
   560 0001:00009a43   568 0001:00009a50   570 0001:00009a6a   571 0001:00009a83
   575 0001:00009a9c   576 0001:00009aaf   577 0001:00009ab9   580 0001:00009ac7
   581 0001:00009ad1   582 0001:00009ae0   583 0001:00009ae9   584 0001:00009af3
   585 0001:00009afd   587 0001:00009b06   588 0001:00009b0c   590 0001:00009b20
   591 0001:00009b22   592 0001:00009b29   594 0001:00009b3b   597 0001:00009b40
   598 0001:00009b4a   599 0001:00009b59   600 0001:00009b62   601 0001:00009b6c
   602 0001:00009b76   603 0001:00009b7f   604 0001:00009b86   605 0001:00009b95
   606 0001:00009b9f   607 0001:00009ba3   608 0001:00009baa   610 0001:00009bbc
   611 0001:00009bc3   613 0001:00009bca   614 0001:00009bd0   616 0001:00009be4
   617 0001:00009be6   618 0001:00009bed   621 0001:00009bff   622 0001:00009c05
   625 0001:00009c0f   626 0001:00009c12   630 0001:00009c30   634 0001:00009c49
   635 0001:00009c53   636 0001:00009c62   638 0001:00009c6b   640 0001:00009c7d
   641 0001:00009c80   648 0001:00009c90   651 0001:00009caa   654 0001:00009cc3
   655 0001:00009cd6   656 0001:00009ce0   657 0001:00009cee   659 0001:00009cf5
   660 0001:00009cff   661 0001:00009d0e   662 0001:00009d17   663 0001:00009d21
   664 0001:00009d28   667 0001:00009d2f   668 0001:00009d35   669 0001:00009d46
   670 0001:00009d48   673 0001:00009d5a   674 0001:00009d60   675 0001:00009d67
   676 0001:00009d69   678 0001:00009d7d   680 0001:00009d8f   682 0001:00009d92
   688 0001:00009db0   692 0001:00009dc9   693 0001:00009dd3   694 0001:00009de2
   695 0001:00009deb   696 0001:00009df5   697 0001:00009dfb   699 0001:00009e0f
   700 0001:00009e11   702 0001:00009e18   704 0001:00009e2a   705 0001:00009e2d
   709 0001:00009e40   710 0001:00009e47   711 0001:00009e53   718 0001:00009e60
   722 0001:00009e69   723 0001:00009e6f   726 0001:00009e75   727 0001:00009e87
   730 0001:00009e8f   731 0001:00009e9a   734 0001:00009ea7   735 0001:00009eac
   738 0001:00009ec0   739 0001:00009ec7   740 0001:00009ec9   747 0001:00009ed0
   751 0001:00009ed9   753 0001:00009ee0   754 0001:00009eef   756 0001:00009f02
   758 0001:00009f0a   759 0001:00009f1a   760 0001:00009f20   761 0001:00009f27
   762 0001:00009f33   764 0001:00009f3f   765 0001:00009f41   772 0001:00009f50
   774 0001:00009f6e   775 0001:00009f7d   776 0001:00009f8d   777 0001:00009fa1
   778 0001:00009fae   779 0001:00009fb4   782 0001:00009fc8   786 0001:00009fd9
   788 0001:00009fe5   790 0001:00009ff1   791 0001:00009fff   792 0001:0000a013
   793 0001:0000a015   795 0001:0000a029   796 0001:0000a038   803 0001:0000a049
   804 0001:0000a051   805 0001:0000a05b   807 0001:0000a068   809 0001:0000a08a
   817 0001:0000a0b0   818 0001:0000a0b7   819 0001:0000a0c5   821 0001:0000a0d4
   822 0001:0000a0e0   831 0001:0000a0f0   832 0001:0000a0f7   833 0001:0000a105
   835 0001:0000a10d   836 0001:0000a10f   846 0001:0000a120   847 0001:0000a13e
   850 0001:0000a14b   852 0001:0000a158   853 0001:0000a166   854 0001:0000a174
   855 0001:0000a176   857 0001:0000a18d   860 0001:0000a19f   863 0001:0000a1a9
   864 0001:0000a1bf   865 0001:0000a1d5   866 0001:0000a1ee   869 0001:0000a20c
   871 0001:0000a216   874 0001:0000a220   877 0001:0000a22d   879 0001:0000a242
   880 0001:0000a250   881 0001:0000a283   882 0001:0000a29f   885 0001:0000a2b1
   888 0001:0000a2bb   889 0001:0000a2d1   890 0001:0000a2e7   891 0001:0000a300
   894 0001:0000a31a   896 0001:0000a324   900 0001:0000a343   902 0001:0000a34c
   903 0001:0000a358   907 0001:0000a362   909 0001:0000a36b   910 0001:0000a377
   913 0001:0000a381   915 0001:0000a38e   917 0001:0000a39e   918 0001:0000a3a9
   922 0001:0000a3b2   923 0001:0000a3bd   925 0001:0000a3dc   927 0001:0000a3e4
   929 0001:0000a3ef   930 0001:0000a405   931 0001:0000a409   932 0001:0000a40e
   934 0001:0000a41c   935 0001:0000a432   936 0001:0000a436   937 0001:0000a43b
   939 0001:0000a449   940 0001:0000a45b   941 0001:0000a45f   942 0001:0000a461
   944 0001:0000a470   945 0001:0000a486   946 0001:0000a48a   947 0001:0000a48c
   949 0001:0000a49b   950 0001:0000a4b1   951 0001:0000a4b5   953 0001:0000a4b7
   954 0001:0000a4d2   957 0001:0000a4d6   959 0001:0000a4df   960 0001:0000a4ef
   962 0001:0000a501   963 0001:0000a50a   964 0001:0000a523   968 0001:0000a53f
   972 0001:0000a548   973 0001:0000a54e   974 0001:0000a558   976 0001:0000a55a
   977 0001:0000a564   982 0001:0000a56c   983 0001:0000a56e   991 0001:0000a580
   992 0001:0000a587   994 0001:0000a593   995 0001:0000a5a3   997 0001:0000a5b3
   998 0001:0000a5bf  1000 0001:0000a5c4  1004 0001:0000a5cc  1007 0001:0000a5d0
  1008 0001:0000a5d7  1009 0001:0000a5e5  1013 0001:0000a5f0  1015 0001:0000a5f7
  1017 0001:0000a612  1018 0001:0000a61e  1020 0001:0000a622  1021 0001:0000a632
  1022 0001:0000a634  1028 0001:0000a640  1029 0001:0000a665  1030 0001:0000a675
  1034 0001:0000a6ca  1035 0001:0000a6da  1038 0001:0000a6e0  1039 0001:0000a6eb
  1041 0001:0000a6f1  1042 0001:0000a701  1048 0001:0000a717  1049 0001:0000a727
  1052 0001:0000a72d  1053 0001:0000a738  1054 0001:0000a73e  1055 0001:0000a74c
  1056 0001:0000a74e  1060 0001:0000a75c  1062 0001:0000a762  1063 0001:0000a772
  1064 0001:0000a782  1066 0001:0000a78e  1067 0001:0000a79a  1068 0001:0000a7a8
  1069 0001:0000a7aa  1074 0001:0000a7b8  1075 0001:0000a7c8  1077 0001:0000a7da
  1078 0001:0000a7e5  1079 0001:0000a7eb  1080 0001:0000a7f9  1081 0001:0000a7fb
  1082 0001:0000a80b  1085 0001:0000a821  1087 0001:0000a8b8  1088 0001:0000a922
  1092 0001:0000a940  1093 0001:0000a949  1094 0001:0000a94f  1095 0001:0000a95d
  1098 0001:0000a968  1099 0001:0000a979  1101 0001:0000a981  1102 0001:0000a98b
  1103 0001:0000a996  1106 0001:0000a99d  1107 0001:0000a99f  1131 0001:0000a9b0
  1133 0001:0000a9b9  1135 0001:0000a9dc  1137 0001:0000a9f1  1139 0001:0000aa02
  1140 0001:0000aa0c  1141 0001:0000aa16  1143 0001:0000aa2e  1144 0001:0000aa38
  1147 0001:0000aa42  1149 0001:0000aa58  1150 0001:0000aa6e  1152 0001:0000aa84
  1153 0001:0000aa8e  1156 0001:0000aa98  1157 0001:0000aaa3  1158 0001:0000aaad
  1160 0001:0000aab8  1161 0001:0000aace  1163 0001:0000aae6  1164 0001:0000aaf0
  1167 0001:0000aafa  1169 0001:0000aafc  1170 0001:0000ab06  1173 0001:0000ab26
  1174 0001:0000ab34  1175 0001:0000ab43  1178 0001:0000ab56  1179 0001:0000ab78
  1182 0001:0000ab91  1183 0001:0000ab9e  1185 0001:0000abae  1187 0001:0000ac08
  1188 0001:0000ac0d  1191 0001:0000ac20  1195 0001:0000ac29  1196 0001:0000ac39
  1197 0001:0000ac3f  1200 0001:0000ac44  1201 0001:0000ac55  1202 0001:0000ac6f
  1205 0001:0000ac90  1207 0001:0000ac96  1208 0001:0000aca3  1209 0001:0000acb5
  1211 0001:0000acbd  1213 0001:0000acbf  1214 0001:0000acd0  1215 0001:0000ace2
  1220 0001:0000acfa  1221 0001:0000ad02  1224 0001:0000ad10  1225 0001:0000ad17
  1226 0001:0000ad24  1229 0001:0000ad30  1232 0001:0000ad39  1233 0001:0000ad49
  1234 0001:0000ad4f  1237 0001:0000ad54  1238 0001:0000ad5f  1239 0001:0000ad65
  1241 0001:0000ad6a  1243 0001:0000ad76  1246 0001:0000ad8b  1247 0001:0000ad9b
  1248 0001:0000ada1  1251 0001:0000ada3  1255 0001:0000adab  1256 0001:0000adb2
  1258 0001:0000adcd  1259 0001:0000addd  1260 0001:0000ade6  1263 0001:0000ade8
  1264 0001:0000adf9  1265 0001:0000ae0b  1268 0001:0000ae10  1269 0001:0000ae17
  1270 0001:0000ae24  1273 0001:0000ae30  1274 0001:0000ae39  1275 0001:0000ae49
  1276 0001:0000ae4f  1279 0001:0000ae54  1282 0001:0000ae61  1283 0001:0000ae6c
  1284 0001:0000ae72  1287 0001:0000ae74  1288 0001:0000ae80  1292 0001:0000ae88
  1293 0001:0000ae99  1294 0001:0000aea5  1295 0001:0000aea7  1298 0001:0000aec2
  1299 0001:0000aec8  1301 0001:0000aeda  1302 0001:0000aee8  1305 0001:0000aef0
  1308 0001:0000af00  1310 0001:0000af09  1311 0001:0000af19  1312 0001:0000af1f
  1315 0001:0000af24  1316 0001:0000af35  1317 0001:0000af41  1320 0001:0000af43
  1323 0001:0000af55  1324 0001:0000af65  1325 0001:0000af6b  1328 0001:0000af6d
  1329 0001:0000af7e  1330 0001:0000af8a  1331 0001:0000af8c  1334 0001:0000afa7
  1335 0001:0000afad  1336 0001:0000afbf  1339 0001:0000afd0  1343 0001:0000afd9
  1344 0001:0000afe9  1347 0001:0000affa  1350 0001:0000b00c  1353 0001:0000b01e
  1354 0001:0000b02c  1356 0001:0000b034  1359 0001:0000b040  1363 0001:0000b049
  1364 0001:0000b059  1365 0001:0000b05f  1366 0001:0000b064  1368 0001:0000b070
  1369 0001:0000b080  1370 0001:0000b086  1371 0001:0000b08b  1374 0001:0000b097
  1375 0001:0000b0a7  1377 0001:0000b0ad  1378 0001:0000b0b3  1379 0001:0000b0bd
  1380 0001:0000b0bf  1386 0001:0000b0c9  1388 0001:0000b0cf  1389 0001:0000b0dc
  1390 0001:0000b0e9  1391 0001:0000b0f7  1392 0001:0000b102  1394 0001:0000b10d
  1397 0001:0000b10f  1398 0001:0000b118  1399 0001:0000b125  1400 0001:0000b12e
  1403 0001:0000b13b  1404 0001:0000b152  1405 0001:0000b161  1406 0001:0000b170
  1407 0001:0000b178  1411 0001:0000b181  1412 0001:0000b18d  1414 0001:0000b199
  1424 0001:0000b1a0  1425 0001:0000b1a9  1429 0001:0000b1b1  1431 0001:0000b1c7
  1432 0001:0000b1dc  1433 0001:0000b1e8  1437 0001:0000b1fc  1438 0001:0000b20a
  1455 0001:0000b210  1458 0001:0000b219  1459 0001:0000b22c  1460 0001:0000b231
  1461 0001:0000b244  1463 0001:0000b249  1465 0001:0000b24b  1474 0001:0000b250
  1477 0001:0000b259  1478 0001:0000b268  1479 0001:0000b26e  1482 0001:0000b272
  1483 0001:0000b283  1484 0001:0000b298  1485 0001:0000b29e  1487 0001:0000b2b0
  1489 0001:0000b2b2  1497 0001:0000b2c0  1499 0001:0000b2c9  1500 0001:0000b2da
  1501 0001:0000b2ef  1502 0001:0000b2f5  1503 0001:0000b304  1504 0001:0000b306
  1506 0001:0000b30a  1507 0001:0000b30d  1515 0001:0000b320  1517 0001:0000b329
  1520 0001:0000b33b  1521 0001:0000b350  1522 0001:0000b35c  1528 0001:0000b370
  1530 0001:0000b379  1532 0001:0000b384  1535 0001:0000b390  1537 0001:0000b3a5
  1538 0001:0000b3c2  1541 0001:0000b3c4  1542 0001:0000b3d9  1543 0001:0000b3e9
  1546 0001:0000b3f0  1547 0001:0000b3f7  1548 0001:0000b404  1552 0001:0000b410
  1553 0001:0000b419  1554 0001:0000b429  1555 0001:0000b43b  1562 0001:0000b440
  1565 0001:0000b449  1567 0001:0000b462  1568 0001:0000b46f  1570 0001:0000b476
  1571 0001:0000b491  1574 0001:0000b498  1576 0001:0000b4a6  1577 0001:0000b4bd
  1578 0001:0000b4c0  1590 0001:0000b4d0  1595 0001:0000b4d9  1596 0001:0000b4e8
  1598 0001:0000b4ed  1599 0001:0000b505  1601 0001:0000b50a  1602 0001:0000b525
  1603 0001:0000b52b  1606 0001:0000b52d  1608 0001:0000b535  1609 0001:0000b550
  1613 0001:0000b55c  1615 0001:0000b55e  1616 0001:0000b579  1619 0001:0000b585
  1622 0001:0000b58e  1624 0001:0000b597  1627 0001:0000b5a0  1631 0001:0000b5c1
  1634 0001:0000b5d1  1635 0001:0000b5e1  1637 0001:0000b5e8  1638 0001:0000b5f3
  1640 0001:0000b618  1641 0001:0000b621  1642 0001:0000b637  1643 0001:0000b650
  1644 0001:0000b65b  1649 0001:0000b670  1650 0001:0000b67f  1653 0001:0000b68a
  1654 0001:0000b69d  1655 0001:0000b6a3  1659 0001:0000b6b5  1660 0001:0000b6c7
  1662 0001:0000b6cf  1663 0001:0000b6de  1664 0001:0000b6f3  1666 0001:0000b70b
  1674 0001:0000b730  1678 0001:0000b751  1681 0001:0000b761  1682 0001:0000b771
  1684 0001:0000b778  1685 0001:0000b783  1687 0001:0000b7a8  1688 0001:0000b7b1
  1689 0001:0000b7c7  1690 0001:0000b7e0  1691 0001:0000b7eb  1695 0001:0000b800
  1696 0001:0000b80f  1699 0001:0000b81a  1700 0001:0000b82d  1701 0001:0000b833
  1705 0001:0000b845  1706 0001:0000b857  1708 0001:0000b85f  1709 0001:0000b86e
  1710 0001:0000b883  1712 0001:0000b89b  1719 0001:0000b8c0  1721 0001:0000b8e4
  1723 0001:0000b8ef  1724 0001:0000b903  1727 0001:0000b911  1730 0001:0000b91c
  1731 0001:0000b927  1737 0001:0000b950  1741 0001:0000b96e  1744 0001:0000b97e
  1745 0001:0000b98e  1747 0001:0000b995  1749 0001:0000b9bd  1750 0001:0000b9c6
  1751 0001:0000b9dc  1752 0001:0000b9f2  1756 0001:0000ba04  1759 0001:0000ba16
  1760 0001:0000ba24  1761 0001:0000ba2a  1762 0001:0000ba3b  1763 0001:0000ba3d
  1765 0001:0000ba4e  1771 0001:0000ba70  1772 0001:0000ba79  1773 0001:0000ba89
  1774 0001:0000ba97  1775 0001:0000baa1  1779 0001:0000bab0  1780 0001:0000bace
  1783 0001:0000bade  1784 0001:0000baee  1785 0001:0000baf4  1788 0001:0000bb09
  1789 0001:0000bb14  1790 0001:0000bb1e  1793 0001:0000bb30  1795 0001:0000bb3b
  1797 0001:0000bb41  1798 0001:0000bb48  1800 0001:0000bb62  1802 0001:0000bb64
  1803 0001:0000bb6b  1808 0001:0000bb7d  1809 0001:0000bb89  1815 0001:0000bbb0
  1819 0001:0000bbce  1820 0001:0000bbda  1821 0001:0000bc2b  1822 0001:0000bc4c
  1823 0001:0000bc5d  1824 0001:0000bc5f  1826 0001:0000bc64  1827 0001:0000bc6a
  1829 0001:0000bc6f  1830 0001:0000bc7f  1831 0001:0000bc86  1833 0001:0000bcaa
  1835 0001:0000bcbe  1836 0001:0000bcc7  1838 0001:0000bcc9  1839 0001:0000bcd2
  1840 0001:0000bcd9  1844 0001:0000bcdb  1845 0001:0000bd1d  1846 0001:0000bd34
  1847 0001:0000bd3f  1849 0001:0000bd59  1850 0001:0000bd79  1851 0001:0000bd87
  1852 0001:0000bda5  1853 0001:0000bda7  1854 0001:0000bdc4  1857 0001:0000bdd6
  1859 0001:0000bddc  1860 0001:0000bde2  1861 0001:0000bdeb  1862 0001:0000bded
  1864 0001:0000bdf4  1865 0001:0000be1c  1866 0001:0000be22  1868 0001:0000be34
  1869 0001:0000be46  1873 0001:0000be57  1874 0001:0000be72  1908 0001:0000be90
  1909 0001:0000beae  1910 0001:0000beb9  1913 0001:0000bec9  1914 0001:0000bed5
  1915 0001:0000beea  1916 0001:0000bef0  1919 0001:0000bf11  1920 0001:0000bf22
  1922 0001:0000bf2a  1923 0001:0000bf37  1924 0001:0000bf45  1926 0001:0000bf53
  1928 0001:0000bf55  1929 0001:0000bf61  1930 0001:0000bf7a  1931 0001:0000bf86
  1932 0001:0000bf94  1936 0001:0000bfa6  1937 0001:0000bfb2  1938 0001:0000bfca
  1941 0001:0000bfdc  1942 0001:0000bfe4  1945 0001:0000c010  1946 0001:0000c017
  1947 0001:0000c01f  1948 0001:0000c024  1954 0001:0000c030  1957 0001:0000c039
  1962 0001:0000c04d  1963 0001:0000c059  1965 0001:0000c069  1966 0001:0000c07a
  1969 0001:0000c088  1970 0001:0000c0a5  1971 0001:0000c0a7  1975 0001:0000c0b0
  1978 0001:0000c0b9  1979 0001:0000c0c5  1980 0001:0000c0d5  1981 0001:0000c0d7
  1985 0001:0000c0e0  1986 0001:0000c0fe  1987 0001:0000c104  1988 0001:0000c10b
  1990 0001:0000c116  1991 0001:0000c124  1995 0001:0000c13c  1997 0001:0000c147
  2000 0001:0000c157  2001 0001:0000c166  2003 0001:0000c184  2004 0001:0000c194
  2007 0001:0000c19c  2008 0001:0000c1af  2009 0001:0000c1c1  2010 0001:0000c1c3
  2013 0001:0000c1cd  2014 0001:0000c1d9  2018 0001:0000c1f0  2019 0001:0000c1f9
  2023 0001:0000c22f  2024 0001:0000c23f  2025 0001:0000c25b  2026 0001:0000c265
  2027 0001:0000c273  2035 0001:0000c280  2040 0001:0000c289  2042 0001:0000c294
  2043 0001:0000c29d  2045 0001:0000c2a1  2046 0001:0000c2a3  2049 0001:0000c2a7
  2051 0001:0000c2ad  2053 0001:0000c2b5  2055 0001:0000c2cb  2057 0001:0000c2cd
  2058 0001:0000c2d4  2061 0001:0000c2ea  2062 0001:0000c2f7  2063 0001:0000c333
  2064 0001:0000c366  2068 0001:0000c370  2069 0001:0000c38e  2070 0001:0000c39a
  2072 0001:0000c39f  2074 0001:0000c3ab  2075 0001:0000c3fe  2077 0001:0000c426
  2080 0001:0000c439  2084 0001:0000c450  2086 0001:0000c457  2087 0001:0000c46d
  2088 0001:0000c483  2090 0001:0000c499  2091 0001:0000c49b  2095 0001:0000c4b0
  2097 0001:0000c4b7  2098 0001:0000c4cd  2099 0001:0000c4e3  2101 0001:0000c4f9
  2102 0001:0000c4fb  2106 0001:0000c510  2107 0001:0000c517  2109 0001:0000c524
  2110 0001:0000c526  2114 0001:0000c530  2116 0001:0000c537  2120 0001:0000c543
  2124 0001:0000c550  2127 0001:0000c559  2128 0001:0000c561  2129 0001:0000c567
  2130 0001:0000c571  2131 0001:0000c573  2134 0001:0000c57d  2135 0001:0000c583
  2137 0001:0000c58d  2138 0001:0000c5a2  2141 0001:0000c5b0  2142 0001:0000c5ce
  2143 0001:0000c5dd  2145 0001:0000c5ea  2148 0001:0000c5f1  2150 0001:0000c615
  2152 0001:0000c629  2153 0001:0000c645  2154 0001:0000c654  2156 0001:0000c656
  2157 0001:0000c65f  2158 0001:0000c661  2159 0001:0000c66d  2162 0001:0000c68e
  2163 0001:0000c6a0  2164 0001:0000c6a6  2167 0001:0000c6c7  2168 0001:0000c6cd
  2169 0001:0000c6dc  2170 0001:0000c6de  2173 0001:0000c6ed  2175 0001:0000c6f3
  2176 0001:0000c6fb  2177 0001:0000c702  2178 0001:0000c704  2182 0001:0000c70b
  2185 0001:0000c711  2187 0001:0000c717  2188 0001:0000c721  2189 0001:0000c72b
  2191 0001:0000c73d  2193 0001:0000c73f  2194 0001:0000c749  2195 0001:0000c753
  2199 0001:0000c765  2200 0001:0000c777  2203 0001:0000c77f  2205 0001:0000c78f
  2208 0001:0000c7c0  2209 0001:0000c7ee  2214 0001:0000c800  2215 0001:0000c820
  2216 0001:0000c838  2219 0001:0000c84a  2222 0001:0000c850  2223 0001:0000c86a
  2224 0001:0000c873  2228 0001:0000c885  2229 0001:0000c89d  2230 0001:0000c8a8
  2233 0001:0000c8e0  2235 0001:0000c90e  2236 0001:0000c928  2237 0001:0000c931
  2242 0001:0000c936  2243 0001:0000c946  2244 0001:0000c94d  2247 0001:0000c977
  2248 0001:0000c98a  2249 0001:0000c996  2250 0001:0000c9b9  2251 0001:0000c9d5
  2253 0001:0000c9e8  2255 0001:0000ca00  2256 0001:0000ca07  2257 0001:0000ca10
  2258 0001:0000ca18  2259 0001:0000ca1a  2260 0001:0000ca2a  2264 0001:0000ca30
  2265 0001:0000ca4e  2266 0001:0000ca5a  2268 0001:0000ca5f  2270 0001:0000ca6b
  2271 0001:0000cabc  2273 0001:0000cae4  2275 0001:0000caf7  2279 0001:0000cb10
  2280 0001:0000cb17  2281 0001:0000cb24  2282 0001:0000cb26  2286 0001:0000cb30
  2287 0001:0000cb4e  2288 0001:0000cb5a  2290 0001:0000cb5f  2292 0001:0000cb6f
  2293 0001:0000cbc0  2294 0001:0000cbe8  2296 0001:0000cbfb  2297 0001:0000cc02
  2298 0001:0000cc14  2300 0001:0000cc40  2302 0001:0000cc53  2306 0001:0000cc70
  2307 0001:0000cc77  2308 0001:0000cc84  2309 0001:0000cc86  2313 0001:0000cc90
  2314 0001:0000ccae  2316 0001:0000ccbe  2317 0001:0000cd0f  2318 0001:0000cd35
  2320 0001:0000cd48  2321 0001:0000cd4f  2322 0001:0000cd61  2324 0001:0000cd8d
  2326 0001:0000cda0  2329 0001:0000cdb0  2331 0001:0000cdc9  2332 0001:0000cdd8
  2335 0001:0000cddf  2336 0001:0000cdf8  2337 0001:0000ce11  2342 0001:0000ce2a
  2343 0001:0000ce3c  2346 0001:0000ce58  2347 0001:0000ce79  2349 0001:0000ce88
  2350 0001:0000ce9b  2351 0001:0000ceab  2356 0001:0000ceb2  2357 0001:0000cec2
  2358 0001:0000cedd  2359 0001:0000cf13  2360 0001:0000cf2e  2361 0001:0000cf49
  2362 0001:0000cf64  2363 0001:0000cf7f  2364 0001:0000cf9a  2365 0001:0000cfb5
  2366 0001:0000cfd0  2367 0001:0000d004  2368 0001:0000d01f  2369 0001:0000d035
  2371 0001:0000d045  2372 0001:0000d047  2375 0001:0000d060  2377 0001:0000d069
  2378 0001:0000d07f  2379 0001:0000d095  2382 0001:0000d0ab  2383 0001:0000d0cf
  2386 0001:0000d0d6  2388 0001:0000d0e2  2389 0001:0000d0ef  2394 0001:0000d0fa
  2398 0001:0000d107  2399 0001:0000d114  2400 0001:0000d127  2401 0001:0000d13f
  2402 0001:0000d16f  2403 0001:0000d187  2406 0001:0000d19a  2407 0001:0000d1a7
  2408 0001:0000d1a9  2412 0001:0000d1b0  2413 0001:0000d1b7  2414 0001:0000d1c4
  2415 0001:0000d1c6  2419 0001:0000d1d0  2420 0001:0000d1ee  2422 0001:0000d1fe
  2423 0001:0000d24f  2424 0001:0000d275  2426 0001:0000d288  2427 0001:0000d28f
  2428 0001:0000d2a1  2430 0001:0000d2cd  2432 0001:0000d2e0  2435 0001:0000d2f0
  2436 0001:0000d2f7  2437 0001:0000d304  2438 0001:0000d306  2442 0001:0000d310
  2444 0001:0000d334  2445 0001:0000d34a  2446 0001:0000d358  2448 0001:0000d35e
  2449 0001:0000d36b  2452 0001:0000d376  2453 0001:0000d38f  2456 0001:0000d39d
  2458 0001:0000d3a3  2459 0001:0000d3b2  2461 0001:0000d3bd  2464 0001:0000d3e0
  2466 0001:0000d3e9  2467 0001:0000d3f5  2468 0001:0000d3fb  2470 0001:0000d400
  2471 0001:0000d403  2474 0001:0000d410  2475 0001:0000d417  2476 0001:0000d42d
  2477 0001:0000d443  2478 0001:0000d445

Line numbers for .\Debug\SppConsole.obj(c:\code\smartpropoplus\341\sppconsole\sppconsole.cpp) segment .text

    20 0001:00008770    20 0001:00008780    32 0001:00008790    34 0001:000087aa
    45 0001:000087c0    57 0001:000087e4    59 0001:000087f2    60 0001:00008806
    61 0001:00008815    62 0001:00008824    76 0001:00008832    77 0001:00008854
    80 0001:00008870    84 0001:00008879    86 0001:00008882    87 0001:00008892
    89 0001:00008896    90 0001:000088c2    92 0001:000088c6    93 0001:000088c8
    97 0001:000088d0    98 0001:000088f4    99 0001:00008908   100 0001:00008913
    39 0001:0001bb10

Line numbers for .\Debug\ScanInputs.obj(c:\program files\microsoft visual studio .net 2003\vc7\atlmfc\include\cstringt.h) segment .text

  2014 0001:000086c0  2015 0001:000086e2  2017 0001:000086fc  2019 0001:00008731
  2020 0001:0000875a

Line numbers for .\Debug\ScanInputs.obj(c:\code\smartpropoplus\341\sppconsole\scaninputs.cpp) segment .text

    13 0001:00007dc0    13 0001:00007dd0    13 0001:00007de0    16 0001:00007df0
    17 0001:00007e3c    24 0001:00007e48    25 0001:00007e5f    26 0001:00007e76
    27 0001:00007e8d    30 0001:00007ea4    31 0001:00007ebb    32 0001:00007ed2
    33 0001:00007ee9    34 0001:00007f00    35 0001:00007f17    36 0001:00007f2e
    39 0001:00007f50    40 0001:00007f7c    43 0001:00007fb0    44 0001:00007fb7
    45 0001:00007fd8    48 0001:00007fe0    48 0001:00007ff0    59 0001:00008000
    61 0001:00008007    62 0001:0000801f    63 0001:00008037    64 0001:0000804f
    65 0001:00008067    67 0001:0000807f    69 0001:0000808d    70 0001:0000809b
    73 0001:000080a0    75 0001:000080a9    78 0001:000080c1    79 0001:000080d2
    80 0001:000080e3    83 0001:00008101    84 0001:00008112    85 0001:00008123
    87 0001:0000813d    89 0001:00008148    90 0001:00008159    92 0001:0000816d
    93 0001:00008182    96 0001:00008184    97 0001:000081a0    98 0001:000081ae
   100 0001:000081b3   101 0001:000081cf   102 0001:000081dd   105 0001:000081e2
   106 0001:000081fa   109 0001:00008200   111 0001:00008207   114 0001:00008210
   115 0001:0000822e   118 0001:00008265   119 0001:00008277   120 0001:00008292
   121 0001:000082a8   124 0001:000082c3   125 0001:000082e1   126 0001:000082f0
   129 0001:00008333   130 0001:00008341   131 0001:00008355   132 0001:00008369
   135 0001:000083b0   136 0001:000083b9   140 0001:000083c0   141 0001:000083d1
   143 0001:000083e2   145 0001:00008400   147 0001:0000840b   149 0001:00008423
   150 0001:00008438   151 0001:0000844c   152 0001:00008458   153 0001:00008474
   154 0001:0000847d   155 0001:0000847f   156 0001:0000849b   157 0001:000084a9
   159 0001:000084ae   160 0001:000084b1   163 0001:000084c0   164 0001:000084de
   167 0001:00008508   170 0001:0000851e   171 0001:00008538   172 0001:00008547
   175 0001:0000858a   176 0001:00008598   177 0001:000085ac   178 0001:000085c0
   182 0001:00008600   183 0001:00008609   187 0001:00008619   188 0001:0000862b
   190 0001:00008637   191 0001:00008643   192 0001:0000864c   194 0001:00008655
   195 0001:00008661   196 0001:0000866a   198 0001:00008673   199 0001:00008681

Line numbers for .\Debug\LogRawPulse.obj(c:\code\smartpropoplus\341\sppconsole\lograwpulse.cpp) segment .text

     7 0001:00007b50     8 0001:00007b6a     9 0001:00007b77    10 0001:00007b84
    11 0001:00007b91    12 0001:00007ba5    15 0001:00007bb0    16 0001:00007bc0
    19 0001:00007bd0    20 0001:00007bd9    21 0001:00007c1d    22 0001:00007c61
    23 0001:00007ca5    26 0001:00007cb0    27 0001:00007cb7    28 0001:00007ccf
    31 0001:00007ce0    32 0001:00007ce7    33 0001:00007cff    35 0001:00007d10
    36 0001:00007d17    37 0001:00007d2f    40 0001:00007d40    41 0001:00007d50
    42 0001:00007d70

Line numbers for .\Debug\LogPulses.obj(c:\code\smartpropoplus\341\sppconsole\logpulses.cpp) segment .text

     7 0001:000078f0     8 0001:0000790a     9 0001:00007917    10 0001:00007924
    11 0001:00007931    14 0001:00007940    15 0001:00007950    18 0001:00007960
    19 0001:00007969    20 0001:000079ad    21 0001:000079f1    22 0001:00007a35
    25 0001:00007a40    26 0001:00007a47    27 0001:00007a5f    30 0001:00007a70
    31 0001:00007a77    32 0001:00007a8f    34 0001:00007aa0    35 0001:00007aa7
    36 0001:00007abf    39 0001:00007ad0    40 0001:00007ae0    41 0001:00007b00

Line numbers for .\Debug\LogFmsConn.obj(c:\code\smartpropoplus\341\sppconsole\logfmsconn.cpp) segment .text

     7 0001:00007690     8 0001:000076aa     9 0001:000076b7    10 0001:000076c4
    11 0001:000076d1    12 0001:000076e5    15 0001:000076f0    16 0001:00007700
    19 0001:00007710    20 0001:00007719    21 0001:0000775d    22 0001:000077a1
    23 0001:000077e5    26 0001:000077f0    27 0001:000077f7    28 0001:0000780f
    31 0001:00007820    32 0001:00007827    33 0001:0000783f    35 0001:00007850
    36 0001:00007857    37 0001:0000786f    40 0001:00007880    41 0001:000078a0

Line numbers for .\Debug\LogAudioHdrs.obj(c:\code\smartpropoplus\341\sppconsole\logaudiohdrs.cpp) segment .text

     7 0001:00007430     8 0001:0000744a     9 0001:00007457    10 0001:00007464
    11 0001:00007471    14 0001:00007480    15 0001:00007490    18 0001:000074a0
    19 0001:000074a9    20 0001:000074ed    21 0001:00007531    22 0001:00007575
    25 0001:00007580    26 0001:00007587    27 0001:0000759f    30 0001:000075b0
    31 0001:000075b7    32 0001:000075cf    34 0001:000075e0    35 0001:000075e7
    36 0001:000075ff    39 0001:00007610    40 0001:00007620    41 0001:00007640

Line numbers for .\Debug\DynamicLED.obj(c:\code\smartpropoplus\341\sppconsole\dynamicled.cpp) segment .text

    19 0001:000068a0    21 0001:0000691b    22 0001:00006928    23 0001:00006935
    24 0001:00006942    25 0001:0000694c    26 0001:00006959    27 0001:00006963
    30 0001:00006980    31 0001:000069ae    32 0001:000069e5    34 0001:00006a50
    34 0001:00006a60    52 0001:00006a70    53 0001:00006a8e    57 0001:00006a9a
    58 0001:00006aa6    60 0001:00006ab2    61 0001:00006b07    63 0001:00006b0f
    65 0001:00006b17    71 0001:00006b30    72 0001:00006b58    74 0001:00006b6b
    75 0001:00006b7d    76 0001:00006b8c    83 0001:00006bb0    84 0001:00006bb9
    87 0001:00006bc5    88 0001:00006bcd    91 0001:00006bd9    92 0001:00006c0c
    94 0001:00006c41    95 0001:00006c4d   103 0001:00006c60   104 0001:00006c69
   106 0001:00006c75   107 0001:00006c87   110 0001:00006c94   113 0001:00006ca2
   114 0001:00006caa   117 0001:00006cb6   118 0001:00006ce9   121 0001:00006d1e
   127 0001:00006d30   128 0001:00006d37   129 0001:00006d41   134 0001:00006d50
   135 0001:00006d57   136 0001:00006d61   143 0001:00006d70   146 0001:00006d77
   147 0001:00006d80   148 0001:00006d88   149 0001:00006da1   151 0001:00006da3
   152 0001:00006dc1   153 0001:00006ddd   160 0001:00006df0   161 0001:00006df9
   162 0001:00006e02   165 0001:00006e09   168 0001:00006e15   169 0001:00006e34
   170 0001:00006e55   171 0001:00006e6a   173 0001:00006e79   178 0001:00006e85
   179 0001:00006e97   181 0001:00006ea9   183 0001:00006eb5   188 0001:00006eb7
   189 0001:00006ec9   191 0001:00006edb   194 0001:00006ee7   195 0001:00006eea
   201 0001:00006ef0   205 0001:00006ef7   206 0001:00006f0b   207 0001:00006f1f
   208 0001:00006f33   212 0001:00006f47   216 0001:00006f56   217 0001:00006f6a
   222 0001:00006f7a   223 0001:00006f8e   225 0001:00006f9e   229 0001:00006fb2
   230 0001:00006fc6   232 0001:00006fd6   233 0001:00006fea   235 0001:00006ffa
   239 0001:0000700e   240 0001:00007022   242 0001:00007032   243 0001:00007046
   245 0001:00007056   249 0001:00007067   250 0001:0000707b   252 0001:0000708b
   253 0001:0000709f   256 0001:000070af   262 0001:000070c0   263 0001:000070de
   264 0001:000070e7   270 0001:000070ec   271 0001:000070fb   272 0001:0000710c
   274 0001:0000711b   277 0001:0000712f   278 0001:00007137   279 0001:00007148
   280 0001:00007157   283 0001:0000716b   284 0001:00007173   285 0001:00007184
   288 0001:00007193   289 0001:000071a3   290 0001:000071c8   292 0001:000071e3
   293 0001:00007206   295 0001:00007242   296 0001:0000724e   297 0001:0000725b
   300 0001:0000726a   301 0001:00007291   308 0001:000072c0   309 0001:000072de
   310 0001:000072e7   313 0001:000072ec   318 0001:00007307   319 0001:00007316
   320 0001:00007327   322 0001:00007336   323 0001:0000734d   324 0001:00007360
   326 0001:00007373   329 0001:0000737b   330 0001:0000738c   332 0001:0000739b
   333 0001:000073b2   334 0001:000073c5   335 0001:000073d8

Line numbers for .\Debug\DefVolumeDlg.obj(c:\code\smartpropoplus\341\sppconsole\defvolumedlg.cpp) segment .text

    23 0001:00005f40    27 0001:00006006    28 0001:00006013    29 0001:00006020
    30 0001:0000602d    31 0001:0000603a    35 0001:00006060    36 0001:00006067
    38 0001:00006073    39 0001:00006088    40 0001:0000609f    41 0001:000060b7
    42 0001:000060cf    43 0001:000060e6    44 0001:000060fe    45 0001:00006116
    47 0001:0000612d    50 0001:00006140    50 0001:00006150    68 0001:00006160
    71 0001:0000617e    73 0001:0000618e    75 0001:0000619e    76 0001:000061a9
    79 0001:000061bf    81 0001:000061c8    82 0001:000061e0    83 0001:000061ec
    86 0001:000061f1    88 0001:000061fa    89 0001:00006212    90 0001:0000621e
    93 0001:00006220    95 0001:00006229    96 0001:00006241    97 0001:0000624d
   100 0001:0000624f   102 0001:00006258   103 0001:00006270   107 0001:0000627c
   108 0001:00006290   112 0001:000062b0   113 0001:000062c3   117 0001:000062cb
   118 0001:000062db   119 0001:000062eb   120 0001:000062fb   122 0001:0000630b
   125 0001:00006313   126 0001:0000632b   127 0001:00006343   128 0001:0000635b
   129 0001:00006370   130 0001:00006398   131 0001:000063c0   132 0001:000063e8
   135 0001:00006410   136 0001:00006420   137 0001:00006430   138 0001:00006440
   141 0001:0000644d   143 0001:00006452   159 0001:00006460   160 0001:0000647e
   163 0001:0000648e   164 0001:0000649a   167 0001:000064b9   168 0001:000064c5
   170 0001:000064d2   171 0001:000064df   175 0001:000064fe   176 0001:0000651a
   178 0001:00006520   179 0001:00006526   180 0001:0000652d   181 0001:00006533
   184 0001:0000653a   186 0001:00006542   187 0001:00006558   188 0001:0000656a
   192 0001:00006578   194 0001:00006580   195 0001:00006586   198 0001:00006592
   199 0001:000065ab   203 0001:000065c0   204 0001:000065c7   205 0001:000065f5
   209 0001:00006600   210 0001:00006607   211 0001:00006635   215 0001:00006640
   216 0001:00006647   217 0001:00006675   221 0001:00006680   222 0001:00006687
   223 0001:000066b3   226 0001:000066c0   227 0001:000066c7   228 0001:000066dd
   229 0001:000066f3   230 0001:00006709   231 0001:0000671f   234 0001:00006730
   237 0001:00006737   238 0001:0000674e   239 0001:00006765   240 0001:0000677c
   243 0001:00006793   244 0001:0000679b

Line numbers for .\Debug\AudioInput.obj(c:\program files\microsoft visual studio .net 2003\vc7\include\new.h) segment .text

   109 0001:00004c30

Line numbers for .\Debug\AudioInput.obj(c:\program files\microsoft visual studio .net 2003\vc7\atlmfc\include\afxtempl.h) segment .text

   349 0001:000034f0   350 0001:00003508   351 0001:00003512   352 0001:00003530
   272 0001:00003540   284 0001:00003560   287 0001:00003580   288 0001:00003587
   289 0001:000035ac   290 0001:000035bd   291 0001:000035cb   292 0001:000035d0
   334 0001:000035e0   335 0001:000035f2   336 0001:00003602   589 0001:00003610
   590 0001:00003619   591 0001:0000362c   592 0001:00003646   593 0001:00003660
   595 0001:00003682   596 0001:0000369c   599 0001:000036a1   600 0001:000036b2
   601 0001:000036cc   602 0001:000036ce   604 0001:000036d4   605 0001:00003704
   606 0001:00003713   356 0001:00003720   357 0001:0000374e   359 0001:00003761
   361 0001:0000376a   362 0001:00003787   363 0001:00003789   365 0001:0000379e
   629 0001:000037c0   630 0001:000037c9   632 0001:000037dc   633 0001:000037e8
   635 0001:000037f4   637 0001:00003803   639 0001:00003805   640 0001:00003810
   642 0001:0000381e   643 0001:00003835   648 0001:00003840   649 0001:00003847
   651 0001:00003853   652 0001:0000387a   654 0001:00003886   655 0001:00003893
   658 0001:000038aa   659 0001:000038b7   663 0001:000038c0   664 0001:000038c7
   666 0001:000038cf   668 0001:000038d8   669 0001:000038f5   671 0001:00003912
   673 0001:00003917   674 0001:00003934   675 0001:00003951   676 0001:00003973
   678 0001:000039a3   349 0001:000039b0   350 0001:000039c8   351 0001:000039d2
   352 0001:000039f0   272 0001:00003a00   284 0001:00003a20   287 0001:00003a40
   288 0001:00003a47   289 0001:00003a6c   290 0001:00003a7d   291 0001:00003a8b
   292 0001:00003a90   334 0001:00003aa0   335 0001:00003ab2   336 0001:00003ac2
   589 0001:00003ad0   590 0001:00003ad9   591 0001:00003aec   592 0001:00003b06
   593 0001:00003b20   595 0001:00003b42   596 0001:00003b5c   599 0001:00003b61
   600 0001:00003b72   601 0001:00003b8c   602 0001:00003b8e   604 0001:00003b94
   605 0001:00003bc4   606 0001:00003bd3   356 0001:00003be0   357 0001:00003c0e
   359 0001:00003c21   361 0001:00003c2a   362 0001:00003c47   363 0001:00003c49
   365 0001:00003c5e   629 0001:00003c80   630 0001:00003c89   632 0001:00003c9c
   633 0001:00003ca8   635 0001:00003cb4   637 0001:00003cc3   639 0001:00003cc5
   640 0001:00003cd0   642 0001:00003cde   643 0001:00003cf5   648 0001:00003d00
   649 0001:00003d07   651 0001:00003d13   652 0001:00003d3a   654 0001:00003d46
   655 0001:00003d53   658 0001:00003d6a   659 0001:00003d77   663 0001:00003d80
   664 0001:00003d87   666 0001:00003d8f   668 0001:00003d98   669 0001:00003db5
   671 0001:00003dd2   673 0001:00003dd7   674 0001:00003df4   675 0001:00003e11
   676 0001:00003e33   678 0001:00003e63   349 0001:00003e70   350 0001:00003e88
   351 0001:00003e92   352 0001:00003eb0   272 0001:00003ec0   284 0001:00003ee0
   287 0001:00003f00   288 0001:00003f07   289 0001:00003f2c   290 0001:00003f3d
   291 0001:00003f4b   292 0001:00003f50   334 0001:00003f60   335 0001:00003f72
   336 0001:00003f82   589 0001:00003f90   590 0001:00003f99   591 0001:00003fac
   592 0001:00003fc6   593 0001:00003fe0   595 0001:00004002   596 0001:0000401c
   599 0001:00004021   600 0001:00004032   601 0001:0000404c   602 0001:0000404e
   604 0001:00004054   605 0001:00004084   606 0001:00004093   356 0001:000040a0
   357 0001:000040ce   359 0001:000040e1   361 0001:000040ea   362 0001:00004107
   363 0001:00004109   365 0001:0000411e   629 0001:00004140   630 0001:00004149
   632 0001:0000415c   633 0001:00004168   635 0001:00004174   637 0001:00004183
   639 0001:00004185   640 0001:00004190   642 0001:0000419e   643 0001:000041b5
   648 0001:000041c0   649 0001:000041c7   651 0001:000041d3   652 0001:000041fa
   654 0001:00004206   655 0001:00004213   658 0001:0000422a   659 0001:00004237
   663 0001:00004240   664 0001:00004247   666 0001:0000424f   668 0001:00004258
   669 0001:00004275   671 0001:00004292   673 0001:00004297   674 0001:000042b4
   675 0001:000042d1   676 0001:000042f3   678 0001:00004323   349 0001:00004330
   350 0001:00004348   351 0001:00004352   352 0001:00004370   272 0001:00004380
   284 0001:000043a0   287 0001:000043c0   288 0001:000043c7   289 0001:000043ec
   290 0001:000043fd   291 0001:0000440b   292 0001:00004410   303 0001:00004420
   304 0001:00004427   305 0001:0000444c   306 0001:0000445d   307 0001:0000447c
   308 0001:0000447e   309 0001:00004483   334 0001:00004490   335 0001:000044a2
   336 0001:000044c4   629 0001:000044d0   630 0001:000044d9   632 0001:000044ec
   633 0001:000044f8   635 0001:00004504   637 0001:00004513   639 0001:00004515
   640 0001:00004520   642 0001:0000452e   643 0001:00004545   648 0001:00004550
   649 0001:00004557   651 0001:00004563   652 0001:0000458a   654 0001:00004596
   655 0001:000045a3   658 0001:000045ba   659 0001:000045c7   663 0001:000045d0
   664 0001:000045d7   666 0001:000045df   668 0001:000045e8   669 0001:00004605
   671 0001:00004622   673 0001:00004627   674 0001:00004644   675 0001:00004661
   676 0001:00004683   678 0001:000046b3   356 0001:00004780   357 0001:000047ae
   359 0001:000047c1   361 0001:000047ca   362 0001:000047e7   363 0001:000047e9
   365 0001:000047fe   369 0001:00004820   370 0001:00004829   371 0001:0000483c
   373 0001:00004856   374 0001:0000485c   376 0001:00004861   377 0001:00004867
   379 0001:00004870   382 0001:00004876   384 0001:0000487f   385 0001:0000489c
   386 0001:0000489e   387 0001:000048b3   389 0001:000048bd   391 0001:000048d1
   396 0001:000048e3   398 0001:00004900   399 0001:00004922   400 0001:00004947
   401 0001:0000495f   404 0001:00004979   406 0001:00004995   407 0001:0000499e
   409 0001:000049a7   412 0001:000049bb   415 0001:000049c6   416 0001:000049ed
   419 0001:00004a0d   422 0001:00004a32   425 0001:00004a3f   426 0001:00004a5f
   428 0001:00004a61   430 0001:00004a6a   433 0001:00004a6f   434 0001:00004a78
   438 0001:00004a7e   439 0001:00004a90   442 0001:00004ac3   443 0001:00004ad1
   444 0001:00004add   445 0001:00004adf   447 0001:00004ae5   449 0001:00004b04
   450 0001:00004b0f   453 0001:00004b14   455 0001:00004b31   458 0001:00004b49
   461 0001:00004b66   462 0001:00004b85   463 0001:00004ba9   466 0001:00004bc9
   470 0001:00004beb   471 0001:00004c00   472 0001:00004c09   473 0001:00004c12
   475 0001:00004c1b   533 0001:00004c40   534 0001:00004c47   535 0001:00004c5a
   537 0001:00004c74   538 0001:00004c7a   540 0001:00004c7f   541 0001:00004c8a
   542 0001:00004c9b   543 0001:00004caa    69 0001:00004cb0    70 0001:00004cb6
    74 0001:00004ce3    79 0001:00004cef    80 0001:00004cf5    81 0001:00004cfb
    85 0001:00004d01    86 0001:00004d1f    87 0001:00004d32    88 0001:00004d3b
    89 0001:00004d47    91 0001:00004d49    96 0001:00004d4b    97 0001:00004d51
    98 0001:00004d57   102 0001:00004d5d   103 0001:00004d7b   104 0001:00004d8e
   105 0001:00004d97   106 0001:00004da3   108 0001:00004da5   137 0001:00004db0
   138 0001:00004db3   145 0001:00004de3   369 0001:00004df0   370 0001:00004df9
   371 0001:00004e0c   373 0001:00004e26   374 0001:00004e2c   376 0001:00004e31
   377 0001:00004e37   379 0001:00004e40   382 0001:00004e46   384 0001:00004e4f
   385 0001:00004e6c   386 0001:00004e6e   387 0001:00004e83   389 0001:00004e8d
   391 0001:00004ea1   396 0001:00004eb3   398 0001:00004ed0   399 0001:00004ef2
   400 0001:00004f17   401 0001:00004f2f   404 0001:00004f49   406 0001:00004f65
   407 0001:00004f6e   409 0001:00004f77   412 0001:00004f8b   415 0001:00004f96
   416 0001:00004fbd   419 0001:00004fdd   422 0001:00005002   425 0001:0000500f
   426 0001:0000502f   428 0001:00005031   430 0001:0000503a   433 0001:0000503f
   434 0001:00005048   438 0001:0000504e   439 0001:00005060   442 0001:00005093
   443 0001:000050a1   444 0001:000050ad   445 0001:000050af   447 0001:000050b5
   449 0001:000050d4   450 0001:000050df   453 0001:000050e4   455 0001:00005101
   458 0001:00005119   461 0001:00005136   462 0001:00005155   463 0001:00005179
   466 0001:00005199   470 0001:000051bb   471 0001:000051d0   472 0001:000051d9
   473 0001:000051e2   475 0001:000051eb   533 0001:00005200   534 0001:00005207
   535 0001:0000521a   537 0001:00005234   538 0001:0000523a   540 0001:0000523f
   541 0001:0000524a   542 0001:0000525b   543 0001:0000526a    69 0001:00005270
    70 0001:00005276    74 0001:000052a3    79 0001:000052af    80 0001:000052b5
    81 0001:000052bb    85 0001:000052c1    86 0001:000052df    87 0001:000052f2
    88 0001:000052fb    89 0001:00005307    91 0001:00005309    96 0001:0000530b
    97 0001:00005311    98 0001:00005317   102 0001:0000531d   103 0001:0000533b
   104 0001:0000534e   105 0001:00005357   106 0001:00005363   108 0001:00005365
   137 0001:00005370   138 0001:00005373   145 0001:000053a3   369 0001:000053b0
   370 0001:000053b9   371 0001:000053cc   373 0001:000053e6   374 0001:000053ec
   376 0001:000053f1   377 0001:000053f7   379 0001:00005400   382 0001:00005406
   384 0001:0000540f   385 0001:0000542c   386 0001:0000542e   387 0001:00005443
   389 0001:0000544d   391 0001:00005461   396 0001:00005473   398 0001:00005490
   399 0001:000054b2   400 0001:000054d7   401 0001:000054ef   404 0001:00005509
   406 0001:00005525   407 0001:0000552e   409 0001:00005537   412 0001:0000554b
   415 0001:00005556   416 0001:0000557d   419 0001:0000559d   422 0001:000055c2
   425 0001:000055cf   426 0001:000055ef   428 0001:000055f1   430 0001:000055fa
   433 0001:000055ff   434 0001:00005608   438 0001:0000560e   439 0001:00005620
   442 0001:00005653   443 0001:00005661   444 0001:0000566d   445 0001:0000566f
   447 0001:00005675   449 0001:00005694   450 0001:0000569f   453 0001:000056a4
   455 0001:000056c1   458 0001:000056d9   461 0001:000056f6   462 0001:00005715
   463 0001:00005739   466 0001:00005759   470 0001:0000577b   471 0001:00005790
   472 0001:00005799   473 0001:000057a2   475 0001:000057ab   533 0001:000057c0
   534 0001:000057c7   535 0001:000057da   537 0001:000057f4   538 0001:000057fa
   540 0001:000057ff   541 0001:0000580a   542 0001:0000581b   543 0001:0000582a
    69 0001:00005830    70 0001:00005836    74 0001:00005863    79 0001:0000586f
    80 0001:00005875    81 0001:0000587b    85 0001:00005881    86 0001:0000589f
    87 0001:000058b2    88 0001:000058bb    89 0001:000058c7    91 0001:000058c9
    96 0001:000058cb    97 0001:000058d1    98 0001:000058d7   102 0001:000058dd
   103 0001:000058fb   104 0001:0000590e   105 0001:00005917   106 0001:00005923
   108 0001:00005925   137 0001:00005930   138 0001:00005933   145 0001:00005963
   369 0001:00005970   370 0001:00005979   371 0001:0000598c   373 0001:000059a6
   374 0001:000059ac   376 0001:000059b1   377 0001:000059b7   379 0001:000059c0
   382 0001:000059c6   384 0001:000059cf   385 0001:000059ec   386 0001:000059ee
   387 0001:00005a03   389 0001:00005a0d   391 0001:00005a21   396 0001:00005a33
   398 0001:00005a50   399 0001:00005a72   400 0001:00005a97   401 0001:00005aaf
   404 0001:00005ac9   406 0001:00005ae5   407 0001:00005aee   409 0001:00005af7
   412 0001:00005b0b   415 0001:00005b16   416 0001:00005b3d   419 0001:00005b5d
   422 0001:00005b86   425 0001:00005b93   426 0001:00005bb3   428 0001:00005bb5
   430 0001:00005bbe   433 0001:00005bc3   434 0001:00005bcc   438 0001:00005bd2
   439 0001:00005be4   442 0001:00005c17   443 0001:00005c25   444 0001:00005c31
   445 0001:00005c33   447 0001:00005c39   449 0001:00005c58   450 0001:00005c63
   453 0001:00005c68   455 0001:00005c85   458 0001:00005c9d   461 0001:00005cba
   462 0001:00005cd9   463 0001:00005cfd   466 0001:00005d1d   470 0001:00005d41
   471 0001:00005d56   472 0001:00005d5f   473 0001:00005d68   475 0001:00005d71
   533 0001:00005d80   534 0001:00005d87   535 0001:00005d9a   537 0001:00005db4
   538 0001:00005dba   540 0001:00005dbf   541 0001:00005dca   542 0001:00005ddb
   543 0001:00005dfa    69 0001:00005e00    70 0001:00005e06    74 0001:00005e33
    79 0001:00005e3f    80 0001:00005e45    81 0001:00005e4b    85 0001:00005e51
    86 0001:00005e6f    87 0001:00005e82    88 0001:00005e8b    89 0001:00005e97
    91 0001:00005e99    96 0001:00005e9b    97 0001:00005ea1    98 0001:00005ea7
   102 0001:00005ead   103 0001:00005ecb   104 0001:00005ede   105 0001:00005ee7
   106 0001:00005ef3   108 0001:00005ef5   137 0001:00005f00   138 0001:00005f03
   145 0001:00005f33

Line numbers for .\Debug\AudioInput.obj(c:\code\smartpropoplus\341\sppconsole\audioinput.cpp) segment .text

    23 0001:00000400    24 0001:00000404    29 0001:00000421    31 0001:00000425
    33 0001:00000427    37 0001:00000430    42 0001:00000436    43 0001:0000043d
    44 0001:00000443    45 0001:0000044a    46 0001:00000451    48 0001:00000457
    50 0001:0000046a    51 0001:0000046d    59 0001:00000480    66 0001:00000493
    67 0001:000004b0    68 0001:000004bd    71 0001:000004cd    72 0001:000004d7
    73 0001:000004e1    74 0001:000004ea    75 0001:000004f4    76 0001:000004fe
    77 0001:00000508    78 0001:00000514    80 0001:0000052d    82 0001:00000533
    91 0001:00000550    98 0001:00000563    99 0001:00000580   100 0001:0000058d
   103 0001:0000059d   104 0001:000005a7   105 0001:000005b0   106 0001:000005ba
   107 0001:000005c4   108 0001:000005ce   109 0001:000005da   110 0001:000005f3
   111 0001:000005fc   112 0001:00000602   113 0001:00000604   115 0001:0000060a
   116 0001:0000060c   120 0001:00000620   123 0001:00000638   126 0001:00000651
   128 0001:0000065b   129 0001:00000665   130 0001:0000066e   131 0001:00000687
   132 0001:00000690   133 0001:00000698   135 0001:000006b4   138 0001:000006e1
   139 0001:000006f7   140 0001:000006f9   141 0001:0000073a   144 0001:00000748
   145 0001:00000789   148 0001:00000797   150 0001:000007cd   151 0001:000007dd
   153 0001:000007f3   154 0001:000007f5   156 0001:000007fa   157 0001:00000800
   166 0001:00000810   170 0001:00000816   171 0001:0000081d   172 0001:00000823
   173 0001:0000082a   174 0001:00000830   175 0001:00000837   176 0001:0000083d
   178 0001:00000850   180 0001:00000853   186 0001:00000860   190 0001:00000866
   191 0001:0000086d   192 0001:00000873   193 0001:0000087a   194 0001:00000880
   195 0001:00000887   196 0001:0000088d   198 0001:000008a0   200 0001:000008a3
   205 0001:000008b0   210 0001:000008c3   211 0001:000008cd   212 0001:000008d6
   213 0001:000008ec   214 0001:000008f2   218 0001:000008f7   219 0001:00000901
   220 0001:0000090a   221 0001:00000916   222 0001:00000920   224 0001:00000929
   226 0001:0000093f   227 0001:00000945   228 0001:00000950   230 0001:00000953
   238 0001:00000970   242 0001:00000976   243 0001:0000097d   244 0001:00000983
   245 0001:0000098a   246 0001:00000990   247 0001:00000997   248 0001:0000099d
   250 0001:000009b0   251 0001:000009b3   260 0001:000009c0   264 0001:000009c6
   265 0001:000009cd   266 0001:000009d3   267 0001:000009da   268 0001:000009e0
   269 0001:000009e7   270 0001:000009ed   272 0001:00000a00   274 0001:00000a03
   283 0001:00000a10   291 0001:00000a23   292 0001:00000a40   293 0001:00000a50
   296 0001:00000a63   297 0001:00000a6d   298 0001:00000a76   299 0001:00000a80
   300 0001:00000a8a   301 0001:00000a94   302 0001:00000aa0   303 0001:00000ab9
   306 0001:00000ac5   307 0001:00000b1d   308 0001:00000b27   309 0001:00000b29
   313 0001:00000b40   320 0001:00000b53   321 0001:00000b70   322 0001:00000b81
   325 0001:00000b95   326 0001:00000b9b   327 0001:00000ba2   328 0001:00000ba4
   329 0001:00000baa   332 0001:00000bb1   333 0001:00000bcf   336 0001:00000bd9
   337 0001:00000bf2   338 0001:00000c0e   340 0001:00000c2d   341 0001:00000c33
   353 0001:00000c50   356 0001:00000c89   359 0001:00000c93   360 0001:00000c9c
   361 0001:00000ca2   365 0001:00000ca7   367 0001:00000cc5   368 0001:00000d12
   369 0001:00000d21   370 0001:00000d30   371 0001:00000d32   372 0001:00000d5c
   374 0001:00000d61   377 0001:00000d80   379 0001:00000dae   381 0001:00000dbd
   382 0001:00000dcf   383 0001:00000df9   384 0001:00000e08   387 0001:00000e0a
   388 0001:00000e15   391 0001:00000e40   392 0001:00000e47   393 0001:00000e52
   399 0001:00000e60   400 0001:00000e67   401 0001:00000e7a   403 0001:00000e92
   404 0001:00000e94   410 0001:00000ea0   411 0001:00000ea9   413 0001:00000ebc
   414 0001:00000ed0   417 0001:00000ede   418 0001:00000ee0   421 0001:00000ef0
   422 0001:00000ef9   424 0001:00000f0c   425 0001:00000f20   428 0001:00000f25
   429 0001:00000f27   435 0001:00000f30   439 0001:00000f39   440 0001:00000f42
   441 0001:00000f48   443 0001:00000f4a   445 0001:00000f64   446 0001:00000f78
   447 0001:00000f80   448 0001:00000f82   459 0001:00000f90   467 0001:00000f99
   468 0001:00000f9f   469 0001:00000fa5   470 0001:00000fac   471 0001:00000fb2
   472 0001:00000fca   473 0001:00000fd5   476 0001:00000fdb   477 0001:00000ff4
   478 0001:00001000   481 0001:00001008   482 0001:0000101e   483 0001:00001024
   486 0001:00001029   489 0001:00001033   490 0001:0000103e   492 0001:00001058
   493 0001:0000106c   494 0001:00001077   495 0001:0000107f   496 0001:00001084
   498 0001:00001086   499 0001:00001088   503 0001:00001090   506 0001:00001099
   507 0001:000010a4   509 0001:000010be   510 0001:000010d2   511 0001:000010dd
   512 0001:000010f1   513 0001:000010f6   515 0001:000010f8   516 0001:000010fa
   518 0001:00001100   521 0001:00001109   522 0001:00001114   524 0001:0000112e
   525 0001:00001142   526 0001:0000114d   527 0001:00001161   528 0001:0000116b
   530 0001:0000116d   531 0001:0000116f   534 0001:00001180   535 0001:00001189
   536 0001:00001194   538 0001:000011a2   539 0001:000011ab   543 0001:000011af
   544 0001:000011b9   546 0001:000011bb   550 0001:000011d0   551 0001:000011d7
   552 0001:000011dd   565 0001:000011f0   566 0001:0000123f   567 0001:00001253
   570 0001:00001270   572 0001:0000129e   575 0001:000012a6   577 0001:000012b5
   578 0001:000012c7   579 0001:000012f1   580 0001:00001300   581 0001:00001302
   584 0001:0000130d   586 0001:0000131c   587 0001:0000132e   588 0001:00001358
   589 0001:00001367   590 0001:00001369   591 0001:00001374   594 0001:000013b0
   599 0001:00001402   600 0001:0000140b   601 0001:00001415   602 0001:0000141c
   606 0001:00001427   607 0001:00001449   608 0001:00001451   609 0001:0000146d
   612 0001:00001475   613 0001:0000148b   616 0001:00001493   619 0001:000014a6
   622 0001:000014b1   624 0001:000014bc   625 0001:000014c3   632 0001:000014f0
   637 0001:000014f9   640 0001:00001507   642 0001:00001521   643 0001:00001535
   644 0001:00001542   645 0001:0000154a   647 0001:0000154c   650 0001:00001555
   652 0001:0000156f   653 0001:00001583   656 0001:00001593   657 0001:0000159e
   659 0001:000015a6   661 0001:000015a8   670 0001:000015b0   676 0001:000015e3
   683 0001:000015fc   684 0001:0000161c   685 0001:00001625   688 0001:0000162c
   689 0001:00001642   690 0001:00001652   692 0001:00001658   695 0001:00001662
   698 0001:0000168c   699 0001:00001698   700 0001:000016b1   701 0001:000016ba
   704 0001:000016bf   707 0001:000016db   710 0001:00001708   711 0001:0000171e
   714 0001:00001720   715 0001:0000173f   718 0001:00001741   719 0001:00001782
   722 0001:00001790   723 0001:000017d7   726 0001:000017e5   728 0001:0000181f
   729 0001:000018ca   730 0001:000018df   731 0001:000018e4   733 0001:000018e9
   735 0001:000018ee   736 0001:000018fc   744 0001:00001920   750 0001:00001953
   758 0001:0000196c   759 0001:00001989   760 0001:0000198f   763 0001:00001996
   764 0001:000019a9   765 0001:000019b6   767 0001:000019bc   768 0001:000019c6
   771 0001:000019d4   774 0001:000019fe   775 0001:00001a0a   776 0001:00001a20
   777 0001:00001a26   780 0001:00001a2b   781 0001:00001a41   784 0001:00001a43
   787 0001:00001a5f   789 0001:00001a7e   792 0001:00001aab   794 0001:00001ac4
   795 0001:00001acb   796 0001:00001ae4   800 0001:00001b0b   802 0001:00001b24
   803 0001:00001b2b   804 0001:00001b41   807 0001:00001b68   809 0001:00001b6d
   811 0001:00001b87   812 0001:00001c17   815 0001:00001c2c   817 0001:00001c31
   818 0001:00001c3f   821 0001:00001c60   824 0001:00001c69   825 0001:00001c77
   827 0001:00001c91   828 0001:00001ca5   830 0001:00001cb2   831 0001:00001cba
   833 0001:00001cbe   834 0001:00001cc0   835 0001:00001cc2   839 0001:00001cd0
   840 0001:00001cd7   841 0001:00001ced   843 0001:00001cf1   844 0001:00001d07
   847 0001:00001d10   848 0001:00001d17   849 0001:00001d2d   850 0001:00001d32
   851 0001:00001d48   854 0001:00001d50   856 0001:00001d59   857 0001:00001d67
   858 0001:00001d6f   860 0001:00001d73   861 0001:00001d87   863 0001:00001d8d
   864 0001:00001d9a   867 0001:00001d9e   868 0001:00001da0   872 0001:00001db0
   873 0001:00001db7   874 0001:00001dbd   877 0001:00001dd0   882 0001:00001dee
   887 0001:00001e07   890 0001:00001e10   891 0001:00001e2c   892 0001:00001e3c
   894 0001:00001e42   897 0001:00001e4c   900 0001:00001e76   901 0001:00001e82
   902 0001:00001ea1   903 0001:00001eaa   906 0001:00001eaf   909 0001:00001ed1
   912 0001:00001efe   913 0001:00001f14   916 0001:00001f16   917 0001:00001f37
   920 0001:00001f39   921 0001:00001f80   924 0001:00001f8e   925 0001:00001fd5
   928 0001:00001fe2   930 0001:00002018   932 0001:00002028   933 0001:00002033
   935 0001:00002037   937 0001:00002039   939 0001:0000203e   940 0001:00002043
   941 0001:00002045   950 0001:00002060   952 0001:00002069   954 0001:0000206d
   956 0001:0000207b   958 0001:00002095   959 0001:000020a9   960 0001:000020b6
   961 0001:000020c9   963 0001:000020cb   965 0001:000020d4   967 0001:000020ee
   968 0001:00002102   969 0001:0000210d   970 0001:0000210f   971 0001:0000211f
   972 0001:00002127   975 0001:00002129   976 0001:0000212c   984 0001:00002140
   986 0001:00002149   987 0001:0000215f   990 0001:00002163   991 0001:00002177
   993 0001:00002182   994 0001:00002196  1000 0001:000021a0  1002 0001:000021a9
  1003 0001:000021bf  1006 0001:000021c1  1007 0001:000021d5  1009 0001:000021db
  1010 0001:000021e3  1012 0001:000021eb  1020 0001:00002200  1021 0001:00002209
  1023 0001:00002210  1024 0001:0000221e  1026 0001:00002238  1027 0001:0000224c
  1028 0001:00002254  1029 0001:0000225c  1030 0001:0000226b  1031 0001:00002276
  1033 0001:00002278  1035 0001:00002284  1036 0001:00002286  1044 0001:00002290
  1049 0001:000022ae  1055 0001:000022c7  1056 0001:000022e3  1057 0001:000022f1
  1059 0001:000022f7  1062 0001:00002301  1065 0001:0000232b  1066 0001:00002337
  1067 0001:00002356  1068 0001:0000235f  1071 0001:00002364  1074 0001:00002386
  1077 0001:000023b3  1078 0001:000023c9  1081 0001:000023cb  1082 0001:000023ea
  1085 0001:000023ec  1086 0001:00002433  1089 0001:00002441  1090 0001:00002488
  1093 0001:00002496  1095 0001:000024cc  1096 0001:000024e1  1097 0001:000024f2
  1098 0001:000024f4  1099 0001:00002505  1100 0001:00002507  1101 0001:00002548
  1103 0001:0000254d  1105 0001:00002552  1113 0001:00002570  1115 0001:00002579
  1116 0001:0000258f  1119 0001:00002593  1120 0001:000025a7  1122 0001:000025b2
  1123 0001:000025be  1124 0001:000025ca  1127 0001:000025da  1129 0001:000025e3
  1130 0001:000025e5  1144 0001:000025f0  1146 0001:000025f9  1147 0001:00002608
  1150 0001:0000260c  1151 0001:0000261a  1154 0001:00002634  1155 0001:00002648
  1156 0001:0000264e  1158 0001:00002650  1159 0001:00002658  1160 0001:00002660
  1162 0001:00002662  1163 0001:0000266e  1165 0001:00002678  1167 0001:0000267a
  1168 0001:0000267d  1179 0001:00002690  1180 0001:000026a2  1181 0001:000026bc
  1184 0001:000026d0  1185 0001:000026e2  1186 0001:000026ed  1187 0001:0000271b
  1190 0001:00002720  1192 0001:0000274a  1193 0001:00002756  1194 0001:00002762
  1195 0001:00002778  1196 0001:00002784  1197 0001:00002791  1198 0001:00002797
  1199 0001:000027a1  1200 0001:000027a3  1203 0001:000027ad  1209 0001:000027c6
  1212 0001:000027ea  1213 0001:000027f0  1215 0001:00002816  1216 0001:00002846
  1217 0001:00002851  1218 0001:0000285d  1221 0001:0000285f  1223 0001:00002887
  1229 0001:000028a0  1230 0001:000028be  1237 0001:000028d7  1238 0001:00002901
  1239 0001:00002907  1242 0001:0000290c  1244 0001:00002932  1245 0001:0000295f
  1246 0001:00002967  1247 0001:0000296c  1250 0001:0000296e  1251 0001:00002973
  1254 0001:00002990  1258 0001:000029c3  1259 0001:00002a26  1263 0001:00002a31
  1264 0001:00002a4d  1265 0001:00002a61  1269 0001:00002a67  1271 0001:00002a71
  1273 0001:00002a9b  1274 0001:00002aa7  1275 0001:00002ac6  1276 0001:00002acf
  1278 0001:00002ad4  1279 0001:00002aea  1282 0001:00002aec  1283 0001:00002af8
  1284 0001:00002b02  1285 0001:00002b0c  1287 0001:00002b16  1290 0001:00002b35
  1291 0001:00002b41  1292 0001:00002b60  1293 0001:00002b69  1296 0001:00002b6e
  1298 0001:00002b79  1299 0001:00002b88  1302 0001:00002b8a  1303 0001:00002ba3
  1305 0001:00002bc5  1308 0001:00002bf2  1309 0001:00002c0b  1318 0001:00002c0d
  1320 0001:00002c73  1321 0001:00002c99  1322 0001:00002cb5  1323 0001:00002cc4
  1324 0001:00002cf1  1325 0001:00002d17  1326 0001:00002d26  1327 0001:00002d35
  1330 0001:00002d37  1331 0001:00002d3c  1333 0001:00002d4b  1335 0001:00002d59
  1336 0001:00002d62  1337 0001:00002d64  1338 0001:00002d6e  1339 0001:00002d78
  1341 0001:00002d87  1342 0001:00002d8c  1345 0001:00002d91  1346 0001:00002d97
  1349 0001:00002dc0  1350 0001:00002dc7  1351 0001:00002dcd  1354 0001:00002de0
  1355 0001:00002de7  1356 0001:00002ded  1359 0001:00002e00  1360 0001:00002e07
  1361 0001:00002e0d  1367 0001:00002e20  1368 0001:00002e29  1371 0001:00002e37
  1373 0001:00002e51  1374 0001:00002e71  1375 0001:00002e88  1376 0001:00002e8a
  1379 0001:00002e90  1380 0001:00002eae  1383 0001:00002ec7  1386 0001:00002ece
  1389 0001:00002ef8  1390 0001:00002efe  1393 0001:00002f03  1394 0001:00002f29
  1396 0001:00002f5e  1397 0001:00002f61  1400 0001:00002f70  1402 0001:00002f8e
  1405 0001:00002fa3  1411 0001:00002fbc  1414 0001:00002fe6  1415 0001:00002fec
  1418 0001:00002fee  1420 0001:00003014  1421 0001:00003041  1422 0001:00003047
  1423 0001:00003053  1424 0001:00003055  1431 0001:00003070  1434 0001:00003079
  1437 0001:00003087  1439 0001:000030a5  1440 0001:000030c5  1441 0001:000030dc
  1443 0001:000030f3  1446 0001:000030fb  1447 0001:00003101  1449 0001:00003126
  1451 0001:0000312b  1452 0001:0000312e  1456 0001:00003140  1457 0001:00003147
  1458 0001:0000315a  1461 0001:00003160  1462 0001:00003167  1463 0001:00003170
  1467 0001:00003180  1469 0001:0000319e  1472 0001:000031b7  1475 0001:000031be
  1478 0001:000031e8  1479 0001:000031ee  1482 0001:000031f3  1484 0001:00003219
  1485 0001:0000324a  1486 0001:00003260  1488 0001:00003262  1490 0001:00003265
  1501 0001:00003280  1502 0001:00003292  1503 0001:000032b7  1506 0001:000032c0
  1507 0001:000032d0  1508 0001:000032d9  1509 0001:000032e2  1510 0001:000032eb
  1511 0001:000032f4  1512 0001:000032fd  1513 0001:00003306  1517 0001:00003310
  1518 0001:00003320  1522 0001:00003330  1523 0001:00003339  1524 0001:00003342
  1526 0001:0000334b  1527 0001:00003365  1529 0001:0000337f  1533 0001:00003390
  1534 0001:00003397  1535 0001:000033b1  1539 0001:000033c0  1540 0001:000033c7
  1541 0001:000033e1  1546 0001:000033f0  1547 0001:000033f7  1548 0001:000033fd
  1552 0001:00003410  1553 0001:00003417  1554 0001:0000341d

Line numbers for .\Debug\AboutDlg.obj(c:\program files\microsoft visual studio .net 2003\vc7\atlmfc\include\atlconv.h) segment .text

   134 0001:000002c0   138 0001:000002d3   139 0001:000002dd   140 0001:000002ea
   143 0001:000002fc   145 0001:00000306   147 0001:00000308   149 0001:00000312
   151 0001:00000323   152 0001:00000329    91 0001:00000340    92 0001:00000343
    93 0001:00000351   101 0001:00000360   102 0001:00000370   104 0001:00000377
   110 0001:00000380   112 0001:00000399   113 0001:0000039f   115 0001:000003a9
   116 0001:000003b2   117 0001:000003cb   120 0001:000003cd   121 0001:000003d3
   123 0001:000003dc   124 0001:000003df   127 0001:000003f0   128 0001:000003f3
   129 0001:000003f8

Line numbers for .\Debug\AboutDlg.obj(c:\code\smartpropoplus\341\sppconsole\aboutdlg.cpp) segment .text

    21 0001:00000000    24 0001:00000048    28 0001:00000070    29 0001:00000077
    32 0001:00000083    35 0001:00000090    35 0001:000000a0    43 0001:000000b0
    46 0001:000000ce    47 0001:000000e2    48 0001:000000f2    51 0001:00000121
    53 0001:00000131    55 0001:00000141    56 0001:00000148    57 0001:0000014f
    59 0001:00000156    61 0001:00000168    62 0001:0000018a    64 0001:0000019c
    65 0001:000001a4    67 0001:000001cb

Line numbers for ../smartpropoplus/debug\smartpropoplus.lib(c:\code\smartpropoplus\341\smartpropoplus\smartpropoplus.c) segment .text

     8 0001:0000fae0    14 0001:0000faf3    15 0001:0000faff    16 0001:0000fb20
    17 0001:0000fb40    18 0001:0000fb59    21 0001:0000fb70    22 0001:0000fb73
    23 0001:0000fb83    26 0001:0000fb90    27 0001:0000fb93    28 0001:0000fba3
    54 0001:0000fbb0    55 0001:0000fbb3    56 0001:0000fbbf    92 0001:0000fbd0
    94 0001:0000fbd3    95 0001:0000fbdf   101 0001:0000fbf0   103 0001:0000fbf3
   104 0001:0000fbff   110 0001:0000fc10   112 0001:0000fc13   113 0001:0000fc1f
   121 0001:0000fc30   128 0001:0000fc33   129 0001:0000fc3f   135 0001:0000fc50
   136 0001:0000fc53   137 0001:0000fc58   141 0001:0000fc60   142 0001:0000fc66
   143 0001:0000fc6d   145 0001:0000fcc8   147 0001:0000fcd4   148 0001:0000fcee
   149 0001:0000fcf9   150 0001:0000fd02   152 0001:0000fd04   153 0001:0000fd09
   157 0001:0000fd10   162 0001:0000fd16   163 0001:0000fd34   165 0001:0000fd3a
   166 0001:0000fd44   169 0001:0000fd48   170 0001:0000fd52   171 0001:0000fd57
   178 0001:0000fd60   182 0001:0000fd64   183 0001:0000fd78   186 0001:0000fd7d
   187 0001:0000fd86   188 0001:0000fd8d   189 0001:0000fd98   190 0001:0000fd9f
   191 0001:0000fdaa   192 0001:0000fdb1   193 0001:0000fdbc   194 0001:0000fdc3
   195 0001:0000fdc5   198 0001:0000fdcc   200 0001:0000fddc   201 0001:0000fddf
   207 0001:0000fdf0   208 0001:0000fdf3   209 0001:0000fe03   212 0001:0000fe10
   219 0001:0000fe14   221 0001:0000fe1c   223 0001:0000fe1f   226 0001:0000fe30
   227 0001:0000fe33   229 0001:0000fe3f   232 0001:0000fe50   233 0001:0000fe53
   234 0001:0000fe58   237 0001:0000fe60   238 0001:0000fe63   239 0001:0000fe6f
   242 0001:0000fe80   246 0001:0000fe86   248 0001:0000fe8e   252 0001:0000fe94
   253 0001:0000fe9c   256 0001:0000fea1   257 0001:0000fea6   260 0001:0000feb0
   261 0001:0000feb3   262 0001:0000febf   265 0001:0000fed0   266 0001:0000fed3
   267 0001:0000feeb   269 0001:0000fef0   270 0001:0000fef3   272 0001:0000feff
   275 0001:0000ff10   276 0001:0000ff13   277 0001:0000ff23   285 0001:0000ff30
   286 0001:0000ff33   287 0001:0000ff38   290 0001:0000ff40   291 0001:0000ff43
   292 0001:0000ff4f   295 0001:0000ff60   296 0001:0000ff63   297 0001:0000ff73
   308 0001:0000ff80   310 0001:0000ff94   314 0001:0000ffae   315 0001:0000ffb4
   318 0001:0000ffbb   319 0001:0000ffd1   320 0001:0000ffd7   323 0001:0000ffde
   324 0001:0000fff7   325 0001:0001000e   326 0001:00010017   327 0001:0001001c
   330 0001:00010029   331 0001:00010042   332 0001:00010059   333 0001:00010062
   334 0001:00010069   337 0001:00010076   338 0001:0001007b

Line numbers for ../smartpropoplus/debug\smartpropoplus.lib(c:\code\smartpropoplus\341\sppregistry\sppregistry.c) segment .text

    15 0001:00010090    19 0001:00010096    24 0001:0001009d    25 0001:000100a6
    26 0001:000100ad    27 0001:000100b8    28 0001:000100bf    29 0001:000100ca
    30 0001:000100d1    31 0001:000100dc    32 0001:000100e3    33 0001:000100e5
    36 0001:000100ec    37 0001:00010107    38 0001:0001010d    41 0001:00010111
    42 0001:0001012e    43 0001:00010134    44 0001:0001013b    45 0001:0001013d
    47 0001:00010144    48 0001:0001014e    49 0001:00010151    59 0001:00010160
    63 0001:00010166    68 0001:0001016d    69 0001:00010176    70 0001:0001017d
    71 0001:00010188    72 0001:0001018f    73 0001:0001019a    74 0001:000101a1
    75 0001:000101ac    76 0001:000101b3    77 0001:000101b5    80 0001:000101bc
    81 0001:000101da    82 0001:000101e0    85 0001:000101e4    86 0001:000101ff
    87 0001:00010205    88 0001:0001020c    89 0001:0001020e    91 0001:00010215
    92 0001:0001021f    93 0001:00010222    98 0001:00010230   105 0001:00010236
   106 0001:0001023f   108 0001:00010244   109 0001:0001024d   112 0001:00010252
   113 0001:0001026d   114 0001:00010273   117 0001:00010277   118 0001:0001027e
   119 0001:0001029c   120 0001:000102a2   122 0001:000102a6   123 0001:000102b0
   124 0001:000102b3   127 0001:000102c0   134 0001:000102c6   135 0001:000102cf
   137 0001:000102d4   138 0001:000102dd   141 0001:000102e2   142 0001:000102fd
   143 0001:00010303   146 0001:00010307   147 0001:0001030e   148 0001:0001032c
   149 0001:00010332   151 0001:00010339   152 0001:00010343   153 0001:00010346
   158 0001:00010350   162 0001:00010356   163 0001:0001037c   165 0001:00010382
   166 0001:0001038c   168 0001:00010390   169 0001:0001039a   170 0001:0001039f
   175 0001:000103b0   179 0001:000103b6   180 0001:000103dc   181 0001:000103e2
   182 0001:000103e6   183 0001:000103f0   184 0001:000103f5   189 0001:00010400
   193 0001:00010406   194 0001:0001040d   197 0001:00010414   198 0001:0001043a
   200 0001:00010440   201 0001:0001044a   205 0001:0001044e   206 0001:0001046a
   208 0001:00010486   210 0001:0001048b   211 0001:00010495   212 0001:0001049a
   216 0001:000104a0   219 0001:000104a6   220 0001:00010501   223 0001:00010508
   224 0001:0001052e   225 0001:00010534   228 0001:0001053b   230 0001:00010547
   231 0001:0001057f   232 0001:00010588   235 0001:0001058a   237 0001:000105b3
   238 0001:000105bd   239 0001:000105c2   243 0001:000105d0   248 0001:000105d6
   249 0001:000105df   251 0001:000105e4   252 0001:000105ed   255 0001:000105f2
   256 0001:00010610   257 0001:00010616   260 0001:00010618   261 0001:00010631
   262 0001:00010637   264 0001:00010639   265 0001:00010643   269 0001:00010650
   274 0001:00010656   275 0001:0001065f   277 0001:00010664   278 0001:0001066d
   281 0001:00010672   282 0001:00010690   283 0001:00010696   286 0001:00010698
   287 0001:000106b1   288 0001:000106b7   290 0001:000106b9   291 0001:000106c3
   296 0001:000106d0   299 0001:000106e4   303 0001:000106ff   304 0001:00010708
   306 0001:0001070d   307 0001:00010716   310 0001:0001071b   311 0001:00010736
   312 0001:0001073c   315 0001:00010740   316 0001:0001074a   317 0001:0001076e
   318 0001:00010774   320 0001:00010778   321 0001:00010787   330 0001:000107a0
   333 0001:000107a6   335 0001:000107ad   336 0001:000107b5   337 0001:000107bb
   341 0001:000107bf   342 0001:000107da   343 0001:000107e0   346 0001:000107e4
   347 0001:00010801   348 0001:00010807   350 0001:0001080b   351 0001:00010815
   352 0001:0001081a   355 0001:00010820   358 0001:00010826   359 0001:0001082d
   363 0001:00010834   364 0001:0001084f   365 0001:00010855   368 0001:0001085c
   369 0001:0001087a   370 0001:00010880   371 0001:00010889   372 0001:0001088b
   374 0001:00010894   375 0001:000108b2   376 0001:000108b8   377 0001:000108c1
   378 0001:000108c3   380 0001:000108cc   381 0001:000108ea   382 0001:000108f0
   383 0001:000108f9   384 0001:000108fb   386 0001:00010904   387 0001:00010922
   388 0001:00010928   389 0001:00010931   390 0001:00010933   392 0001:0001093c
   394 0001:0001093f   398 0001:00010950   403 0001:00010956   404 0001:0001095f
   406 0001:00010964   407 0001:0001096d   410 0001:00010972   411 0001:00010990
   412 0001:00010996   415 0001:00010998   417 0001:000109bf   418 0001:000109c9
   422 0001:000109d0   427 0001:000109d6   428 0001:000109df   430 0001:000109e4
   431 0001:000109ed   433 0001:000109f2   434 0001:000109fb   438 0001:00010a00
   439 0001:00010a1e   440 0001:00010a24   443 0001:00010a26   445 0001:00010a3e
   446 0001:00010a48   453 0001:00010a50   456 0001:00010a56   457 0001:00010ab1
   460 0001:00010ab8   461 0001:00010ac1   462 0001:00010ac9   463 0001:00010ae7
   464 0001:00010aed   467 0001:00010af5   469 0001:00010b01   471 0001:00010b1b
   472 0001:00010b24   478 0001:00010b26   479 0001:00010b45   480 0001:00010b4b
   483 0001:00010b50   485 0001:00010b83   486 0001:00010b8d   487 0001:00010b90
   493 0001:00010ba0   498 0001:00010ba6   499 0001:00010baf   500 0001:00010bb1
   501 0001:00010bcf   502 0001:00010bd5   505 0001:00010bd7   506 0001:00010bf3
   507 0001:00010bfd   515 0001:00010c10   520 0001:00010c16   521 0001:00010c1f
   522 0001:00010c21   523 0001:00010c3f   524 0001:00010c45   527 0001:00010c47
   528 0001:00010c63   529 0001:00010c6d   534 0001:00010c80   538 0001:00010c86
   539 0001:00010c8f   541 0001:00010c93   542 0001:00010c9c   545 0001:00010ca0
   546 0001:00010cbb   548 0001:00010cc1   549 0001:00010ccb   553 0001:00010ccf
   554 0001:00010ce9   556 0001:00010cf3   558 0001:00010cf9   559 0001:00010d03
   562 0001:00010d07   564 0001:00010d0c   573 0001:00010d10   576 0001:00010d16
   602 0001:00010d1d   603 0001:00010d26   605 0001:00010d2b   606 0001:00010d34
   608 0001:00010d39   618 0001:00010d42   619 0001:00010d60   625 0001:00010d66
   629 0001:00010d6e   630 0001:00010d8a   636 0001:00010d90   640 0001:00010d95
   651 0001:00010d9f   652 0001:00010dba   658 0001:00010dc0   664 0001:00010dc5
   665 0001:00010dcc   666 0001:00010dea   667 0001:00010df4   681 0001:00010dfa
   682 0001:00010e00   684 0001:00010e05   685 0001:00010e08   695 0001:00010e10
   704 0001:00010e24   705 0001:00010e35   706 0001:00010e3f   711 0001:00010e5a
   712 0001:00010e69   714 0001:00010e6e   715 0001:00010e7d   718 0001:00010e82
   719 0001:00010e8d   720 0001:00010e9c   721 0001:00010ea1   722 0001:00010eb2
   725 0001:00010eb7   726 0001:00010ed2   727 0001:00010ed8   730 0001:00010edf
   731 0001:00010ee9   732 0001:00010f0d   737 0001:00010f31   738 0001:00010f4f
   739 0001:00010f55   740 0001:00010f5c   741 0001:00010f91   742 0001:00010f97
   745 0001:00010f9e   746 0001:00010fad   748 0001:00010fd4   749 0001:00010fed
   751 0001:0001100e   752 0001:00011014   755 0001:00011019   756 0001:00011028
   757 0001:00011037   760 0001:0001106b   762 0001:00011087   763 0001:0001109d
   764 0001:000110bb   765 0001:000110d8   766 0001:000110ed   767 0001:0001110f
   768 0001:0001111b   770 0001:0001112a   772 0001:0001112f   775 0001:0001113f
   776 0001:0001114c   777 0001:00011154   778 0001:00011160   779 0001:0001116c
   781 0001:00011178   782 0001:00011185   783 0001:00011188   787 0001:000111a0
   791 0001:000111a6   792 0001:000111c4   794 0001:000111ca   795 0001:000111d4
   798 0001:000111d8   799 0001:000111e2   801 0001:000111e7   811 0001:000111f0
   814 0001:00011204   817 0001:00011286   819 0001:000112a1   820 0001:000112bf
   822 0001:000112c5   823 0001:000112d2   825 0001:000112da   826 0001:0001130f
   828 0001:00011315   829 0001:00011322   833 0001:00011327   834 0001:0001132e
   835 0001:0001133d   837 0001:0001134c   838 0001:00011371   840 0001:00011377
   841 0001:00011384   843 0001:00011388   844 0001:00011391   846 0001:00011393
   847 0001:000113a0   848 0001:000113a5   855 0001:000113c0   858 0001:000113d4
   861 0001:00011456   863 0001:00011471   864 0001:00011492   866 0001:00011498
   867 0001:000114a5   869 0001:000114ad   870 0001:000114e2   872 0001:000114e8
   873 0001:000114f5   877 0001:000114fd   878 0001:00011504   879 0001:00011513
   881 0001:00011526   882 0001:0001154b   883 0001:00011551   884 0001:00011598
   885 0001:000115a1   887 0001:000115a6   888 0001:000115b3   889 0001:000115b8
   893 0001:000115d0   897 0001:000115d6   898 0001:000115f4   899 0001:000115fa
   901 0001:000115fe   902 0001:00011608   904 0001:0001160d   908 0001:00011620
   913 0001:00011626   914 0001:0001162f   915 0001:00011634   916 0001:00011652
   917 0001:00011658   920 0001:0001165d   921 0001:00011687   923 0001:00011691
   924 0001:00011693   928 0001:000116a0   931 0001:000116b4   935 0001:000116cf
   936 0001:000116d8   938 0001:000116dd   939 0001:000116e6   942 0001:000116eb
   943 0001:00011706   944 0001:0001170c   947 0001:00011710   948 0001:0001171a
   949 0001:0001173e   950 0001:00011744   952 0001:00011748   953 0001:00011757
   956 0001:00011770   961 0001:00011776   962 0001:0001177f   965 0001:00011783
   966 0001:0001179e   967 0001:000117a4   970 0001:000117a8   971 0001:000117af
   972 0001:000117cd   973 0001:000117eb   974 0001:000117f7   976 0001:000117fb
   977 0001:00011800   980 0001:00011810   985 0001:00011816   986 0001:0001181f
   987 0001:00011821   988 0001:0001183f   989 0001:00011845   992 0001:00011847
   993 0001:00011863   994 0001:0001187f   995 0001:00011889   998 0001:00011890
  1005 0001:00011896  1006 0001:0001189f  1008 0001:000118a4  1009 0001:000118ad
  1012 0001:000118b2  1013 0001:000118cd  1014 0001:000118d3  1017 0001:000118d7
  1018 0001:000118de  1019 0001:000118fc  1020 0001:00011902  1022 0001:00011907
  1024 0001:00011911  1025 0001:00011914  1028 0001:00011920  1033 0001:00011926
  1034 0001:0001192f  1035 0001:00011931  1036 0001:0001194f  1037 0001:00011955
  1040 0001:00011957  1041 0001:00011973  1042 0001:0001197d  1058 0001:00011990
  1061 0001:000119a4  1069 0001:000119be  1070 0001:000119ca  1073 0001:000119d4
  1074 0001:000119dd  1076 0001:000119e2  1077 0001:000119eb  1080 0001:000119f0
  1081 0001:00011a0e  1082 0001:00011a14  1085 0001:00011a1b  1086 0001:00011a24
  1087 0001:00011a4b  1088 0001:00011a51  1091 0001:00011a58  1092 0001:00011a63
  1098 0001:00011a6d  1099 0001:00011a95  1100 0001:00011ab4  1101 0001:00011ac8
  1104 0001:00011adb  1105 0001:00011af2  1106 0001:00011afb  1108 0001:00011b00
  1109 0001:00011b0d  1111 0001:00011b12  1114 0001:00011b30  1117 0001:00011b44
  1121 0001:00011b5e  1122 0001:00011b7c  1123 0001:00011b82  1126 0001:00011b86
  1127 0001:00011b8f  1128 0001:00011bb3  1129 0001:00011bb9  1131 0001:00011bbd
  1132 0001:00011bc2

Line numbers for \Code\SmartPropoPlus\341\FilterIf\Debug\FilterIf.lib(c:\program files\microsoft visual studio .net 2003\vc7\include\tchar.h) segment .text

   854 0001:000120f0

Line numbers for \Code\SmartPropoPlus\341\FilterIf\Debug\FilterIf.lib(c:\code\smartpropoplus\341\filterif\filterif.cpp) segment .text

    11 0001:00011cb0    14 0001:00011ce2    17 0001:00011cf0    18 0001:00011cfe
    21 0001:00011d10    23 0001:00011d2f    24 0001:00011d4d    25 0001:00011d56
    28 0001:00011d5d    29 0001:00011d7b    30 0001:00011d81    33 0001:00011d85
    34 0001:00011d97    35 0001:00011da3    39 0001:00011da7    40 0001:00011dc5
    41 0001:00011dcb    42 0001:00011dcf    43 0001:00011de0    44 0001:00011de2
    47 0001:00011e00    48 0001:00011e0e    49 0001:00011e13    52 0001:00011e20
    54 0001:00011e3e    55 0001:00011e46    56 0001:00011e5c    61 0001:00011e61
    62 0001:00011e7f    63 0001:00011e85    64 0001:00011e8a    66 0001:00011ea6
    67 0001:00011eb9    68 0001:00011ecd    69 0001:00011ed2    70 0001:00011ed4
    71 0001:00011ed7    74 0001:00011ef0    76 0001:00011f08    77 0001:00011f26
    78 0001:00011f2c    80 0001:00011f30    81 0001:00011f40    84 0001:00011f60
    86 0001:00011f78    87 0001:00011f96    88 0001:00011f9c    89 0001:00011fa1
    90 0001:00011fa7    91 0001:00011fae    92 0001:00011fb0    94 0001:00011fb7
    95 0001:00011fc7    98 0001:00011fe0   100 0001:00011ff8   101 0001:00012016
   102 0001:0001201c   104 0001:00012020   105 0001:00012038   108 0001:00012050
   111 0001:00012070   112 0001:0001207b   115 0001:00012080   116 0001:00012086
   117 0001:0001208e   120 0001:000120a5   121 0001:000120af   122 0001:000120b5

Line numbers for C:\Program Files\Microsoft Visual Studio .NET 2003\Vc7\atlmfc\lib\mfcs71d.lib(f:\vs70builds\6030\vc\mfcatl\ship\atlmfc\src\mfc\appmodul.cpp) segment .text

    22 0001:0001aeb0    24 0001:0001aeb3    25 0001:0001aec8    31 0001:0001aed0
    32 0001:0001aed4    33 0001:0001aedc    34 0001:0001aee5    37 0001:0001aeff
    41 0001:0001af0b    42 0001:0001af11    44 0001:0001af1c    45 0001:0001af21
    66 0001:0001c050

Line numbers for C:\Program Files\Microsoft Visual Studio .NET 2003\Vc7\atlmfc\lib\mfcs71d.lib(f:\vs70builds\6030\vc\mfcatl\ship\atlmfc\include\atlbase.h) segment .text

  2620 0001:0001bb50

Line numbers for C:\Program Files\Microsoft Visual Studio .NET 2003\Vc7\atlmfc\lib\mfcs71d.lib(f:\vs70builds\6030\vc\mfcatl\ship\atlmfc\include\atlconv.h) segment .text

   573 0001:00012c70   574 0001:00012c74   575 0001:00012c9c   576 0001:00012cc4
   577 0001:00012cd0   581 0001:00012cd4   582 0001:00012cda   583 0001:00012cfb
   585 0001:00012d01   586 0001:00012d27   588 0001:00012d2b   589 0001:00012d2e
   554 0001:000130c0   555 0001:000130c4   556 0001:000130ec   557 0001:00013114
   558 0001:00013120   562 0001:00013124   563 0001:0001312c   564 0001:00013149
   566 0001:0001314f   567 0001:00013175   569 0001:00013179   570 0001:0001317c
   419 0001:000132b0   420 0001:000132c2   421 0001:000132d4   442 0001:000132e0
   443 0001:000132e9   445 0001:000132ef   446 0001:000132f8   448 0001:000132fa
   449 0001:0001330a   451 0001:00013312   453 0001:0001331b   454 0001:0001332d
   456 0001:00013335   460 0001:0001333f   462 0001:00013365   464 0001:0001336a

Line numbers for C:\Program Files\Microsoft Visual Studio .NET 2003\Vc7\atlmfc\lib\mfcs71d.lib(f:\vs70builds\6030\vc\mfcatl\ship\atlmfc\include\cstringt.h) segment .text

   183 0001:00012830   185 0001:00012833   187 0001:0001284b   188 0001:0001285d
   159 0001:00012870   162 0001:00012898   163 0001:000128aa   165 0001:000128bd
   166 0001:000128d6   167 0001:000128dc   169 0001:00012912   170 0001:00012923
   172 0001:00012945   173 0001:0001296b   174 0001:00012971   175 0001:000129a9
   176 0001:000129d6   178 0001:000129fd   179 0001:00012a30   216 0001:00012a50
   217 0001:00012a53   219 0001:00012a6b   220 0001:00012a89   192 0001:00012a90
   193 0001:00012aab   195 0001:00012ad7   196 0001:00012ade   198 0001:00012ae8
   199 0001:00012b70   200 0001:00012b76   203 0001:00012b80   204 0001:00012b87
   206 0001:00012b91   207 0001:00012c19   208 0001:00012c1f   211 0001:00012c29
   212 0001:00012c5c   240 0001:00012d40   241 0001:00012d43   243 0001:00012d5b
   244 0001:00012d75   224 0001:00012d80   226 0001:00012da8   228 0001:00012dba
   229 0001:00012dde   230 0001:00012df0   232 0001:00012e1d   233 0001:00012e23
   235 0001:00012e2d   236 0001:00012e70   254 0001:00012e90   255 0001:00012e93
   257 0001:00012eab   258 0001:00012eb9   247 0001:00012ec0   248 0001:00012ec6
   250 0001:00012ee3   251 0001:00012f8f   273 0001:00012fa0   274 0001:00012fa3
   276 0001:00012fbb   277 0001:00012fc5   261 0001:00012fd0   262 0001:00012fd6
   265 0001:00012ff3   266 0001:00013048   267 0001:00013052   269 0001:000130b3
   270 0001:000130b6   292 0001:00013190   293 0001:00013193   295 0001:000131ab
   296 0001:000131b5   280 0001:000131c0   281 0001:000131c6   284 0001:000131e3
   285 0001:00013238   286 0001:00013242   288 0001:000132a3   289 0001:000132a6

Line numbers for C:\Program Files\Microsoft Visual Studio .NET 2003\Vc7\lib\msvcrtd.lib(F:\VS70Builds\3077\vc\crtbld\crt\src\intel\chkstk.asm) segment .text

    69 0001:00013400    65 0001:00013400    70 0001:00013405    72 0001:00013407
    73 0001:00013409    74 0001:0001340b    75 0001:0001340e    76 0001:00013410
    77 0001:00013411    78 0001:00013413    79 0001:00013414    82 0001:00013415
    83 0001:00013416    88 0001:0001341a    89 0001:00013420    91 0001:00013425
    93 0001:00013427    94 0001:0001342c    97 0001:0001342e    98 0001:00013430
   100 0001:00013432   102 0001:00013434   104 0001:00013436   105 0001:00013438
   107 0001:0001343b   109 0001:0001343c

Line numbers for C:\Program Files\Microsoft Visual Studio .NET 2003\Vc7\lib\msvcrtd.lib(f:\vs70builds\3077\vc\crtbld\crt\src\atonexit.c) segment .text

    76 0001:00013640    81 0001:00013644    90 0001:0001367b    95 0001:00013680
    96 0001:00013683    97 0001:00013696

Line numbers for C:\Program Files\Microsoft Visual Studio .NET 2003\Vc7\lib\msvcrtd.lib(f:\vs70builds\3077\vc\crtbld\crt\src\crtexe.c) segment .text

   202 0001:000137b0   214 0001:000137d6   222 0001:000137dd   229 0001:000137e5
   234 0001:000137ec   244 0001:000137f7   249 0001:0001380b   250 0001:00013819
   257 0001:00013827   264 0001:00013834   275 0001:00013839   282 0001:0001383e
   283 0001:00013847   286 0001:00013855   305 0001:0001385a   308 0001:0001386c
   324 0001:00013879   327 0001:00013882   329 0001:000138a8   330 0001:000138b1
   336 0001:000138bb   349 0001:000138cd   353 0001:000138d8   358 0001:000138f3
   360 0001:0001390a   361 0001:0001391e   362 0001:00013924   366 0001:0001392d
   367 0001:00013936   372 0001:00013938   373 0001:0001394d   374 0001:00013956
   376 0001:00013958   377 0001:0001395f   390 0001:00013969   403 0001:000139a8
   404 0001:000139ae   406 0001:000139bb   409 0001:000139ca   415 0001:000139ee
   417 0001:000139fa   418 0001:00013a00   420 0001:00013a0d   424 0001:00013a1a
   425 0001:00013a20   448 0001:00013a40   454 0001:00013a46   455 0001:00013a51
   456 0001:00013a5f   459 0001:00013a66   460 0001:00013a72   461 0001:00013a7d
   463 0001:00013a81   464 0001:00013a8a   468 0001:00013aa7   469 0001:00013ab0
   472 0001:00013ab4   475 0001:00013ac7   477 0001:00013acd   478 0001:00013ad6
   481 0001:00013ada   485 0001:00013aeb   486 0001:00013aed

Line numbers for C:\Program Files\Microsoft Visual Studio .NET 2003\Vc7\lib\msvcrtd.lib(f:\vs70builds\3077\vc\crtbld\crt\src\dllargv.c) segment .text

    48 0001:00013e00    49 0001:00013e03    50 0001:00013e05

Line numbers for C:\Program Files\Microsoft Visual Studio .NET 2003\Vc7\lib\msvcrtd.lib(f:\vs70builds\3077\vc\crtbld\crt\src\merr.c) segment .text

    32 0001:00013df0    33 0001:00013df3    34 0001:00013df5

Line numbers for C:\Program Files\Microsoft Visual Studio .NET 2003\Vc7\lib\msvcrtd.lib(f:\vs70builds\3077\vc\crtbld\crt\src\ti_inst.cpp) segment .text

    17 0001:0001af30    18 0001:0001af40    21 0001:0001afc0    22 0001:0001afc7
    23 0001:0001afca

Line numbers for C:\Program Files\Microsoft Visual Studio .NET 2003\Vc7\lib\msvcrtd.lib(f:\vs70builds\3077\vc\crtbld\crt\src\intel\fp8.c) segment .text

    18 0001:00013dd0    19 0001:00013dd3    20 0001:00013de5

Line numbers for C:\Program Files\Microsoft Visual Studio .NET 2003\Vc7\lib\msvcrtd.lib(f:\vs70builds\3077\vc\crtbld\crt\src\secchk.c) segment .text

   103 0001:00013380   100 0001:00013380   104 0001:00013386   105 0001:00013388
   107 0001:00013389   114 0001:00013390   116 0001:000133b6   117 0001:000133bd
   119 0001:000133d2   123 0001:000133e2   124 0001:000133ea

Line numbers for C:\Program Files\Microsoft Visual Studio .NET 2003\Vc7\lib\msvcrtd.lib(f:\vs70builds\3077\vc\crtbld\crt\src\seccinit.c) segment .text

    49 0001:00013bf0    58 0001:00013bf6    59 0001:00013c0b    67 0001:00013c0d
    69 0001:00013c17    70 0001:00013c1d    75 0001:00013c26    76 0001:00013c32
    77 0001:00013c3e    79 0001:00013c4a    81 0001:00013c54    82 0001:00013c5d
    93 0001:00013c66    94 0001:00013c80

Line numbers for C:\Program Files\Microsoft Visual Studio .NET 2003\Vc7\atlmfc\lib\atlsd.lib(f:\vs70builds\6030\vc\mfcatl\ship\atlmfc\include\atlbase.h) segment .text

  2620 0001:0001c010

Line numbers for C:\Program Files\Microsoft Visual Studio .NET 2003\Vc7\atlmfc\lib\atlsd.lib(f:\vs70builds\6030\vc\mfcatl\ship\atlmfc\include\atlsimpcoll.h) segment .text

   139 0001:0001a6c0   140 0001:0001a6c9   143 0001:0001a6d7   144 0001:0001a6fa
   145 0001:0001a712   146 0001:0001a718   147 0001:0001a71c   148 0001:0001a725
   150 0001:0001a72d   151 0001:0001a740   152 0001:0001a74f   153 0001:0001a754
   135 0001:0001a760   136 0001:0001a767   137 0001:0001a76d   139 0001:0001a780
   140 0001:0001a789   143 0001:0001a797   144 0001:0001a7ba   145 0001:0001a7d2
   146 0001:0001a7d8   147 0001:0001a7dc   148 0001:0001a7e5   150 0001:0001a7ed
   151 0001:0001a800   152 0001:0001a80f   153 0001:0001a814   162 0001:0001a820
   163 0001:0001a827   164 0001:0001a859   165 0001:0001a86a   167 0001:0001a86e
   168 0001:0001a87c   169 0001:0001a8af   170 0001:0001a8be   171 0001:0001a8c3
   194 0001:0001a8d0   195 0001:0001a8d7   196 0001:0001a909   198 0001:0001a91a
   200 0001:0001a926   201 0001:0001a931   246 0001:0001a940   247 0001:0001a949
   248 0001:0001a980   246 0001:0001a990   247 0001:0001a999   248 0001:0001a9d0
   230 0001:0001a9e0   231 0001:0001a9fd   230 0001:0001aa10   231 0001:0001aa21
   233 0001:0001aa30   235 0001:0001aa33   236 0001:0001aa36   233 0001:0001aa40
   235 0001:0001aa43   236 0001:0001aa46

Line numbers for C:\Program Files\Microsoft Visual Studio .NET 2003\Vc7\atlmfc\lib\atlsd.lib(f:\vs70builds\6030\vc\mfcatl\ship\atlmfc\src\atl\atls\atltracemodulemanager.h) segment .text

   158 0001:0001a490   163 0001:0001a4c0   159 0001:0001a4e0   165 0001:0001a510
   162 0001:0001a530   166 0001:0001a550    66 0001:0001a570    67 0001:0001a579
    69 0001:0001a582    71 0001:0001a586    72 0001:0001a596    75 0001:0001a59c
    78 0001:0001a5a0    79 0001:0001a5a2    83 0001:0001a5b0    84 0001:0001a5b7
    85 0001:0001a5db    86 0001:0001a5e4   167 0001:0001a5f0    91 0001:0001a620
    92 0001:0001a629    93 0001:0001a639    96 0001:0001a648   100 0001:0001a64c
   102 0001:0001a654   104 0001:0001a656   108 0001:0001a660   109 0001:0001a669
   110 0001:0001a679   113 0001:0001a67f   115 0001:0001a689   168 0001:0001a690

Line numbers for C:\Program Files\Microsoft Visual Studio .NET 2003\Vc7\atlmfc\lib\atlsd.lib(f:\vs70builds\6030\vc\mfcatl\ship\atlmfc\src\atl\atls\allocate.cpp) segment .text

    22 0001:000195e0    24 0001:00019606    26 0001:00019610    28 0001:00019640
    29 0001:00019647    31 0001:0001964e    35 0001:0001965b    36 0001:00019670
    38 0001:00019676    40 0001:00019680    41 0001:0001968a    42 0001:00019691
    48 0001:00019696    49 0001:000196b5    50 0001:000196be    51 0001:000196c3
    54 0001:000196cc    55 0001:000196ea    56 0001:000196f3    59 0001:000196f8
    61 0001:00019702    63 0001:0001970f    69 0001:0001971b    72 0001:00019778
    76 0001:0001977d    77 0001:00019788    79 0001:00019799    80 0001:000197a6
    82 0001:000197b2    87 0001:000197b7    88 0001:000197bd    89 0001:000197c6
    91 0001:000197d1    92 0001:000197ed    94 0001:000197ef    95 0001:0001982d
    96 0001:0001983c    98 0001:0001984c    99 0001:00019855   103 0001:0001986d
   107 0001:00019873   108 0001:00019882   109 0001:000198a6   112 0001:000198b0
   114 0001:000198bb   116 0001:000198c4   117 0001:000198d1   120 0001:000198db
   122 0001:000198e4   123 0001:000198f1   127 0001:000198fc   128 0001:00019902
   131 0001:00019920   132 0001:00019946   134 0001:00019950   136 0001:00019957
   137 0001:0001996b   138 0001:00019974   141 0001:00019976   142 0001:00019994
   143 0001:0001999d   145 0001:0001999f   146 0001:000199ab   149 0001:000199b6
   150 0001:000199c0   152 0001:000199c9   156 0001:000199de   158 0001:000199e9
   160 0001:000199f2   161 0001:000199ff   163 0001:00019a09   165 0001:00019a12
   166 0001:00019a1f   169 0001:00019a29   172 0001:00019a34   173 0001:00019a3a
   176 0001:00019a50   177 0001:00019a57   179 0001:00019a62   180 0001:00019a79
   181 0001:00019a86   183 0001:00019a90   184 0001:00019a9d   186 0001:00019aa7
   188 0001:00019aae   191 0001:00019ac0   192 0001:00019ac9   194 0001:00019acf
   196 0001:00019ad3   197 0001:00019b04   199 0001:00019b14   200 0001:00019b23
   203 0001:00019b31   204 0001:00019b33   244 0001:00019b40   245 0001:00019b49
   246 0001:00019b59   248 0001:00019b5d   249 0001:00019b94   250 0001:00019b9b
   252 0001:00019ba1   253 0001:00019bb5   255 0001:00019bcb   256 0001:00019bce
   259 0001:00019be0   260 0001:00019be9   261 0001:00019bf0   262 0001:00019bff
   263 0001:00019c26   265 0001:00019c2c   268 0001:00019c3b   269 0001:00019c3e
   272 0001:00019c50   273 0001:00019c59   274 0001:00019c60   275 0001:00019c68
   277 0001:00019c6e   278 0001:00019c7d   279 0001:00019c83   280 0001:00019c85
   281 0001:00019c8e   282 0001:00019c97   283 0001:00019c99   284 0001:00019c9c
   287 0001:00019cb0   288 0001:00019cb7   289 0001:00019ce1   290 0001:00019cec
   295 0001:00019cf0   296 0001:00019cf9   297 0001:00019cff   298 0001:00019d21
   300 0001:00019d45   301 0001:00019d4d   304 0001:00019d51   305 0001:00019d55
   308 0001:00019d60   311 0001:00019d69   312 0001:00019d74   313 0001:00019d9b
   314 0001:00019da2   316 0001:00019dac   318 0001:00019dd9   319 0001:00019de8
   320 0001:00019e0f   321 0001:00019e20   323 0001:00019e28   324 0001:00019e34
   325 0001:00019e3d   326 0001:00019e54   328 0001:00019e5a   329 0001:00019e5f
   331 0001:00019e69   332 0001:00019e70   333 0001:00019e7f   334 0001:00019e94
   335 0001:00019ea9   337 0001:00019ec1   338 0001:00019ed0   339 0001:00019efe
   340 0001:00019f00   342 0001:00019f0a   344 0001:00019f0f   345 0001:00019f12
   350 0001:00019f20   351 0001:00019f29   352 0001:00019f30   353 0001:00019f3b
   354 0001:00019f62   355 0001:00019f71   357 0001:00019f7b   359 0001:00019f89
   361 0001:00019f93   363 0001:00019fc0   364 0001:00019fcf   365 0001:00019ff6
   366 0001:0001a001   368 0001:0001a009   369 0001:0001a01f   370 0001:0001a02a
   371 0001:0001a03b   372 0001:0001a043   373 0001:0001a050   375 0001:0001a056
   377 0001:0001a05b   379 0001:0001a065   380 0001:0001a06c   381 0001:0001a086
   382 0001:0001a09b   383 0001:0001a0b0   385 0001:0001a0c8   386 0001:0001a0d7
   387 0001:0001a105   388 0001:0001a107   390 0001:0001a111   392 0001:0001a116
   395 0001:0001a124   397 0001:0001a12e   398 0001:0001a131   401 0001:0001a140
   402 0001:0001a149   403 0001:0001a158   405 0001:0001a15e   406 0001:0001a166
   408 0001:0001a16c   409 0001:0001a17b   411 0001:0001a181   412 0001:0001a18f
   414 0001:0001a193   415 0001:0001a19c   416 0001:0001a1a9   417 0001:0001a1b1
   418 0001:0001a1b9   420 0001:0001a1bb   421 0001:0001a1c9   423 0001:0001a1cd
   424 0001:0001a1cf   427 0001:0001a1e0   428 0001:0001a1e7   429 0001:0001a1f1
   432 0001:0001a200   433 0001:0001a209   435 0001:0001a214   438 0001:0001a21c
   439 0001:0001a227   441 0001:0001a245   442 0001:0001a254   443 0001:0001a265
   446 0001:0001a271   447 0001:0001a27a   448 0001:0001a288   450 0001:0001a291
   451 0001:0001a299   452 0001:0001a29d   453 0001:0001a2a4   455 0001:0001a2b6
   456 0001:0001a2c5   457 0001:0001a2d0   459 0001:0001a2d8   461 0001:0001a2e9
   462 0001:0001a2ed   464 0001:0001a2f5   466 0001:0001a2f7   467 0001:0001a30c
   468 0001:0001a315   471 0001:0001a31e   473 0001:0001a326   475 0001:0001a32a
   476 0001:0001a32f   478 0001:0001a337   480 0001:0001a351   481 0001:0001a368
   482 0001:0001a37a   483 0001:0001a38d   484 0001:0001a38f   486 0001:0001a39d
   488 0001:0001a39f   491 0001:0001a3ab   493 0001:0001a3b0   494 0001:0001a3b7
   497 0001:0001a3c0   498 0001:0001a3c9   500 0001:0001a3d8   502 0001:0001a3f7
   503 0001:0001a414   504 0001:0001a41a   505 0001:0001a428   506 0001:0001a42a
   508 0001:0001a44c   509 0001:0001a469   510 0001:0001a46f   511 0001:0001a477
   512 0001:0001a479   514 0001:0001a480

Line numbers for C:\Program Files\Microsoft Visual Studio .NET 2003\Vc7\atlmfc\lib\atlsd.lib(f:\vs70builds\6030\vc\mfcatl\ship\atlmfc\include\atlbase.h) segment .text

  2620 0001:0001bff0

Line numbers for C:\Program Files\Microsoft Visual Studio .NET 2003\Vc7\atlmfc\lib\atlsd.lib(f:\vs70builds\6030\vc\mfcatl\ship\atlmfc\include\atlsimpcoll.h) segment .text

    97 0001:000192d0   100 0001:00019300   101 0001:00019307   102 0001:0001930f
   135 0001:00019320   136 0001:00019327   137 0001:0001932d   139 0001:00019340
   140 0001:00019349   143 0001:00019357   144 0001:0001937a   145 0001:00019392
   146 0001:00019398   147 0001:0001939c   148 0001:000193a5   150 0001:000193ad
   151 0001:000193c0   152 0001:000193cf   153 0001:000193d4   162 0001:000193e0
   163 0001:000193e7   164 0001:00019419   165 0001:0001942a   167 0001:0001942e
   168 0001:0001943c   169 0001:0001946f   170 0001:0001947e   171 0001:00019483
   194 0001:00019490   195 0001:00019497   196 0001:000194c9   198 0001:000194da
   200 0001:000194e6   201 0001:000194f1   173 0001:00019500   174 0001:00019509
   176 0001:00019511   177 0001:0001952e   178 0001:00019530   179 0001:0001953e
   181 0001:00019547   182 0001:00019551   183 0001:0001955b   246 0001:00019560
   247 0001:00019569   248 0001:000195a0   230 0001:000195b0   231 0001:000195c1
   233 0001:000195d0   235 0001:000195d3   236 0001:000195d6

Line numbers for C:\Program Files\Microsoft Visual Studio .NET 2003\Vc7\atlmfc\lib\atlsd.lib(f:\vs70builds\6030\vc\mfcatl\ship\atlmfc\src\atl\atls\atlbase.cpp) segment .text

    29 0001:00018e40    30 0001:00018e64    32 0001:00018e70    34 0001:00018e8f
    36 0001:00018e99    37 0001:00018eaf    38 0001:00018eb9    39 0001:00018ec6
    41 0001:00018ecf    43 0001:00018ed8    46 0001:00018ee2    49 0001:00018eed
    51 0001:00018f08    55 0001:00018f12    56 0001:00018f1f    58 0001:00018f2c
    60 0001:00018f3e    61 0001:00018f6b    62 0001:00018f8d    64 0001:00018f94
    67 0001:00018fb0    68 0001:00018fb7    69 0001:00018fc2    72 0001:00018fd0
    73 0001:00018fd9    74 0001:00018fea    76 0001:00018ff6    77 0001:00019020
    78 0001:00019042    80 0001:00019053    81 0001:00019076    84 0001:00019080
    85 0001:00019089    86 0001:0001909a    88 0001:000190a6    89 0001:000190d0
    90 0001:000190f2    92 0001:00019103    94 0001:00019125    96 0001:0001913b
    97 0001:0001914a    99 0001:0001915b   100 0001:0001915d   101 0001:0001916c
   103 0001:00019180   104 0001:00019189   105 0001:0001919a   107 0001:000191a6
   108 0001:000191d0   109 0001:000191f2   111 0001:00019206   113 0001:0001921c
   116 0001:00019230   118 0001:00019240   121 0001:00019256   122 0001:00019275
   126 0001:0001bfd0

Line numbers for C:\Program Files\Microsoft Visual Studio .NET 2003\Vc7\atlmfc\lib\atlsd.lib(f:\vs70builds\6030\vc\mfcatl\ship\atlmfc\include\atlbase.h) segment .text

  2620 0001:0001bf90

Line numbers for C:\Program Files\Microsoft Visual Studio .NET 2003\Vc7\atlmfc\lib\atlsd.lib(f:\vs70builds\6030\vc\mfcatl\ship\atlmfc\include\atlsimpcoll.h) segment .text

   135 0001:00017b10   136 0001:00017b17   137 0001:00017b1d   194 0001:00017b30
   195 0001:00017b37   196 0001:00017b69   198 0001:00017b7a   200 0001:00017b86
   201 0001:00017b91

Line numbers for C:\Program Files\Microsoft Visual Studio .NET 2003\Vc7\atlmfc\lib\atlsd.lib(f:\vs70builds\6030\vc\mfcatl\ship\atlmfc\src\atl\atls\atltracemodulemanager.h) segment .text

   124 0001:00017a40    25 0001:00017a90    26 0001:00017ab0   161 0001:00017ad0
   144 0001:00017af0

Line numbers for C:\Program Files\Microsoft Visual Studio .NET 2003\Vc7\atlmfc\lib\atlsd.lib(f:\vs70builds\6030\vc\mfcatl\ship\atlmfc\src\atl\atls\allocate.h) segment .text

    55 0001:00017a20

Line numbers for C:\Program Files\Microsoft Visual Studio .NET 2003\Vc7\atlmfc\lib\atlsd.lib(f:\vs70builds\6030\vc\mfcatl\ship\atlmfc\src\atl\atls\atldebugapi.cpp) segment .text

    25 0001:00016880    27 0001:00016884    29 0001:00016897    31 0001:0001689d
    32 0001:000168a7    34 0001:000168b1    39 0001:000168c0    40 0001:000168c6
    41 0001:000168d7    42 0001:000168e8    43 0001:0001690c    45 0001:00016912
    46 0001:0001691e    49 0001:00016923    50 0001:00016929    53 0001:00016930
    54 0001:00016934    55 0001:0001693d    57 0001:0001694b    59 0001:00016950
    60 0001:00016955    63 0001:00016960    64 0001:00016966    65 0001:00016983
    66 0001:00016989    67 0001:0001698d    68 0001:000169ea    71 0001:00016a00
    72 0001:00016a06    73 0001:00016a0c    75 0001:00016a10    77 0001:00016a19
    78 0001:00016a2e    80 0001:00016a33    81 0001:00016a39    86 0001:00016a40
    87 0001:00016a46    89 0001:00016a4c    91 0001:00016a52    95 0001:00016a59
    96 0001:00016a64    97 0001:00016a88    99 0001:00016a8e   100 0001:00016a9a
   101 0001:00016aac   102 0001:00016abe   105 0001:00016ad0   106 0001:00016ad5
   109 0001:00016ae0   110 0001:00016ae6   112 0001:00016aec   114 0001:00016af2
   118 0001:00016af9   120 0001:00016b02   121 0001:00016b11   122 0001:00016b35
   124 0001:00016b3b   127 0001:00016b55   128 0001:00016b62   130 0001:00016b64
   131 0001:00016b71   133 0001:00016b73   134 0001:00016b80   136 0001:00016b82
   139 0001:00016ba7   142 0001:00016bb3   143 0001:00016bb8   147 0001:00016bc0
   148 0001:00016bc6   150 0001:00016bcc   152 0001:00016bd2   156 0001:00016bd9
   157 0001:00016be2   158 0001:00016bf1   160 0001:00016bf7   163 0001:00016c11
   164 0001:00016c1b   166 0001:00016c1d   167 0001:00016c27   169 0001:00016c29
   170 0001:00016c33   172 0001:00016c35   175 0001:00016c5a   177 0001:00016c62
   178 0001:00016c67   182 0001:00016c70   183 0001:00016c76   185 0001:00016c7c
   187 0001:00016c82   191 0001:00016c89   192 0001:00016c94   193 0001:00016cbb
   195 0001:00016cc1   196 0001:00016cc7   197 0001:00016cd5   198 0001:00016cdb
   199 0001:00016cea   200 0001:00016cf0   201 0001:00016cff   202 0001:00016d05
   205 0001:00016d14   206 0001:00016d19   209 0001:00016d20   210 0001:00016d26
   212 0001:00016d2c   214 0001:00016d32   218 0001:00016d39   219 0001:00016d42
   220 0001:00016d51   221 0001:00016d78   223 0001:00016d82   225 0001:00016d88
   228 0001:00016d96   230 0001:00016d9c   233 0001:00016dbc   234 0001:00016dc5
   236 0001:00016dc7   237 0001:00016dd0   239 0001:00016dd2   240 0001:00016ddb
   242 0001:00016ddd   247 0001:00016e02   248 0001:00016e07   252 0001:00016e10
   253 0001:00016e16   255 0001:00016e1c   257 0001:00016e22   261 0001:00016e29
   262 0001:00016e32   263 0001:00016e41   264 0001:00016e68   266 0001:00016e6e
   268 0001:00016e74   271 0001:00016e7e   273 0001:00016e84   276 0001:00016ea1
   277 0001:00016eaa   279 0001:00016eac   280 0001:00016eb5   282 0001:00016eb7
   288 0001:00016ec0   289 0001:00016ec5   292 0001:00016ed0   293 0001:00016ed3
   294 0001:00016ee2   295 0001:00016ee4   296 0001:00016ef4   299 0001:00016f00
   300 0001:00016f06   301 0001:00016f23   302 0001:00016f32   303 0001:00016f34
   304 0001:00016f94   308 0001:00016fa0   310 0001:00016fb4   312 0001:00016fbb
   313 0001:00016fd4   315 0001:00016fde   317 0001:00017002   319 0001:00017017
   320 0001:0001704c   321 0001:00017055   322 0001:0001705f   323 0001:00017061
   326 0001:00017073   328 0001:0001708e   329 0001:000170c4   330 0001:000170cd
   331 0001:000170d7   332 0001:000170d9   335 0001:000170eb   336 0001:00017115
   338 0001:00017119   339 0001:0001711f   340 0001:00017139   341 0001:0001713b
   343 0001:00017148   347 0001:00017160   349 0001:00017174   350 0001:0001717b
   351 0001:00017185   352 0001:0001719f   354 0001:000171a9   356 0001:000171cd
   358 0001:000171e2   359 0001:00017217   360 0001:00017220   361 0001:0001722a
   362 0001:0001722c   365 0001:0001723e   367 0001:00017259   368 0001:0001728f
   369 0001:00017298   370 0001:000172a2   371 0001:000172a4   374 0001:000172b6
   375 0001:000172e0   377 0001:000172e6   378 0001:000172ec   379 0001:00017306
   380 0001:00017308   383 0001:00017315   386 0001:00017330   387 0001:00017340
   390 0001:0001736d   391 0001:0001738c   392 0001:00017390   394 0001:000173a3
   395 0001:000173cb   398 0001:000173cf   399 0001:000173d2   402 0001:000173f0
   403 0001:000173f6   404 0001:000173fc   405 0001:00017406   406 0001:0001742e
   409 0001:00017440   410 0001:00017444   411 0001:0001744a   412 0001:00017452
   415 0001:00017460   416 0001:00017466   418 0001:0001748d   419 0001:00017493
   420 0001:000174bf   421 0001:000174ca   423 0001:000174f1   425 0001:000174fb
   426 0001:00017510   427 0001:00017529   428 0001:0001753a   429 0001:0001754c
   430 0001:0001755f   431 0001:00017572   432 0001:00017585   434 0001:00017596
   435 0001:0001759b   438 0001:000175b0   439 0001:000175b6   440 0001:000175dd
   441 0001:000175e3   443 0001:000175e8   444 0001:000175ee   446 0001:0001761a
   447 0001:0001762b   448 0001:0001763d   449 0001:00017643   451 0001:00017648
   452 0001:0001765d   453 0001:0001767a   454 0001:00017689   455 0001:0001769b
   456 0001:000176a7   460 0001:000176bf   461 0001:000176cc   463 0001:000176ce
   464 0001:000176db   466 0001:000176dd   469 0001:000176ea   472 0001:000176f0
   473 0001:000176f6   475 0001:0001771d   476 0001:00017723   478 0001:0001774f
   479 0001:00017758   480 0001:00017767   481 0001:0001776d   483 0001:00017772
   485 0001:00017783   486 0001:0001778b   488 0001:000177a5   489 0001:000177ab
   490 0001:000177b0   491 0001:000177b9   492 0001:000177cb   494 0001:000177cd
   495 0001:000177d3   497 0001:000177d8   498 0001:000177ed   499 0001:000177fb
   500 0001:0001780a   503 0001:00017827   504 0001:00017834   506 0001:00017836
   507 0001:00017843   509 0001:00017845   510 0001:00017852   512 0001:00017854
   515 0001:00017879   522 0001:00017880   523 0001:00017886   525 0001:0001788a
   526 0001:000178b7   527 0001:000178c0   529 0001:000178c9   530 0001:000178d6
   531 0001:000178fd   533 0001:00017911   534 0001:00017938   536 0001:00017942
   538 0001:0001794f   539 0001:00017963   541 0001:0001796d   542 0001:00017971
   547 0001:00017975   549 0001:000179a6   551 0001:000179aa   553 0001:000179ac
   555 0001:000179cf   557 0001:000179d3   558 0001:000179d5   560 0001:000179e8
   563 0001:000179ec   565 0001:000179f4   566 0001:00017a0a   571 0001:00017a0e
   572 0001:00017a10

Line numbers for C:\Program Files\Microsoft Visual Studio .NET 2003\Vc7\atlmfc\lib\atlsd.lib(f:\vs70builds\6030\vc\mfcatl\ship\atlmfc\include\atlbase.h) segment .text

   191 0001:00018be0   192 0001:00018be3   193 0001:00018bec   194 0001:00018bf0
   195 0001:00018bfd   197 0001:00018c10   198 0001:00018c16   199 0001:00018c1d
   200 0001:00018c26   201 0001:00018c2a   202 0001:00018c43   203 0001:00018c49
   204 0001:00018c6b   205 0001:00018c71   206 0001:00018c7d   207 0001:00018c80
   745 0001:00018c90   754 0001:00018c94   756 0001:00018cd0   288 0001:00018ce0
   289 0001:00018cf8   293 0001:00018d00   294 0001:00018d0b   296 0001:00018d11
   299 0001:00018d1a   303 0001:00018d30   304 0001:00018d37   306 0001:00018d42
   308 0001:00018d4a   328 0001:00018d50   329 0001:00018d57   330 0001:00018d83
   331 0001:00018d8d   332 0001:00018d94   312 0001:00018dc0   315 0001:00018dc9
   316 0001:00018df5   317 0001:00018e02   319 0001:00018e08   321 0001:00018e0d
   323 0001:00018e14   324 0001:00018e16  2620 0001:0001bfb0

Line numbers for C:\Program Files\Microsoft Visual Studio .NET 2003\Vc7\atlmfc\lib\atlsd.lib(f:\vs70builds\6030\vc\mfcatl\ship\atlmfc\include\atlcore.h) segment .text

   129 0001:00018b40   130 0001:00018b69   131 0001:00018b70   133 0001:00018b77
   136 0001:00018b8a   138 0001:00018b9d   139 0001:00018ba6   140 0001:00018bad
   141 0001:00018baf   143 0001:00018bbd   144 0001:00018bc0   124 0001:00018da0
   125 0001:00018da7   126 0001:00018db1   127 0001:00018db3   119 0001:00018e20
   120 0001:00018e27   121 0001:00018e31   122 0001:00018e33

Line numbers for C:\Program Files\Microsoft Visual Studio .NET 2003\Vc7\atlmfc\lib\atlsd.lib(f:\vs70builds\6030\vc\mfcatl\ship\atlmfc\include\atlcomcli.h) segment .text

   248 0001:00018960   250 0001:0001896f   126 0001:00018980   127 0001:00018987
   128 0001:0001898f   129 0001:0001899f   142 0001:000189b0   143 0001:000189b7
   144 0001:000189e0   145 0001:000189e3   147 0001:000189f0   148 0001:000189f7
   149 0001:00018a20   150 0001:00018a25   248 0001:00018a30   250 0001:00018a3f
   126 0001:00018a50   127 0001:00018a57   128 0001:00018a5f   129 0001:00018a6f
   142 0001:00018a80   143 0001:00018a87   144 0001:00018ab0   145 0001:00018ab3
   147 0001:00018ac0   148 0001:00018ac7   149 0001:00018af0   150 0001:00018af5
   107 0001:00018b00   109 0001:00018b07   110 0001:00018b10   107 0001:00018b20
   109 0001:00018b27   110 0001:00018b30

Line numbers for C:\Program Files\Microsoft Visual Studio .NET 2003\Vc7\atlmfc\lib\atlsd.lib(f:\vs70builds\6030\devtools\common\win32sdk\include\guiddef.h) segment .text

   151 0001:00018900   156 0001:00018904   157 0001:0001894d

Line numbers for C:\Program Files\Microsoft Visual Studio .NET 2003\Vc7\atlmfc\lib\atlsd.lib(f:\vs70builds\6030\vc\mfcatl\ship\atlmfc\src\atl\atls\atlfuncs.cpp) segment .text

    31 0001:000188b0    28 0001:000188b0    32 0001:000188b4    33 0001:000188b7
    34 0001:000188bb    35 0001:000188be

Line numbers for C:\Program Files\Microsoft Visual Studio .NET 2003\Vc7\atlmfc\lib\atlsd.lib(f:\vs70builds\6030\vc\mfcatl\ship\atlmfc\include\atlbase.inl) segment .text

    27 0001:00017ba0    28 0001:00017ba6    29 0001:00017bac    31 0001:00017bb6
    32 0001:00017bbe    33 0001:00017bc6    34 0001:00017be2    35 0001:00017be8
    36 0001:00017c0f    37 0001:00017c15    38 0001:00017c37    39 0001:00017c50
    42 0001:00017c60    43 0001:00017c66    44 0001:00017c6c    46 0001:00017c76
    47 0001:00017c7e    48 0001:00017c86    49 0001:00017ca2    50 0001:00017ca8
    51 0001:00017ccf    52 0001:00017cd5    53 0001:00017cf3    54 0001:00017d0c
    62 0001:00017d20    63 0001:00017d26    66 0001:00017d2c    67 0001:00017d3a
    68 0001:00017d52    69 0001:00017d5c    71 0001:00017d68    72 0001:00017d6a
    75 0001:00017d70    76 0001:00017d74    77 0001:00017d98    78 0001:00017d9e
    80 0001:00017da5    81 0001:00017db6    84 0001:00017dbc    85 0001:00017dd9
    87 0001:00017ddf    88 0001:00017def    91 0001:00017df8    92 0001:00017dfb
    95 0001:00017e10    96 0001:00017e16    97 0001:00017e3a    98 0001:00017e40
   100 0001:00017e47   101 0001:00017e50   102 0001:00017e57   105 0001:00017e5d
   106 0001:00017e6b   107 0001:00017e83   109 0001:00017e98   110 0001:00017e9b
   116 0001:00017eb0   117 0001:00017eb6   118 0001:00017eda   119 0001:00017ee0
   120 0001:00017eea   121 0001:00017ef2   123 0001:00017efc   124 0001:00017f02
   125 0001:00017f0c   127 0001:00017f15   129 0001:00017f1c   131 0001:00017f3f
   133 0001:00017f4b   134 0001:00017f53   136 0001:00017f7a   138 0001:00017f87
   139 0001:00017f98   140 0001:00017fa3   142 0001:00017fa9   143 0001:00017fd6
   144 0001:00017ffb   146 0001:00018005   147 0001:0001800e   148 0001:0001802a
   149 0001:00018032   150 0001:0001803b   151 0001:00018057   154 0001:00018059
   156 0001:0001805e   157 0001:0001806c   158 0001:00018073   159 0001:00018076
   162 0001:00018080   163 0001:00018086   164 0001:000180ad   165 0001:000180b3
   167 0001:000180ba   168 0001:000180c1   170 0001:000180e6   171 0001:000180ee
   172 0001:00018104   173 0001:00018106   174 0001:00018109   177 0001:00018110
   178 0001:00018116   179 0001:0001813d   180 0001:00018143   182 0001:0001814a
   183 0001:00018151   185 0001:00018176   186 0001:0001817e   187 0001:0001818c
   188 0001:0001818e   189 0001:00018191   192 0001:000181a0   196 0001:000181a6
   198 0001:000181b3   200 0001:000181cb   201 0001:000181d1   203 0001:000181db
   204 0001:000181e1   207 0001:000181e6   210 0001:00018200   213 0001:0001820d
   214 0001:00018213   215 0001:00018226   216 0001:00018228   218 0001:0001823b
   220 0001:00018241   222 0001:0001824b   223 0001:00018251   224 0001:0001825b
   225 0001:0001825d   228 0001:00018267   229 0001:00018277   230 0001:0001827e
   231 0001:00018283   232 0001:00018288   233 0001:0001828a   240 0001:00018290
   241 0001:00018296   242 0001:000182bd   244 0001:000182e4   245 0001:000182f0
   248 0001:000182fa   249 0001:00018324   250 0001:0001832a   251 0001:00018334
   252 0001:0001833d   254 0001:0001834a   255 0001:00018356   256 0001:00018362
   257 0001:0001836a   259 0001:00018371   261 0001:0001837e   262 0001:0001838c
   264 0001:000183ac   266 0001:000183b5   267 0001:000183dc   268 0001:000183e8
   269 0001:000183f4   270 0001:000183fc   275 0001:00018400   276 0001:0001841c
   277 0001:0001842e   280 0001:00018433   281 0001:0001843c   282 0001:00018441
   283 0001:00018446   286 0001:00018450   287 0001:00018453   288 0001:00018458
   294 0001:00018460   295 0001:00018466   296 0001:0001846c   298 0001:00018478
   299 0001:000184a5   300 0001:000184b1   302 0001:000184bd   303 0001:000184c5
   304 0001:000184d1   305 0001:000184e2   307 0001:000184ee   308 0001:0001851b
   309 0001:00018540   311 0001:0001854a   312 0001:00018556   313 0001:0001855f
   316 0001:00018570   317 0001:00018576   318 0001:0001857c   320 0001:00018583
   321 0001:0001858a   322 0001:0001859b   324 0001:000185a7   325 0001:000185d4
   326 0001:000185f9   328 0001:0001860c   329 0001:00018615   331 0001:0001861b
   332 0001:00018624   333 0001:0001862b   335 0001:00018631   337 0001:0001863c
   338 0001:00018642   339 0001:0001864e   340 0001:00018650   341 0001:0001865c
   342 0001:00018664   344 0001:00018666   345 0001:0001866c   346 0001:00018675
   348 0001:00018677   349 0001:00018688   352 0001:00018690   353 0001:00018696
   354 0001:0001869c   357 0001:000186a6   358 0001:000186ae   360 0001:000186b5
   362 0001:000186bf   363 0001:000186cd   365 0001:000186d3   366 0001:00018700
   368 0001:00018725   369 0001:00018728   375 0001:00018730   376 0001:00018736
   377 0001:0001873c   379 0001:00018746   380 0001:0001874d   381 0001:00018754
   382 0001:00018767   383 0001:0001876d   384 0001:00018774   386 0001:00018779
   387 0001:00018781   388 0001:0001878a   389 0001:0001879b   390 0001:000187a6
   392 0001:000187ac   393 0001:000187b8   395 0001:000187c1   397 0001:000187c3
   398 0001:000187d5   399 0001:00018802   401 0001:00018827   402 0001:0001882f
   403 0001:00018832   406 0001:00018840   407 0001:00018846   408 0001:0001884c
   410 0001:00018858   411 0001:00018861   412 0001:00018868   414 0001:0001886e
   415 0001:0001887a   416 0001:00018883   417 0001:00018895   418 0001:0001889b
   419 0001:0001889d   420 0001:000188a7

Line numbers for C:\Program Files\Microsoft Visual Studio .NET 2003\Vc7\atlmfc\lib\atlsd.lib(f:\vs70builds\6030\vc\mfcatl\ship\atlmfc\include\atlbase.h) segment .text

  2620 0001:0001bf70

Line numbers for C:\Program Files\Microsoft Visual Studio .NET 2003\Vc7\atlmfc\lib\atlsd.lib(f:\vs70builds\6030\vc\mfcatl\ship\atlmfc\include\atltrace.h) segment .text

   196 0001:000167e0   197 0001:000167f0   198 0001:00016803   199 0001:00016819
    82 0001:00016830    84 0001:00016837    85 0001:00016850   131 0001:00016860

Line numbers for C:\Program Files\Microsoft Visual Studio .NET 2003\Vc7\atlmfc\lib\atlsd.lib(f:\vs70builds\6030\vc\mfcatl\ship\atlmfc\src\atl\atls\atltrace.cpp) segment .text

    22 0001:0001bc10    23 0001:0001bc30    24 0001:0001bc50    25 0001:0001bc70
    26 0001:0001bc90    27 0001:0001bcb0    28 0001:0001bcd0    29 0001:0001bcf0
    30 0001:0001bd10    31 0001:0001bd30    32 0001:0001bd50    33 0001:0001bd70
    34 0001:0001bd90    35 0001:0001bdb0    36 0001:0001bdd0    37 0001:0001bdf0
    38 0001:0001be10    39 0001:0001be30    40 0001:0001be50    41 0001:0001be70
    42 0001:0001be90    43 0001:0001beb0    44 0001:0001bed0    47 0001:0001bef0
    48 0001:0001bf10    49 0001:0001bf30    50 0001:0001bf50

Line numbers for C:\Program Files\Microsoft Visual Studio .NET 2003\Vc7\atlmfc\lib\atlsd.lib(f:\vs70builds\6030\vc\mfcatl\ship\atlmfc\include\atlbase.h) segment .text

  2620 0001:0001bb70

Line numbers for C:\Program Files\Microsoft Visual Studio .NET 2003\Vc7\atlmfc\lib\atlsd.lib(f:\vs70builds\6030\vc\mfcatl\ship\atlmfc\include\atltypes.inl) segment .text

    22 0001:000150b0    24 0001:000150c0    26 0001:000150f0    28 0001:00015110
    30 0001:00015130    31 0001:00015137    32 0001:00015147    33 0001:00015156
    35 0001:00015160    37 0001:000151a0    39 0001:000151e0    41 0001:00015210
    43 0001:00015240    45 0001:00015260    47 0001:00015290    49 0001:000152c0
    51 0001:000152f0    53 0001:00015320    55 0001:00015350    57 0001:00015390
    61 0001:000153d0    63 0001:000153e0    65 0001:00015410    67 0001:00015430
    69 0001:00015450    70 0001:00015457    71 0001:00015467    72 0001:00015476
    74 0001:00015480    76 0001:000154b0    78 0001:000154e0    80 0001:00015510
    82 0001:00015530    84 0001:00015570    86 0001:000155b0    88 0001:000155e0
    90 0001:00015610    92 0001:00015640    94 0001:00015670    96 0001:000156a0
    98 0001:000156d0   100 0001:00015700   102 0001:00015730   104 0001:00015760
   106 0001:000157a0   110 0001:000157e0   112 0001:000157f0   114 0001:00015830
   116 0001:00015850   118 0001:00015870   120 0001:000158b0   121 0001:000158c8
   123 0001:000158f0   125 0001:00015910   127 0001:00015930   129 0001:00015970
   131 0001:00015980   133 0001:000159a0   135 0001:000159b0   137 0001:000159d0
   139 0001:00015a10   141 0001:00015a30   143 0001:00015a60   145 0001:00015a70
   147 0001:00015a80   149 0001:00015aa0   151 0001:00015af0   153 0001:00015b10
   155 0001:00015b40   157 0001:00015b70   159 0001:00015b90   161 0001:00015bb0
   163 0001:00015bd0   165 0001:00015bf0   167 0001:00015c10   169 0001:00015c40
   171 0001:00015c70   173 0001:00015c90   175 0001:00015cb0   177 0001:00015cd0
   179 0001:00015d00   181 0001:00015d30   183 0001:00015d60   185 0001:00015d90
   187 0001:00015db0   189 0001:00015dd0   191 0001:00015df0   193 0001:00015e10
   195 0001:00015e30   197 0001:00015e50   199 0001:00015e70   201 0001:00015e90
   203 0001:00015ec0   205 0001:00015ef0   207 0001:00015f10   209 0001:00015f30
   211 0001:00015f50   213 0001:00015fb0   215 0001:00016010   217 0001:00016070
   219 0001:000160d0   221 0001:00016120   223 0001:00016170   224 0001:00016193
   226 0001:000161c0   227 0001:000161e3   229 0001:00016210   232 0001:00016230
   234 0001:00016239   236 0001:00016246   237 0001:0001624e   238 0001:00016259
   240 0001:00016262   242 0001:00016270   243 0001:00016279   244 0001:00016285
   246 0001:0001628e   249 0001:000162a0   250 0001:000162a7   251 0001:000162c8
   252 0001:000162ec   255 0001:00016300   256 0001:00016307   257 0001:00016323
   258 0001:00016341   261 0001:00016350   262 0001:00016357   263 0001:00016378
   264 0001:0001639c   267 0001:000163b0   268 0001:000163b7   269 0001:000163d3
   270 0001:000163f1   273 0001:00016400   278 0001:00016407   279 0001:00016469

Line numbers for C:\Program Files\Microsoft Visual Studio .NET 2003\Vc7\atlmfc\lib\atlsd.lib(f:\vs70builds\6030\vc\mfcatl\ship\atlmfc\include\atlbase.h) segment .text

  2620 0001:0001c030

Line numbers for C:\Program Files\Microsoft Visual Studio .NET 2003\Vc7\atlmfc\lib\atlsd.lib(f:\vs70builds\6030\vc\mfcatl\ship\atlmfc\src\atl\atls\atltracemodulemanager.h) segment .text

    44 0001:0001ae70    45 0001:0001ae9e

Line numbers for C:\Program Files\Microsoft Visual Studio .NET 2003\Vc7\atlmfc\lib\atlsd.lib(f:\vs70builds\6030\vc\mfcatl\ship\atlmfc\src\atl\atls\atltracemodulemanager.cpp) segment .text

    21 0001:0001aa50    22 0001:0001aa77    23 0001:0001aa80    24 0001:0001aa8c
    27 0001:0001aaa0    28 0001:0001aaba    30 0001:0001aad4    32 0001:0001aae5
    34 0001:0001ab0e    36 0001:0001ab2c    37 0001:0001ab33    40 0001:0001abc0
    41 0001:0001abc2    43 0001:0001abd8    45 0001:0001abde    46 0001:0001abfc
    47 0001:0001ac1e    48 0001:0001ac3e    49 0001:0001ac4f    51 0001:0001ac6d
    52 0001:0001ac7c    53 0001:0001ac89    54 0001:0001ac95    59 0001:0001acb0
    60 0001:0001acc9    61 0001:0001acd8    64 0001:0001ace0    65 0001:0001ace7
    66 0001:0001acfc    67 0001:0001ad05    72 0001:0001ad10    73 0001:0001ad3a
    76 0001:0001ad50    78 0001:0001ad59    82 0001:0001ad7a    91 0001:0001ad80
    92 0001:0001ae2d    94 0001:0001ae39    95 0001:0001ae43    98 0001:0001ae50
    99 0001:0001ae57   100 0001:0001ae66

Line numbers for C:\Program Files\Microsoft Visual Studio .NET 2003\Vc7\atlmfc\lib\atlsd.lib(f:\vs70builds\6030\vc\mfcatl\ship\atlmfc\include\atlbase.h) segment .text

  2620 0001:0001bbf0

Line numbers for C:\Program Files\Microsoft Visual Studio .NET 2003\Vc7\atlmfc\lib\atlsd.lib(f:\vs70builds\6030\vc\mfcatl\ship\atlmfc\include\atltrace.h) segment .text

    70 0001:00016640    71 0001:0001665a    73 0001:0001666f    76 0001:000167c0
    77 0001:000167c7    78 0001:000167d3

Line numbers for C:\Program Files\Microsoft Visual Studio .NET 2003\Vc7\atlmfc\lib\atlsd.lib(f:\vs70builds\6030\vc\mfcatl\ship\atlmfc\include\atlexcept.h) segment .text

    40 0001:00016620    41 0001:0001662f

Line numbers for C:\Program Files\Microsoft Visual Studio .NET 2003\Vc7\atlmfc\lib\atlsd.lib(f:\vs70builds\6030\vc\mfcatl\ship\atlmfc\include\atlsimpcoll.h) segment .text

    97 0001:000164f0    97 0001:00016520   100 0001:000166c0   101 0001:000166c7
   102 0001:000166cf   100 0001:000166e0   101 0001:000166e7   102 0001:000166ef
   173 0001:00016700   174 0001:00016709   176 0001:00016711   177 0001:0001672e
   178 0001:00016730   179 0001:0001673e   181 0001:00016747   182 0001:00016751
   183 0001:0001675b   173 0001:00016760   174 0001:00016769   176 0001:00016771
   177 0001:0001678e   178 0001:00016790   179 0001:0001679e   181 0001:000167a7
   182 0001:000167b1   183 0001:000167bb

Line numbers for C:\Program Files\Microsoft Visual Studio .NET 2003\Vc7\atlmfc\lib\atlsd.lib(f:\vs70builds\6030\vc\mfcatl\ship\atlmfc\src\atl\atls\allocate.h) segment .text

    42 0001:00016470    43 0001:000164ab    46 0001:00016680    47 0001:00016687
    48 0001:00016691

Line numbers for C:\Program Files\Microsoft Visual Studio .NET 2003\Vc7\atlmfc\lib\atlsd.lib(f:\vs70builds\6030\vc\mfcatl\ship\atlmfc\src\atl\atls\externs.cpp) segment .text

    26 0001:00016550    30 0001:00016563    32 0001:0001658e    34 0001:0001659d
    37 0001:000165c6    39 0001:000165e3    42 0001:0001660c    43 0001:0001660e
    23 0001:0001bb90    45 0001:0001bbb0    52 0001:0001bbc0
